 PhysXCommon_64

 Timestamp is 637f4462 (Thu Nov 24 11:16:02 2022)

 Preferred load address is 0000000180000000

 Start         Length     Name                   Class
 0001:00000000 000031d0H .text$di                CODE
 0001:000031d0 001d00a0H .text$mn                CODE
 0001:001d3270 00000040H .text$mn$00             CODE
 0001:001d32b0 00000620H .text$x                 CODE
 0001:001d38d0 0000000fH .text$yd                CODE
 0002:00000000 00000280H .idata$5                DATA
 0002:00000280 00000028H .00cfg                  DATA
 0002:000002a8 00000008H .CRT$XCA                DATA
 0002:000002b0 000018b0H .CRT$XCU                DATA
 0002:00001b60 00000008H .CRT$XCZ                DATA
 0002:00001b68 00000008H .CRT$XIA                DATA
 0002:00001b70 00000018H .CRT$XIC                DATA
 0002:00001b88 00000008H .CRT$XIZ                DATA
 0002:00001b90 00000008H .CRT$XPA                DATA
 0002:00001b98 00000010H .CRT$XPX                DATA
 0002:00001ba8 00000008H .CRT$XPXA               DATA
 0002:00001bb0 00000008H .CRT$XPZ                DATA
 0002:00001bb8 00000008H .CRT$XTA                DATA
 0002:00001bc0 00000010H .CRT$XTZ                DATA
 0002:00001bc8 00000000H .gehcont$y              DATA
 0002:00001bc8 00000000H .gfids$y                DATA
 0002:00001bd0 00012ab0H .rdata                  DATA
 0002:00014680 00000000H .rdata$CastGuardVftablesA DATA
 0002:00014680 00000000H .rdata$CastGuardVftablesC DATA
 0002:00014680 0000043cH .rdata$r                DATA
 0002:00014abc 00000104H .rdata$voltmd           DATA
 0002:00014bc0 00000440H .rdata$zzzdbg           DATA
 0002:00015000 00000008H .rtc$IAA                DATA
 0002:00015008 00000008H .rtc$IZZ                DATA
 0002:00015010 00000008H .rtc$TAA                DATA
 0002:00015018 00000008H .rtc$TZZ                DATA
 0002:00015020 000147f8H .xdata                  DATA
 0002:00029818 00000084H .xdata$x                DATA
 0002:0002989c 00000020H .didat$2                DATA
 0002:000298bc 00000024H .didat$3                DATA
 0002:000298e0 000000c8H .didat$4                DATA
 0002:000299a8 00000410H .didat$6                DATA
 0002:00029db8 000000c8H .didat$7                DATA
 0002:00029e80 0000c478H .edata                  DATA
 0002:000362f8 00000014H .idata$2                DATA
 0002:0003630c 00000014H .idata$3                DATA
 0002:00036320 00000280H .idata$4                DATA
 0002:000365a0 000005beH .idata$6                DATA
 0003:00000000 00001c40H .data                   DATA
 0003:00001c40 000010e0H .data$r                 DATA
 0003:00002d20 000000f0H .data$rs                DATA
 0003:00002e10 000000d0H .didat$5                DATA
 0003:00002ee0 000043dcH .bss                    DATA
 0004:00000000 0000c1bcH .pdata                  DATA
 0005:00000000 00002304H _RDATA                  DATA
 0006:00000000 000000a0H .rsrc$01                DATA
 0006:000000a0 000004b0H .rsrc$02                DATA

  Address         Publics by Value              Rva+Base               Lib:Object

 0000:00000000       __arm64x_extra_rfe_table   0000000000000000     <absolute>
 0000:00000000       __guard_fids_count         0000000000000000     <absolute>
 0000:00000000       __guard_iat_count          0000000000000000     <absolute>
 0000:00000000       __guard_longjmp_count      0000000000000000     <absolute>
 0000:00000000       __arm64x_redirection_metadata 0000000000000000     <absolute>
 0000:00000000       __dynamic_value_reloc_table 0000000000000000     <absolute>
 0000:00000000       __hybrid_code_map          0000000000000000     <absolute>
 0000:00000000       __arm64x_extra_rfe_table_size 0000000000000000     <absolute>
 0000:00000000       __hybrid_auxiliary_iat     0000000000000000     <absolute>
 0000:00000000       ___safe_se_handler_count   0000000000000000     <absolute>
 0000:00000000       __hybrid_auxiliary_iat_copy 0000000000000000     <absolute>
 0000:00000000       __x64_code_ranges_to_entry_points 0000000000000000     <absolute>
 0000:00000000       __AbsoluteZero             0000000000000000     <absolute>
 0000:00000000       __guard_iat_table          0000000000000000     <absolute>
 0000:00000000       __guard_longjmp_table      0000000000000000     <absolute>
 0000:00000000       __guard_check_icall_a64n_fptr 0000000000000000     <absolute>
 0000:00000000       __guard_eh_cont_count      0000000000000000     <absolute>
 0000:00000000       __guard_fids_table         0000000000000000     <absolute>
 0000:00000000       __x64_code_ranges_to_entry_points_count 0000000000000000     <absolute>
 0000:00000000       __arm64x_redirection_metadata_count 0000000000000000     <absolute>
 0000:00000000       __enclave_config           0000000000000000     <absolute>
 0000:00000000       __guard_eh_cont_table      0000000000000000     <absolute>
 0000:00000000       ___safe_se_handler_table   0000000000000000     <absolute>
 0000:00000000       __arm64x_native_entrypoint 0000000000000000     <absolute>
 0000:00000000       __hybrid_code_map_count    0000000000000000     <absolute>
 0000:00000100       __guard_flags              0000000000000100     <absolute>
 0000:00000000       __ImageBase                0000000180000000     <linker-defined>
 0001:000031d0       ??0PtrTable@Cm@physx@@QEAA@W4PxEMPTY@2@@Z 00000001800041d0 f i CmPtrTable.obj
 0001:000031f0       ??0PtrTable@Cm@physx@@QEAA@XZ 00000001800041f0 f   CmPtrTable.obj
 0001:00003200       ??1HeightFieldData@Gu@physx@@QEAA@XZ 0000000180004200 f   GuCCTSweepTests.obj
 0001:00003200       ?requiresObjects@ConvexMesh@Gu@physx@@UEAAXAEAVPxProcessPxBaseCallback@3@@Z 0000000180004200 f   GuConvexMesh.obj
 0001:00003200       _guard_check_icall_nop     0000000180004200 f   LIBCMT:guard_support.obj
 0001:00003200       ?purge@BucketPruner@Gu@physx@@UEAAXXZ 0000000180004200 f   GuBucketPruner.obj
 0001:00003200       ?requiresObjects@TriangleMesh@Gu@physx@@UEAAXAEAVPxProcessPxBaseCallback@3@@Z 0000000180004200 f   GuTriangleMesh.obj
 0001:00003200       ?timeStampChange@CompanionPrunerAABBTree@@UEAAXXZ 0000000180004200 f   GuSecondaryPruner.obj
 0001:00003200       ?merge@BucketPruner@Gu@physx@@UEAAXPEBX@Z 0000000180004200 f   GuBucketPruner.obj
 0001:00003200       ?onMeshIndexFormatChange@TriangleMeshBuilder@physx@@UEAAXXZ 0000000180004200 f   GuCookingTriangleMesh.obj
 0001:00003200       ?visualize@BasePruner@Gu@physx@@UEBAXAEAVPxRenderOutput@3@II@Z 0000000180004200 f   GuIncrementalAABBPruner.obj
 0001:00003200       ?checkTreeLeaf@IncrementalAABBTree@Gu@physx@@QEAAXPEAVIncrementalAABBTreeNode@23@I@Z 0000000180004200 f   GuIncrementalAABBTree.obj
 0001:00003200       ?execute@PxRunnable@physx@@UEAAXXZ 0000000180004200 f   GuSDF.obj
 0001:00003200       ?merge@IncrementalAABBPruner@Gu@physx@@UEAAXPEBX@Z 0000000180004200 f   GuIncrementalAABBPruner.obj
 0001:00003200       ?requiresObjects@HeightField@Gu@physx@@UEAAXAEAVPxProcessPxBaseCallback@3@@Z 0000000180004200 f   GuHeightField.obj
 0001:00003200       ??1PtrTable@Cm@physx@@QEAA@XZ 0000000180004200 f   CmPtrTable.obj
 0001:00003200       ??1AABBTreeBuildNode@Gu@physx@@QEAA@XZ 0000000180004200 f   GuMeshFactory.obj
 0001:00003200       ?swapIndex@CompanionPrunerAABBTree@@UEAAXII@Z 0000000180004200 f   GuSecondaryPruner.obj
 0001:00003200       ??1BigConvexDataBuilder@physx@@QEAA@XZ 0000000180004200 f   GuCookingBigConvexDataBuilder.obj
 0001:00003200       ?swapIndex@CompanionPrunerBucket@@UEAAXII@Z 0000000180004200 f   GuSecondaryPruner.obj
 0001:00003200       ??1Box@Gu@physx@@QEAA@XZ   0000000180004200 f   GuBox.obj
 0001:00003200       ?requiresObjects@SoftBodyMesh@Gu@physx@@UEAAXAEAVPxProcessPxBaseCallback@3@@Z 0000000180004200 f   GuTetrahedronMesh.obj
 0001:00003200       ?profile@Callback@RTree@Gu@physx@@UEAAXXZ 0000000180004200 f   GuMidphaseRTree.obj
 0001:00003200       ?build@CompanionPrunerIncremental@@UEAAXXZ 0000000180004200 f   GuSecondaryPruner.obj
 0001:00003200       ?execute@?$PxThreadT@V?$PxReflectionAllocator@VPxThreadImpl@physx@@@physx@@@physx@@UEAAXXZ 0000000180004200 f   GuSDF.obj
 0001:00003200       ?timeStampChange@CompanionPrunerBucket@@UEAAXXZ 0000000180004200 f   GuSecondaryPruner.obj
 0001:00003210       ??4CmModuleUpdateLoader@Cm@physx@@QEAAAEAV012@AEBV012@@Z 0000000180004210 f i CmWindowsModuleUpdateLoader.obj
 0001:00003210       ??4PtrTable@Cm@physx@@QEAAAEAU012@AEBU012@@Z 0000000180004210 f i CmPtrTable.obj
 0001:00003210       ??4AABBTreeBounds@Gu@physx@@QEAAAEAV012@AEBV012@@Z 0000000180004210 f i GuMeshFactory.obj
 0001:00003220       ?add@PtrTable@Cm@physx@@QEAAXPEAXAEAVPtrTableStorageManager@23@@Z 0000000180004220 f   CmPtrTable.obj
 0001:00003330       ?clear@PtrTable@Cm@physx@@QEAAXAEAVPtrTableStorageManager@23@@Z 0000000180004330 f   CmPtrTable.obj
 0001:000033a0       ?exportExtraData@PtrTable@Cm@physx@@QEAAXAEAVPxSerializationContext@3@@Z 00000001800043a0 f   CmPtrTable.obj
 0001:000033f0       ?find@PtrTable@Cm@physx@@QEBAIPEBX@Z 00000001800043f0 f   CmPtrTable.obj
 0001:00003420       ?getBinaryMetaData@PtrTable@Cm@physx@@SAXAEAVPxOutputStream@3@@Z 0000000180004420 f   CmPtrTable.obj
 0001:00003610       ?getCount@PtrTable@Cm@physx@@QEBAIXZ 0000000180004610 f i CmPtrTable.obj
 0001:00003620       ?getPtrs@PtrTable@Cm@physx@@QEAAPEAPEAXXZ 0000000180004620 f i CmPtrTable.obj
 0001:00003620       ?getPtrs@PtrTable@Cm@physx@@QEBAPEBQEAXXZ 0000000180004620 f i CmPtrTable.obj
 0001:00003630       ?importExtraData@PtrTable@Cm@physx@@QEAAXAEAVPxDeserializationContext@3@@Z 0000000180004630 f   CmPtrTable.obj
 0001:00003660       ?realloc@PtrTable@Cm@physx@@AEAAXIIAEAVPtrTableStorageManager@23@@Z 0000000180004660 f   CmPtrTable.obj
 0001:000036f0       ?replaceWithLast@PtrTable@Cm@physx@@QEAAXIAEAVPtrTableStorageManager@23@@Z 00000001800046f0 f   CmPtrTable.obj
 0001:000037f0       ??_GCollection@Cm@physx@@UEAAPEAXI@Z 00000001800047f0 f i CmCollection.obj
 0001:000037f0       ??_ECollection@Cm@physx@@UEAAPEAXI@Z 00000001800047f0 f i CmCollection.obj
 0001:000038a0       ??_EPxCollection@physx@@MEAAPEAXI@Z 00000001800048a0 f i CmCollection.obj
 0001:000038a0       ??_GPxCollection@physx@@MEAAPEAXI@Z 00000001800048a0 f i CmCollection.obj
 0001:000038d0       ?add@Collection@Cm@physx@@UEAAXAEAVPxBase@3@_K@Z 00000001800048d0 f   CmCollection.obj
 0001:000039c0       ?add@Collection@Cm@physx@@UEAAXAEAVPxCollection@3@@Z 00000001800049c0 f   CmCollection.obj
 0001:00003be0       ?addId@Collection@Cm@physx@@UEAAXAEAVPxBase@3@_K@Z 0000000180004be0 f   CmCollection.obj
 0001:00003d10       ?contains@Collection@Cm@physx@@UEBA_NAEAVPxBase@3@@Z 0000000180004d10 f   CmCollection.obj
 0001:00003dc0       ?create@?$PxHashBase@V?$PxPair@$$CB_KPEAVPxBase@physx@@@physx@@_KU?$PxHash@_K@2@UGetKey@?$PxHashMapBase@_KPEAVPxBase@physx@@U?$PxHash@_K@2@VPxAllocator@2@@2@VPxAllocator@2@$00@physx@@QEAAPEAV?$PxPair@$$CB_KPEAVPxBase@physx@@@2@AEB_KAEA_N@Z 0000000180004dc0 f i CmCollection.obj
 0001:00003dc0       ?create@?$PxHashBase@V?$PxPair@QEAVPxBase@physx@@_K@physx@@PEAVPxBase@2@U?$PxHash@PEAVPxBase@physx@@@2@UGetKey@?$PxHashMapBase@PEAVPxBase@physx@@_KU?$PxHash@PEAVPxBase@physx@@@2@VPxAllocator@2@@2@VPxAllocator@2@$00@physx@@QEAAPEAV?$PxPair@QEAVPxBase@physx@@_K@2@AEBQEAVPxBase@2@AEA_N@Z 0000000180004dc0 f i CmCollection.obj
 0001:00003f60       ?erase@?$PxHashBase@V?$PxPair@$$CB_KPEAVPxBase@physx@@@physx@@_KU?$PxHash@_K@2@UGetKey@?$PxHashMapBase@_KPEAVPxBase@physx@@U?$PxHash@_K@2@VPxAllocator@2@@2@VPxAllocator@2@$00@physx@@QEAA_NAEB_K@Z 0000000180004f60 f i CmCollection.obj
 0001:00003f60       ?erase@?$PxHashBase@V?$PxPair@QEAVPxBase@physx@@_K@physx@@PEAVPxBase@2@U?$PxHash@PEAVPxBase@physx@@@2@UGetKey@?$PxHashMapBase@PEAVPxBase@physx@@_KU?$PxHash@PEAVPxBase@physx@@@2@VPxAllocator@2@@2@VPxAllocator@2@$00@physx@@QEAA_NAEBQEAVPxBase@2@@Z 0000000180004f60 f i CmCollection.obj
 0001:00004100       ?find@?$PxHashMapBase@PEAVPxBase@physx@@_KU?$PxHash@PEAVPxBase@physx@@@2@VPxAllocator@2@@physx@@QEBAPEBV?$PxPair@QEAVPxBase@physx@@_K@2@AEBQEAVPxBase@2@@Z 0000000180005100 f i CmCollection.obj
 0001:00004100       ?find@?$PxHashMapBase@_KPEAVPxBase@physx@@U?$PxHash@_K@2@VPxAllocator@2@@physx@@QEBAPEBV?$PxPair@$$CB_KPEAVPxBase@physx@@@2@AEB_K@Z 0000000180005100 f i CmCollection.obj
 0001:000041a0       ?find@Collection@Cm@physx@@UEBAPEAVPxBase@3@_K@Z 00000001800051a0 f   CmCollection.obj
 0001:00004200       ?getId@Collection@Cm@physx@@UEBA_KAEBVPxBase@3@@Z 0000000180005200 f   CmCollection.obj
 0001:000042b0       ?getIds@Collection@Cm@physx@@UEBAIPEA_KII@Z 00000001800052b0 f   CmCollection.obj
 0001:000043c0       ?getNbIds@Collection@Cm@physx@@UEBAIXZ 00000001800053c0 f   CmCollection.obj
 0001:000043d0       ?getNbObjects@Collection@Cm@physx@@UEBAIXZ 00000001800053d0 f   CmCollection.obj
 0001:000043e0       ?getObject@Collection@Cm@physx@@UEBAAEAVPxBase@3@I@Z 00000001800053e0 f   CmCollection.obj
 0001:000043f0       ?getObjects@Collection@Cm@physx@@UEBAIPEAPEAVPxBase@3@II@Z 00000001800053f0 f   CmCollection.obj
 0001:00004490       ?insert@?$PxHashMapBase@_KPEAVPxBase@physx@@U?$PxHash@_K@2@VPxAllocator@2@@physx@@QEAA_N_KQEAVPxBase@2@@Z 0000000180005490 f i CmCollection.obj
 0001:000044e0       ?release@Collection@Cm@physx@@UEAAXXZ 00000001800054e0 f i CmCollection.obj
 0001:00004500       ?remove@Collection@Cm@physx@@UEAAXAEAVPxBase@3@@Z 0000000180005500 f   CmCollection.obj
 0001:00004640       ?remove@Collection@Cm@physx@@UEAAXAEAVPxCollection@3@@Z 0000000180005640 f   CmCollection.obj
 0001:000047a0       ?removeId@Collection@Cm@physx@@UEAAX_K@Z 00000001800057a0 f   CmCollection.obj
 0001:00004890       ?reserveInternal@?$PxHashBase@V?$PxPair@$$CB_KPEAVPxBase@physx@@@physx@@_KU?$PxHash@_K@2@UGetKey@?$PxHashMapBase@_KPEAVPxBase@physx@@U?$PxHash@_K@2@VPxAllocator@2@@2@VPxAllocator@2@$00@physx@@AEAAXI@Z 0000000180005890 f i CmCollection.obj
 0001:00004890       ?reserveInternal@?$PxHashBase@V?$PxPair@QEAVPxBase@physx@@_K@physx@@PEAVPxBase@2@U?$PxHash@PEAVPxBase@physx@@@2@UGetKey@?$PxHashMapBase@PEAVPxBase@physx@@_KU?$PxHash@PEAVPxBase@physx@@@2@VPxAllocator@2@@2@VPxAllocator@2@$00@physx@@AEAAXI@Z 0000000180005890 f i CmCollection.obj
 0001:00004a80       PxCreateCollection         0000000180005a80 f   CmCollection.obj
 0001:00004b80       ??0RadixSort@Cm@physx@@QEAA@XZ 0000000180005b80 f   CmRadixSort.obj
 0001:00004bb0       ??0RadixSortBuffered@Cm@physx@@QEAA@XZ 0000000180005bb0 f   CmRadixSort.obj
 0001:00004be0       ??1RadixSort@Cm@physx@@UEAA@XZ 0000000180005be0 f   CmRadixSort.obj
 0001:00004bf0       ??1RadixSortBuffered@Cm@physx@@UEAA@XZ 0000000180005bf0 f   CmRadixSort.obj
 0001:00004c20       ??_ERadixSort@Cm@physx@@UEAAPEAXI@Z 0000000180005c20 f i CmRadixSort.obj
 0001:00004cb0       ??_ERadixSortBuffered@Cm@physx@@UEAAPEAXI@Z 0000000180005cb0 f i CmRadixSort.obj
 0001:00004df0       ?CheckResize@RadixSortBuffered@Cm@physx@@AEAAXI@Z 0000000180005df0 f i CmRadixSort.obj
 0001:00004e30       ?GetNbHits@RadixSort@Cm@physx@@QEBAIXZ 0000000180005e30 f i CmRadixSort.obj
 0001:00004e40       ?GetNbTotalCalls@RadixSort@Cm@physx@@QEBAIXZ 0000000180005e40 f i CmRadixSort.obj
 0001:00004e50       ?getSimulationMesh@SoftBodyMesh@Gu@physx@@UEAAPEAVPxTetrahedronMesh@3@XZ 0000000180005e50 f i GuTetrahedronMesh.obj
 0001:00004e50       ?getHeightField@HeightFieldUtil@Gu@physx@@QEBAAEBVHeightField@23@XZ 0000000180005e50 f i GuCCTSweepTests.obj
 0001:00004e50       ?GetRanks@RadixSort@Cm@physx@@QEBAPEBIXZ 0000000180005e50 f i CmRadixSort.obj
 0001:00004e50       ?getSimulationMesh@SoftBodyMesh@Gu@physx@@UEBAPEBVPxTetrahedronMesh@3@XZ 0000000180005e50 f i GuTetrahedronMesh.obj
 0001:00004e60       ?getCollisionMesh@SoftBodyMesh@Gu@physx@@UEBAPEBVPxTetrahedronMesh@3@XZ 0000000180005e60 f i GuTetrahedronMesh.obj
 0001:00004e60       ?getHeightFieldGeometry@HeightFieldUtil@Gu@physx@@QEBAAEBVPxHeightFieldGeometry@3@XZ 0000000180005e60 f i GuCCTSweepTests.obj
 0001:00004e60       ?getVertices@TetrahedronMesh@Gu@physx@@UEBAPEBV?$PxVec3T@M@3@XZ 0000000180005e60 f i GuTetrahedronMesh.obj
 0001:00004e60       ?getObjects@PruningPool@Gu@physx@@QEBAPEAUPrunerPayload@23@XZ 0000000180005e60 f i GuIncrementalAABBPrunerCore.obj
 0001:00004e60       ?getVertices@TriangleMesh@Gu@physx@@UEBAPEBV?$PxVec3T@M@3@XZ 0000000180005e60 f i GuTriangleMesh.obj
 0001:00004e60       ?getPos@AABBTreeBuildNode@Gu@physx@@QEBAPEBV123@XZ 0000000180005e60 f i GuMeshFactory.obj
 0001:00004e60       ?getCollisionMesh@SoftBodyMesh@Gu@physx@@UEAAPEAVPxTetrahedronMesh@3@XZ 0000000180005e60 f i GuTetrahedronMesh.obj
 0001:00004e60       ?GetRecyclable@RadixSort@Cm@physx@@QEBAPEAIXZ 0000000180005e60 f i CmRadixSort.obj
 0001:00004e60       ?GetValencies@BigConvexData@physx@@QEBAPEBUValency@Gu@2@XZ 0000000180005e60 f i GuMetaData.obj
 0001:00004e70       ?Resize@RadixSortBuffered@Cm@physx@@AEAA_NI@Z 0000000180005e70 f   CmRadixSort.obj
 0001:00004f60       ?SetBuffers@RadixSort@Cm@physx@@QEAA_NPEAI00PEAPEAI@Z 0000000180005f60 f   CmRadixSort.obj
 0001:00004fa0       ?Sort@RadixSort@Cm@physx@@QEAAAEAV123@PEBIIW4RadixHint@23@@Z 0000000180005fa0 f   CmRadixSort.obj
 0001:000055f0       ?Sort@RadixSort@Cm@physx@@QEAAAEAV123@PEBMI@Z 00000001800065f0 f   CmRadixSort.obj
 0001:00005d50       ?Sort@RadixSortBuffered@Cm@physx@@QEAAAEAV123@PEBIIW4RadixHint@23@@Z 0000000180006d50 f   CmRadixSort.obj
 0001:00005df0       ?Sort@RadixSortBuffered@Cm@physx@@QEAAAEAV123@PEBMI@Z 0000000180006df0 f   CmRadixSort.obj
 0001:00005e80       ?invalidateRanks@RadixSort@Cm@physx@@QEAAXXZ 0000000180006e80 f i CmRadixSort.obj
 0001:00005e90       ?reset@RadixSortBuffered@Cm@physx@@QEAAXXZ 0000000180006e90 f   CmRadixSort.obj
 0001:00005f10       ?ReadHeader@Cm@physx@@YA_NEEEEAEAIAEA_NAEAVPxInputStream@2@@Z 0000000180006f10 f   CmSerialize.obj
 0001:00006070       ?ReadIndices@Cm@physx@@YAXGIPEAGAEAVPxInputStream@2@_N@Z 0000000180007070 f   CmSerialize.obj
 0001:000061c0       ?StoreIndices@Cm@physx@@YAXGIPEBGAEAVPxOutputStream@2@_N@Z 00000001800071c0 f   CmSerialize.obj
 0001:00006280       ?WriteHeader@Cm@physx@@YA_NEEEEI_NAEAVPxOutputStream@2@@Z 0000000180007280 f   CmSerialize.obj
 0001:000063b0       ?computeMaxIndex@physx@@YAGPEBGI@Z 00000001800073b0 f   CmSerialize.obj
 0001:000063e0       ?computeMaxIndex@physx@@YAIPEBII@Z 00000001800073e0 f   CmSerialize.obj
 0001:00006410       ?writeByteBuffer@physx@@YAXPEBEIAEAVPxOutputStream@1@@Z 0000000180007410 f   CmSerialize.obj
 0001:00006410       ?readByteBuffer@physx@@YAXPEAEIAEAVPxInputStream@1@@Z 0000000180007410 f   CmSerialize.obj
 0001:00006430       ?readChunk@physx@@YAXAEAC000AEAVPxInputStream@1@@Z 0000000180007430 f   CmSerialize.obj
 0001:000064b0       ?readDword@physx@@YAI_NAEAVPxInputStream@1@@Z 00000001800074b0 f   CmSerialize.obj
 0001:00006510       ?readFloat@physx@@YAM_NAEAVPxInputStream@1@@Z 0000000180007510 f   CmSerialize.obj
 0001:00006570       ?readFloatBuffer@physx@@YA_NPEAMI_NAEAVPxInputStream@1@@Z 0000000180007570 f   CmSerialize.obj
 0001:000065f0       ?readHeader@physx@@YA_NCCCCAEAIAEA_NAEAVPxInputStream@1@@Z 00000001800075f0 f   CmSerialize.obj
 0001:00006740       ?readIndices@physx@@YAXIIPEAIAEAVPxInputStream@1@_N@Z 0000000180007740 f   CmSerialize.obj
 0001:00006830       ?readWord@physx@@YAG_NAEAVPxInputStream@1@@Z 0000000180007830 f   CmSerialize.obj
 0001:00006870       ?readWordBuffer@physx@@YAXPEAGI_NAEAVPxInputStream@1@@Z 0000000180007870 f   CmSerialize.obj
 0001:000068e0       ?storeIndices@physx@@YAXIIPEBIAEAVPxOutputStream@1@_N@Z 00000001800078e0 f   CmSerialize.obj
 0001:00006a40       ?writeDword@physx@@YAXI_NAEAVPxOutputStream@1@@Z 0000000180007a40 f   CmSerialize.obj
 0001:00006a90       ?writeFloat@physx@@YAXM_NAEAVPxOutputStream@1@@Z 0000000180007a90 f   CmSerialize.obj
 0001:00006ae0       ?writeFloatBuffer@physx@@YAXPEBMI_NAEAVPxOutputStream@1@@Z 0000000180007ae0 f   CmSerialize.obj
 0001:00006b80       ?writeHeader@physx@@YA_NCCCCI_NAEAVPxOutputStream@1@@Z 0000000180007b80 f   CmSerialize.obj
 0001:00006cb0       ?writeWord@physx@@YAXG_NAEAVPxOutputStream@1@@Z 0000000180007cb0 f   CmSerialize.obj
 0001:00006cf0       ?writeWordBuffer@physx@@YAXPEBGI_NAEAVPxOutputStream@1@@Z 0000000180007cf0 f   CmSerialize.obj
 0001:00006d70       ??0PxRenderOutput@physx@@QEAA@AEAVPxRenderBuffer@1@@Z 0000000180007d70 f i CmVisualization.obj
 0001:00006dc0       ??0PxRenderOutput@physx@@QEAA@AEBV01@@Z 0000000180007dc0 f i CmVisualization.obj
 0001:00006e60       ??6PxRenderOutput@physx@@QEAAAEAV01@AEBV?$PxMat44T@M@1@@Z 0000000180007e60 f i CmVisualization.obj
 0001:00006ed0       ??6PxRenderOutput@physx@@QEAAAEAV01@AEBV?$PxTransformT@M@1@@Z 0000000180007ed0 f i CmVisualization.obj
 0001:00007050       ??6PxRenderOutput@physx@@QEAAAEAV01@AEBV?$PxVec3T@M@1@@Z 0000000180008050 f i CmVisualization.obj
 0001:00007350       ??6PxRenderOutput@physx@@QEAAAEAV01@I@Z 0000000180008350 f i CmVisualization.obj
 0001:00007360       ??6PxRenderOutput@physx@@QEAAAEAV01@W4Primitive@01@@Z 0000000180008360 f i CmVisualization.obj
 0001:00007370       ?outputCapsule@PxRenderOutput@physx@@QEAAAEAV12@MMAEBV?$PxMat44T@M@2@@Z 0000000180008370 f i CmVisualization.obj
 0001:00008080       ?outputSegment@PxRenderOutput@physx@@QEAAXAEBV?$PxVec3T@M@2@0@Z 0000000180009080 f i CmVisualization.obj
 0001:000080f0       ?renderOutputDebugArrow@Cm@physx@@YAXAEAVPxRenderOutput@2@AEBUPxDebugArrow@2@@Z 00000001800090f0 f   CmVisualization.obj
 0001:00008490       ?renderOutputDebugBasis@Cm@physx@@YAXAEAVPxRenderOutput@2@AEBUPxDebugBasis@2@@Z 0000000180009490 f   CmVisualization.obj
 0001:00008980       ?renderOutputDebugBox@Cm@physx@@YAXAEAVPxRenderOutput@2@AEBVPxBounds3@2@@Z 0000000180009980 f   CmVisualization.obj
 0001:00008bf0       ?renderOutputDebugCircle@Cm@physx@@YAXAEAVPxRenderOutput@2@IM@Z 0000000180009bf0 f   CmVisualization.obj
 0001:00008cd0       ?reservePoints@PxRenderOutput@physx@@QEAAPEAUPxDebugPoint@2@I@Z 0000000180009cd0 f i CmVisualization.obj
 0001:00008ce0       ?reserveSegments@PxRenderOutput@physx@@QEAAPEAUPxDebugLine@2@I@Z 0000000180009ce0 f i CmVisualization.obj
 0001:00008cf0       ?visualizeAngularLimit@Cm@physx@@YAXAEAVPxRenderOutput@2@MAEBV?$PxTransformT@M@2@MM_N@Z 0000000180009cf0 f   CmVisualization.obj
 0001:00008e90       ?visualizeDoubleCone@Cm@physx@@YAXAEAVPxRenderOutput@2@MAEBV?$PxTransformT@M@2@M_N@Z 0000000180009e90 f   CmVisualization.obj
 0001:000090a0       ?visualizeJointFrames@Cm@physx@@YAXAEAVPxRenderOutput@2@MAEBV?$PxTransformT@M@2@1@Z 000000018000a0a0 f   CmVisualization.obj
 0001:00009ab0       ?visualizeLimitCone@Cm@physx@@YAXAEAVPxRenderOutput@2@MAEBV?$PxTransformT@M@2@MM_N@Z 000000018000aab0 f   CmVisualization.obj
 0001:00009d00       ?visualizeLinearLimit@Cm@physx@@YAXAEAVPxRenderOutput@2@MAEBV?$PxTransformT@M@2@1M_N@Z 000000018000ad00 f   CmVisualization.obj
 0001:0000a300       ??0CmModuleUpdateLoader@Cm@physx@@QEAA@PEBD@Z 000000018000b300 f   CmWindowsModuleUpdateLoader.obj
 0001:0000a340       ??1CmModuleUpdateLoader@Cm@physx@@QEAA@XZ 000000018000b340 f   CmWindowsModuleUpdateLoader.obj
 0001:0000a370       ?LoadModule@CmModuleUpdateLoader@Cm@physx@@QEAAPEAUHINSTANCE__@@PEBD0@Z 000000018000b370 f   CmWindowsModuleUpdateLoader.obj
 0001:0000a3e0       __local_stdio_printf_options 000000018000b3e0 f i CmWindowsModuleUpdateLoader.obj
 0001:0000a3f0       printf                     000000018000b3f0 f i CmWindowsModuleUpdateLoader.obj
 0001:0000a450       ?commonDelayHook@@YAP6A_JXZIPEAUDelayLoadInfo@@@Z 000000018000b450 f   CmWindowsDelayLoadHook.obj
 0001:0000a530       PxSetPhysXCommonDelayLoadHook 000000018000b530 f   CmWindowsDelayLoadHook.obj
 0001:0000a540       ??0?$PxQuatT@M@physx@@QEAA@AEBV?$PxMat33T@M@1@@Z 000000018000b540 f i GuBox.obj
 0001:0000a720       ??0Box@Gu@physx@@QEAA@AEBV012@@Z 000000018000b720 f i GuBox.obj
 0001:0000a720       ??4Box@Gu@physx@@QEAAAEBV012@AEBV012@@Z 000000018000b720 f i GuBox.obj
 0001:0000a780       ??0Box@Gu@physx@@QEAA@AEBV?$PxVec3T@M@2@0AEBV?$PxMat33T@M@2@@Z 000000018000b780 f i GuBox.obj
 0001:0000a7f0       ?getPaddedBounds@HeightFieldData@Gu@physx@@QEBAAEBVCenterExtentsPadded@23@XZ 000000018000b7f0 f i GuCCTSweepTests.obj
 0001:0000a7f0       ??0BigConvexData@physx@@QEAA@W4PxEMPTY@1@@Z 000000018000b7f0 f i GuMetaData.obj
 0001:0000a7f0       ??$forward@_K@std@@YA$$QEA_KAEA_K@Z 000000018000b7f0 f i libvcruntime:undname.obj
 0001:0000a7f0       ?getAABB@AABBTreeBuildNode@Gu@physx@@QEBAAEBVPxBounds3@3@XZ 000000018000b7f0 f i GuMeshFactory.obj
 0001:0000a7f0       ??0HeightFieldData@Gu@physx@@QEAA@W4PxEMPTY@2@@Z 000000018000b7f0 f i GuCCTSweepTests.obj
 0001:0000a7f0       ??0Box@Gu@physx@@QEAA@XZ   000000018000b7f0 f i GuBox.obj
 0001:0000a7f0       ??0AABBTreeBuildNode@Gu@physx@@QEAA@XZ 000000018000b7f0 f i GuMeshFactory.obj
 0001:0000a800       ?computeAABBExtent@Box@Gu@physx@@QEBA?AV?$PxVec3T@M@3@XZ 000000018000b800 f i GuBox.obj
 0001:0000a8c0       ?computeBoxPoints@Box@Gu@physx@@QEBAXPEIAV?$PxVec3T@M@3@@Z 000000018000b8c0 f i GuBox.obj
 0001:0000a900       ?computeOBBPoints@Gu@physx@@YAXPEIAV?$PxVec3T@M@2@AEBV32@1111@Z 000000018000b900 f   GuBox.obj
 0001:0000ab80       ?create@Box@Gu@physx@@QEAAXAEBVCapsule@23@@Z 000000018000bb80 f   GuBox.obj
 0001:0000adb0       ?getBoxEdges@Gu@physx@@YAPEBEXZ 000000018000bdb0 f   GuBox.obj
 0001:0000adc0       ?getTransform@Box@Gu@physx@@QEBA?AV?$PxTransformT@M@3@XZ 000000018000bdc0 f i GuBox.obj
 0001:0000ae20       ?isValid@Box@Gu@physx@@QEBA_NXZ 000000018000be20 f i GuBox.obj
 0001:0000ae40       ?rotate@Box@Gu@physx@@QEBA?AV?$PxVec3T@M@3@AEBV43@@Z 000000018000be40 f i GuBox.obj
 0001:0000aed0       ?rotateInv@Box@Gu@physx@@QEBA?AV?$PxVec3T@M@3@AEBV43@@Z 000000018000bed0 f i GuBox.obj
 0001:0000af60       ?setAxes@Box@Gu@physx@@QEAAXAEBV?$PxVec3T@M@3@00@Z 000000018000bf60 f i GuBox.obj
 0001:0000afa0       ?setEmpty@Box@Gu@physx@@QEAAXXZ 000000018000bfa0 f i GuBox.obj
 0001:0000afe0       ?transform@Box@Gu@physx@@QEBA?AV?$PxVec3T@M@3@AEBV43@@Z 000000018000bfe0 f i GuBox.obj
 0001:0000b080       ?PxComputeBasisVectors@physx@@YAXAEBV?$PxVec3T@M@1@0AEAV21@11@Z 000000018000c080 f i GuCapsule.obj
 0001:0000b220       ?computeBoxAroundCapsule@Gu@physx@@YAXAEBVCapsule@12@AEAVBox@12@@Z 000000018000c220 f   GuCapsule.obj
 0001:0000b370       ??0HeightFieldData@Gu@physx@@QEAA@$$QEAU012@@Z 000000018000c370 f i GuCCTSweepTests.obj
 0001:0000b370       ??4HeightFieldData@Gu@physx@@QEAAAEAU012@AEBU012@@Z 000000018000c370 f i GuCCTSweepTests.obj
 0001:0000b370       ??0HeightFieldData@Gu@physx@@QEAA@AEBU012@@Z 000000018000c370 f i GuCCTSweepTests.obj
 0001:0000b370       ??4HeightFieldData@Gu@physx@@QEAAAEAU012@$$QEAU012@@Z 000000018000c370 f i GuCCTSweepTests.obj
 0001:0000b3d0       ??0HeightFieldData@Gu@physx@@QEAA@XZ 000000018000c3d0 f i GuCCTSweepTests.obj
 0001:0000b3e0       ??0HeightFieldTraceUtil@Gu@physx@@QEAA@AEBVPxHeightFieldGeometry@2@@Z 000000018000c3e0 f i GuCCTSweepTests.obj
 0001:0000b3e0       ??0HeightFieldUtil@Gu@physx@@QEAA@AEBVPxHeightFieldGeometry@2@@Z 000000018000c3e0 f i GuCCTSweepTests.obj
 0001:0000b420       ??4AABBTreeBuildParams@Gu@physx@@QEAAAEAV012@AEBV012@@Z 000000018000c420 f i GuMeshFactory.obj
 0001:0000b420       ??4HeightFieldTraceUtil@Gu@physx@@QEAAAEAV012@AEBV012@@Z 000000018000c420 f i GuCCTSweepTests.obj
 0001:0000b420       ??4HeightFieldTraceUtil@Gu@physx@@QEAAAEAV012@$$QEAV012@@Z 000000018000c420 f i GuCCTSweepTests.obj
 0001:0000b420       ??4HeightFieldUtil@Gu@physx@@QEAAAEAV012@AEBV012@@Z 000000018000c420 f i GuCCTSweepTests.obj
 0001:0000b440       ??4HeightFieldUtil@Gu@physx@@QEAAAEAV012@$$QEAV012@@Z 000000018000c440 f i GuCCTSweepTests.obj
 0001:0000b4a0       ??_GOverlapCallback@PxBVH@physx@@UEAAPEAXI@Z 000000018000c4a0 f i GuQuerySystem.obj
 0001:0000b4a0       ??_EOverlapReport@Gu@physx@@UEAAPEAXI@Z 000000018000c4a0 f i GuCCTSweepTests.obj
 0001:0000b4a0       ??_EOverlapCallback@PxBVH@physx@@UEAAPEAXI@Z 000000018000c4a0 f i GuQuerySystem.obj
 0001:0000b4a0       ??_GOverlapReport@Gu@physx@@UEAAPEAXI@Z 000000018000c4a0 f i GuCCTSweepTests.obj
 0001:0000b4a0       ??_EEntityReport@Gu@physx@@UEAAPEAXI@Z 000000018000c4a0 f i GuSweepsHF.obj
 0001:0000b4a0       ??_GRaycastCallback@PxBVH@physx@@UEAAPEAXI@Z 000000018000c4a0 f i GuQuerySystem.obj
 0001:0000b4a0       ??_ERaycastCallback@PxBVH@physx@@UEAAPEAXI@Z 000000018000c4a0 f i GuQuerySystem.obj
 0001:0000b4a0       ??_GEntityReport@Gu@physx@@UEAAPEAXI@Z 000000018000c4a0 f i GuSweepsHF.obj
 0001:0000b4a0       ??_ERemapCallback@RTreeCooker@physx@@UEAAPEAXI@Z 000000018000c4a0 f i GuCookingTriangleMesh.obj
 0001:0000b4a0       ??_GRemapCallback@RTreeCooker@physx@@UEAAPEAXI@Z 000000018000c4a0 f i GuCookingTriangleMesh.obj
 0001:0000b4d0       ??_H@YAXPEAX_K1P6APEAX0@Z@Z 000000018000c4d0 f i GuCCTSweepTests.obj
 0001:0000b520       ?ceilUp@HeightFieldTraceUtil@Gu@physx@@SAMM@Z 000000018000c520 f i GuCCTSweepTests.obj
 0001:0000b560       ?floorDown@HeightFieldTraceUtil@Gu@physx@@SAMM@Z 000000018000c560 f i GuCCTSweepTests.obj
 0001:0000b5a0       ?getHeightAtShapePoint@HeightFieldUtil@Gu@physx@@QEBAMMM@Z 000000018000c5a0 f i GuCCTSweepTests.obj
 0001:0000b600       ?getHeightInternal2@HeightField@Gu@physx@@QEBAMIMM@Z 000000018000c600 f i GuCCTSweepTests.obj
 0001:0000b770       ?getNormalAtShapePoint@HeightFieldUtil@Gu@physx@@QEBA?AV?$PxVec3T@M@3@MM@Z 000000018000c770 f i GuCCTSweepTests.obj
 0001:0000b830       ?getNormal_2@HeightField@Gu@physx@@QEBA?AV?$PxVec3T@M@3@IMMMMM@Z 000000018000c830 f i GuCCTSweepTests.obj
 0001:0000b950       ?getOneOverColumnScale@HeightFieldUtil@Gu@physx@@QEBAMXZ 000000018000c950 f i GuCCTSweepTests.obj
 0001:0000b960       ?getOneOverHeightScale@HeightFieldUtil@Gu@physx@@QEBAMXZ 000000018000c960 f i GuCCTSweepTests.obj
 0001:0000b970       ?getOneOverRowScale@HeightFieldUtil@Gu@physx@@QEBAMXZ 000000018000c970 f i GuCCTSweepTests.obj
 0001:0000b980       ?shape2hfp@HeightFieldUtil@Gu@physx@@QEBA?AV?$PxVec3T@M@3@AEBV43@@Z 000000018000c980 f i GuCCTSweepTests.obj
 0001:0000b980       ?hf2shapen@HeightFieldUtil@Gu@physx@@QEBA?AV?$PxVec3T@M@3@AEBV43@@Z 000000018000c980 f i GuCCTSweepTests.obj
 0001:0000b9c0       ?hf2shapep@HeightFieldUtil@Gu@physx@@QEBA?AV?$PxVec3T@M@3@AEBV43@@Z 000000018000c9c0 f i GuCCTSweepTests.obj
 0001:0000ba00       ?hf2worldn@HeightFieldUtil@Gu@physx@@QEBA?AV?$PxVec3T@M@3@AEBV?$PxTransformT@M@3@AEBV43@@Z 000000018000ca00 f i GuCCTSweepTests.obj
 0001:0000bb70       ?hf2worldp@HeightFieldUtil@Gu@physx@@QEBA?AV?$PxVec3T@M@3@AEBV?$PxTransformT@M@3@AEBV43@@Z 000000018000cb70 f i GuCCTSweepTests.obj
 0001:0000bcf0       ?overlapAABBTriangles0to1@HeightFieldUtil@Gu@physx@@QEBAXAEBV?$PxTransformT@M@3@AEBVPxBounds3@3@AEAVOverlapReport@23@I@Z 000000018000ccf0 f i GuCCTSweepTests.obj
 0001:0000c070       ?overlapAABBTriangles@HeightFieldUtil@Gu@physx@@QEBAXAEBV?$PxTransformT@M@3@0AEBVPxBounds3@3@AEAVOverlapReport@23@I@Z 000000018000d070 f i GuCCTSweepTests.obj
 0001:0000c680       ?overlapAABBTriangles@HeightFieldUtil@Gu@physx@@QEBAXAEBV?$PxTransformT@M@3@AEBVPxBounds3@3@AEAVOverlapReport@23@I@Z 000000018000d680 f i GuCCTSweepTests.obj
 0001:0000cd30       ?sweepBoxTriangles_Precise@Gu@physx@@YA_NIPEBVPxTriangle@2@_NAEBVPxBoxGeometry@2@AEBV?$PxTransformT@M@2@AEBV?$PxVec3T@M@2@MAEAUPxGeomSweepHit@2@PEBIMV?$PxFlags@W4Enum@PxHitFlag@physx@@G@2@@Z 000000018000dd30 f   GuCCTSweepTests.obj
 0001:0000dab0       ?sweepBox_BoxGeom_Precise@@YA_NAEBVPxGeometry@physx@@AEBV?$PxTransformT@M@2@AEBVPxBoxGeometry@2@1AEBVBox@Gu@2@AEBV?$PxVec3T@M@2@MAEAUPxGeomSweepHit@2@V?$PxFlags@W4Enum@PxHitFlag@physx@@G@2@MPEAUPxQueryThreadContext@2@@Z 000000018000eab0 f   GuCCTSweepTests.obj
 0001:0000dc70       ?sweepBox_CapsuleGeom_Precise@@YA_NAEBVPxGeometry@physx@@AEBV?$PxTransformT@M@2@AEBVPxBoxGeometry@2@1AEBVBox@Gu@2@AEBV?$PxVec3T@M@2@MAEAUPxGeomSweepHit@2@V?$PxFlags@W4Enum@PxHitFlag@physx@@G@2@MPEAUPxQueryThreadContext@2@@Z 000000018000ec70 f   GuCCTSweepTests.obj
 0001:0000e040       ?sweepBox_HeightFieldGeom_Precise@@YA_NAEBVPxGeometry@physx@@AEBV?$PxTransformT@M@2@AEBVPxBoxGeometry@2@1AEBVBox@Gu@2@AEBV?$PxVec3T@M@2@MAEAUPxGeomSweepHit@2@V?$PxFlags@W4Enum@PxHitFlag@physx@@G@2@MPEAUPxQueryThreadContext@2@@Z 000000018000f040 f   GuCCTSweepTests.obj
 0001:0000e840       ?sweepBox_SphereGeom_Precise@@YA_NAEBVPxGeometry@physx@@AEBV?$PxTransformT@M@2@AEBVPxBoxGeometry@2@1AEBVBox@Gu@2@AEBV?$PxVec3T@M@2@MAEAUPxGeomSweepHit@2@V?$PxFlags@W4Enum@PxHitFlag@physx@@G@2@MPEAUPxQueryThreadContext@2@@Z 000000018000f840 f   GuCCTSweepTests.obj
 0001:0000eb20       ?sweepCapsule_BoxGeom_Precise@@YA_NAEBVPxGeometry@physx@@AEBV?$PxTransformT@M@2@AEBVPxCapsuleGeometry@2@1AEBVCapsule@Gu@2@AEBV?$PxVec3T@M@2@MAEAUPxGeomSweepHit@2@V?$PxFlags@W4Enum@PxHitFlag@physx@@G@2@MPEAUPxQueryThreadContext@2@@Z 000000018000fb20 f   GuCCTSweepTests.obj
 0001:0000f180       ??0?$CacheMap@UCachedEdge@Gu@physx@@$0IA@@Gu@physx@@QEAA@XZ 0000000180010180 f i GuGeometryQuery.obj
 0001:0000f240       ??0?$CacheMap@UCachedVertex@Gu@physx@@$0IA@@Gu@physx@@QEAA@XZ 0000000180010240 f i GuGeometryQuery.obj
 0001:0000f300       ??0MultiplePersistentContactManifold@Gu@physx@@QEAA@XZ 0000000180010300 f i GuGeometryQuery.obj
 0001:0000f350       ??0PCMMeshContactGeneration@Gu@physx@@QEAA@AEBT__m128@@0AEBVPxTransformV@aos@2@1AEAVMultiplePersistentContactManifold@12@AEAVPxContactBuffer@2@PEAV?$PxInlineArray@I$0DMA@V?$PxReflectionAllocator@I@physx@@@2@PEAVPxRenderOutput@2@@Z 0000000180010350 f i GuGeometryQuery.obj
 0001:0000fc70       ??0PolygonalBox@Gu@physx@@QEAA@AEBV012@@Z 0000000180010c70 f i GuGeometryQuery.obj
 0001:0000fef0       ??4MultiplePersistentContactManifold@Gu@physx@@QEAAAEAV012@$$QEAV012@@Z 0000000180010ef0 f i GuGeometryQuery.obj
 0001:00010200       ??4MultiplePersistentContactManifold@Gu@physx@@QEAAAEAV012@AEBV012@@Z 0000000180011200 f i GuGeometryQuery.obj
 0001:00010220       ??_E?$SupportLocalImpl@VConvexHullV@Gu@physx@@@Gu@physx@@UEAAPEAXI@Z 0000000180011220 f i GuGeometryQuery.obj
 0001:00010220       ??_E?$SupportLocalImpl@VBoxV@Gu@physx@@@Gu@physx@@UEAAPEAXI@Z 0000000180011220 f i GuGeometryQuery.obj
 0001:00010220       ??_G?$SupportLocalImpl@VBoxV@Gu@physx@@@Gu@physx@@UEAAPEAXI@Z 0000000180011220 f i GuGeometryQuery.obj
 0001:00010220       ??_G?$SupportLocalImpl@VConvexHullNoScaleV@Gu@physx@@@Gu@physx@@UEAAPEAXI@Z 0000000180011220 f i GuMTD.obj
 0001:00010220       ??_G?$SupportLocalImpl@VTriangleV@Gu@physx@@@Gu@physx@@UEAAPEAXI@Z 0000000180011220 f i GuPCMContactConvexCommon.obj
 0001:00010220       ??_G?$SupportLocalImpl@VConvexHullV@Gu@physx@@@Gu@physx@@UEAAPEAXI@Z 0000000180011220 f i GuGeometryQuery.obj
 0001:00010220       ??_E?$SupportLocalImpl@VTriangleV@Gu@physx@@@Gu@physx@@UEAAPEAXI@Z 0000000180011220 f i GuPCMContactConvexCommon.obj
 0001:00010220       ??_E?$SupportLocalImpl@VConvexHullNoScaleV@Gu@physx@@@Gu@physx@@UEAAPEAXI@Z 0000000180011220 f i GuMTD.obj
 0001:00010250       ??_GSupportLocal@Gu@physx@@UEAAPEAXI@Z 0000000180011250 f i GuGeometryQuery.obj
 0001:00010250       ??_ESupportLocal@Gu@physx@@UEAAPEAXI@Z 0000000180011250 f i GuGeometryQuery.obj
 0001:00010280       ?clearManifold@MultiplePersistentContactManifold@Gu@physx@@QEAAXXZ 0000000180011280 f i GuGeometryQuery.obj
 0001:000102e0       ?computeGeomBounds@PxGeometryQuery@physx@@SAXAEAVPxBounds3@2@AEBVPxGeometry@2@AEBV?$PxTransformT@M@2@MMV?$PxFlags@W4Enum@PxGeometryQueryFlag@physx@@I@2@@Z 00000001800112e0 f   GuGeometryQuery.obj
 0001:000103f0       ?computePenetration@PxGeometryQuery@physx@@SA_NAEAV?$PxVec3T@M@2@AEAMAEBVPxGeometry@2@AEBV?$PxTransformT@M@2@23V?$PxFlags@W4Enum@PxGeometryQueryFlag@physx@@I@2@@Z 00000001800113f0 f   GuGeometryQuery.obj
 0001:000105a0       ?doSupport@?$SupportLocalImpl@VBoxV@Gu@physx@@@Gu@physx@@UEBA?AT__m128@@AEBT4@@Z 00000001800115a0 f i GuGeometryQuery.obj
 0001:000105d0       ?doSupport@?$SupportLocalImpl@VBoxV@Gu@physx@@@Gu@physx@@UEBAXAEBT__m128@@AEAT4@1@Z 00000001800115d0 f i GuGeometryQuery.obj
 0001:00010620       ?doSupport@?$SupportLocalImpl@VConvexHullV@Gu@physx@@@Gu@physx@@UEBA?AT__m128@@AEBT4@@Z 0000000180011620 f i GuGeometryQuery.obj
 0001:00010700       ?doSupport@?$SupportLocalImpl@VConvexHullV@Gu@physx@@@Gu@physx@@UEBAXAEBT__m128@@AEAT4@1@Z 0000000180011700 f i GuGeometryQuery.obj
 0001:00010a60       ?generateTriangleContacts@PxGeometryQuery@physx@@SA_NAEBVPxGeometry@2@AEBV?$PxTransformT@M@2@QEBV?$PxVec3T@M@2@IMMMAEAVPxContactBuffer@2@@Z 0000000180011a60 f   GuGeometryQuery.obj
 0001:00012380       ?getEmptyManifold@MultiplePersistentContactManifold@Gu@physx@@QEAAPEAVSinglePersistentContactManifold@23@XZ 0000000180013380 f i GuGeometryQuery.obj
 0001:000123a0       ?getManifold@MultiplePersistentContactManifold@Gu@physx@@QEAAPEAVSinglePersistentContactManifold@23@I@Z 00000001800133a0 f i GuGeometryQuery.obj
 0001:000123c0       ?getUniqueID@PxCustomGeometry@physx@@SAIXZ 00000001800133c0 f   GuGeometryQuery.obj
 0001:000123e0       ?getWorldBounds@PxGeometryQuery@physx@@SA?AVPxBounds3@2@AEBVPxGeometry@2@AEBV?$PxTransformT@M@2@M@Z 00000001800133e0 f   GuGeometryQuery.obj
 0001:00012520       ?hillClimbing@ConvexHullV@Gu@physx@@QEBAIAEBT__m128@@@Z 0000000180013520 f i GuGeometryQuery.obj
 0001:00012750       ?initialize@MultiplePersistentContactManifold@Gu@physx@@QEAAXXZ 0000000180013750 f i GuGeometryQuery.obj
 0001:000127b0       ?invalidate@MultiplePersistentContactManifold@Gu@physx@@QEAAIAEBVPxTransformV@aos@3@AEBT__m128@@1@Z 00000001800137b0 f i GuGeometryQuery.obj
 0001:00012820       ?invalidate@MultiplePersistentContactManifold@Gu@physx@@QEAAIAEBVPxTransformV@aos@3@AEBT__m128@@@Z 0000000180013820 f i GuGeometryQuery.obj
 0001:00012890       ?isFinite@?$PxQuatT@M@physx@@QEBA_NXZ 0000000180013890 f i GuGeometryQuery.obj
 0001:00012900       ?isFinite@?$PxVec3T@M@physx@@QEBA_NXZ 0000000180013900 f i GuGeometryQuery.obj
 0001:00012960       ?isUnit@?$PxQuatT@M@physx@@QEBA_NXZ 0000000180013960 f i GuGeometryQuery.obj
 0001:000129d0       ?isValid@?$PxTransformT@M@physx@@QEBA_NXZ 00000001800139d0 f i GuGeometryQuery.obj
 0001:00012a40       ?isValid@PxGeometryQuery@physx@@SA_NAEBVPxGeometry@2@@Z 0000000180013a40 f   GuGeometryQuery.obj
 0001:00012d30       ?maxTransformPositionDelta@MultiplePersistentContactManifold@Gu@physx@@QEAA?AT__m128@@AEBT4@@Z 0000000180013d30 f i GuGeometryQuery.obj
 0001:00012d70       ?maxTransformQuatDelta@MultiplePersistentContactManifold@Gu@physx@@QEAA?AT__m128@@AEBT4@@Z 0000000180013d70 f i GuGeometryQuery.obj
 0001:00012db0       ?overlap@PxGeometryQuery@physx@@SA_NAEBVPxGeometry@2@AEBV?$PxTransformT@M@2@01V?$PxFlags@W4Enum@PxGeometryQueryFlag@physx@@I@2@PEAUPxQueryThreadContext@2@@Z 0000000180013db0 f   GuGeometryQuery.obj
 0001:00012f00       ?pointDistance@PxGeometryQuery@physx@@SAMAEBV?$PxVec3T@M@2@AEBVPxGeometry@2@AEBV?$PxTransformT@M@2@PEAV32@PEAIV?$PxFlags@W4Enum@PxGeometryQueryFlag@physx@@I@2@@Z 0000000180013f00 f   GuGeometryQuery.obj
 0001:000136f0       ?populateVerts@?$SupportLocalImpl@VBoxV@Gu@physx@@@Gu@physx@@UEBAXPEBEIPEBV?$PxVec3T@M@3@PEAT__m128@@@Z 00000001800146f0 f i GuGeometryQuery.obj
 0001:00013730       ?populateVerts@?$SupportLocalImpl@VConvexHullV@Gu@physx@@@Gu@physx@@UEBAXPEBEIPEBV?$PxVec3T@M@3@PEAT__m128@@@Z 0000000180014730 f i GuGeometryQuery.obj
 0001:00013790       ?raycast@PxGeometryQuery@physx@@SAIAEBV?$PxVec3T@M@2@0AEBVPxGeometry@2@AEBV?$PxTransformT@M@2@MV?$PxFlags@W4Enum@PxHitFlag@physx@@G@2@IPEIAUPxGeomRaycastHit@2@IV?$PxFlags@W4Enum@PxGeometryQueryFlag@physx@@I@2@PEAUPxQueryThreadContext@2@@Z 0000000180014790 f   GuGeometryQuery.obj
 0001:00013a60       ?reduceManifoldContactsInDifferentPatches@MultiplePersistentContactManifold@Gu@physx@@QEAAIPEAPEAUPCMContactPatch@23@IPEAVMeshPersistentContact@23@IAEBT__m128@@@Z 0000000180014a60 f i GuGeometryQuery.obj
 0001:00013bc0       ?refineContactPatchConnective@MultiplePersistentContactManifold@Gu@physx@@QEAAXPEAPEAUPCMContactPatch@23@IPEAVMeshPersistentContact@23@AEBT__m128@@@Z 0000000180014bc0 f i GuGeometryQuery.obj
 0001:00013cb0       ?refreshManifold@MultiplePersistentContactManifold@Gu@physx@@QEAAXAEBVPxMatTransformV@aos@3@AEBT__m128@@1@Z 0000000180014cb0 f i GuGeometryQuery.obj
 0001:00013db0       ?setRelativeTransform@MultiplePersistentContactManifold@Gu@physx@@QEAAXAEBVPxTransformV@aos@3@@Z 0000000180014db0 f i GuGeometryQuery.obj
 0001:00013dc0       ?supportVertexIndex@ConvexHullV@Gu@physx@@QEBAIAEBT__m128@@@Z 0000000180014dc0 f i GuGeometryQuery.obj
 0001:00014040       ?sweep@PxGeometryQuery@physx@@SA_NAEBV?$PxVec3T@M@2@MAEBVPxGeometry@2@AEBV?$PxTransformT@M@2@12AEAUPxGeomSweepHit@2@V?$PxFlags@W4Enum@PxHitFlag@physx@@G@2@MV?$PxFlags@W4Enum@PxGeometryQueryFlag@physx@@I@2@PEAUPxQueryThreadContext@2@@Z 0000000180015040 f   GuGeometryQuery.obj
 0001:00014670       ?toBuffer@MultiplePersistentContactManifold@Gu@physx@@QEAAXPEIAE@Z 0000000180015670 f i GuGeometryQuery.obj
 0001:00014750       ?computeBoxPoints@Gu@physx@@YAXAEBVPxBounds3@2@PEIAV?$PxVec3T@M@2@@Z 0000000180015750 f   GuInternal.obj
 0001:000147f0       ?computeSweptBox@Gu@physx@@YAXAEAVBox@12@AEBV?$PxVec3T@M@2@1AEBV?$PxMat33T@M@2@1M@Z 00000001800157f0 f   GuInternal.obj
 0001:00014d20       ?getPlane@Gu@physx@@YA?AVPxPlane@2@AEBV?$PxTransformT@M@2@@Z 0000000180015d20 f   GuInternal.obj
 0001:00015280       ??_EPxInsertionCallback@physx@@MEAAPEAXI@Z 0000000180016280 f i GuMeshFactory.obj
 0001:00015280       ??_GCallbackRefit@RTree@Gu@physx@@UEAAPEAXI@Z 0000000180016280 f i GuTriangleMeshRTree.obj
 0001:00015280       ??_GPxInsertionCallback@physx@@MEAAPEAXI@Z 0000000180016280 f i GuMeshFactory.obj
 0001:00015280       ??_ECallbackRefit@RTree@Gu@physx@@UEAAPEAXI@Z 0000000180016280 f i GuTriangleMeshRTree.obj
 0001:00015280       ??_GCallbackRaycast@RTree@Gu@physx@@UEAAPEAXI@Z 0000000180016280 f i GuMidphaseRTree.obj
 0001:00015280       ??_ECallbackRaycast@RTree@Gu@physx@@UEAAPEAXI@Z 0000000180016280 f i GuMidphaseRTree.obj
 0001:000152b0       ??$copy@V?$PxReflectionAllocator@USlab@NodeAllocator@Gu@physx@@@physx@@@?$PxArray@USlab@NodeAllocator@Gu@physx@@V?$PxReflectionAllocator@USlab@NodeAllocator@Gu@physx@@@4@@physx@@IEAAXAEBV01@@Z 00000001800162b0 f i GuMeshFactory.obj
 0001:00015370       ??0AABBTreeBounds@Gu@physx@@QEAA@XZ 0000000180016370 f i GuMeshFactory.obj
 0001:00015380       ??4AABBTreeBuildNode@Gu@physx@@QEAAAEAV012@AEBV012@@Z 0000000180016380 f i GuMeshFactory.obj
 0001:00015380       ??0AABBTreeBuildNode@Gu@physx@@QEAA@AEBV012@@Z 0000000180016380 f i GuMeshFactory.obj
 0001:000153c0       ??0AABBTreeBuildParams@Gu@physx@@QEAA@IIPEBVAABBTreeBounds@12@W4BVHBuildStrategy@12@@Z 00000001800163c0 f i GuMeshFactory.obj
 0001:000153e0       ??0MeshFactory@Gu@physx@@QEAA@XZ 00000001800163e0 f   GuMeshFactory.obj
 0001:000155e0       ??0NodeAllocator@Gu@physx@@QEAA@AEBV012@@Z 00000001800165e0 f i GuMeshFactory.obj
 0001:00015620       ??0TriangleMeshData@Gu@physx@@QEAA@XZ 0000000180016620 f i GuMeshFactory.obj
 0001:00015730       ??1AABBTreeBounds@Gu@physx@@QEAA@XZ 0000000180016730 f i GuMeshFactory.obj
 0001:00015740       ??1AABBTreeBuildParams@Gu@physx@@QEAA@XZ 0000000180016740 f i GuMeshFactory.obj
 0001:00015740       ?reset@AABBTreeBuildParams@Gu@physx@@QEAAXXZ 0000000180016740 f i GuMeshFactory.obj
 0001:00015790       ??1CollisionMeshMappingData@Gu@physx@@UEAA@XZ 0000000180016790 f i GuMeshFactory.obj
 0001:000158d0       ??1MeshDataBase@Gu@physx@@UEAA@XZ 00000001800168d0 f i GuMeshFactory.obj
 0001:00015a10       ??1MeshFactory@Gu@physx@@MEAA@XZ 0000000180016a10 f   GuMeshFactory.obj
 0001:00015b40       ??1RTreeTriangleData@Gu@physx@@UEAA@XZ 0000000180016b40 f i GuMeshFactory.obj
 0001:00015bb0       ??1SoftBodyCollisionData@Gu@physx@@UEAA@XZ 0000000180016bb0 f i GuMeshFactory.obj
 0001:00015ce0       ??1SoftBodySimulationData@Gu@physx@@UEAA@XZ 0000000180016ce0 f i GuMeshFactory.obj
 0001:00015df0       ??1TetrahedronMeshData@Gu@physx@@QEAA@XZ 0000000180016df0 f i GuMeshFactory.obj
 0001:00015e80       ??1TriangleMeshData@Gu@physx@@UEAA@XZ 0000000180016e80 f i GuMeshFactory.obj
 0001:00015fb0       ??4NodeAllocator@Gu@physx@@QEAAAEAV012@AEBV012@@Z 0000000180016fb0 f i GuMeshFactory.obj
 0001:00016060       ??_EMeshFactory@Gu@physx@@MEAAPEAXI@Z 0000000180017060 f i GuMeshFactory.obj
 0001:00016170       ??_FAABBTreeBuildParams@Gu@physx@@QEAAXXZ 0000000180017170 f i GuMeshFactory.obj
 0001:00016190       ??_GBV4TriangleData@Gu@physx@@UEAAPEAXI@Z 0000000180017190 f i GuMeshFactory.obj
 0001:00016190       ??_EBV4TriangleData@Gu@physx@@UEAAPEAXI@Z 0000000180017190 f i GuMeshFactory.obj
 0001:00016220       ??_ECollisionMeshMappingData@Gu@physx@@UEAAPEAXI@Z 0000000180017220 f i GuMeshFactory.obj
 0001:00016220       ??_GCollisionMeshMappingData@Gu@physx@@UEAAPEAXI@Z 0000000180017220 f i GuMeshFactory.obj
 0001:00016290       ??_EMeshDataBase@Gu@physx@@UEAAPEAXI@Z 0000000180017290 f i GuMeshFactory.obj
 0001:00016290       ??_GMeshDataBase@Gu@physx@@UEAAPEAXI@Z 0000000180017290 f i GuMeshFactory.obj
 0001:00016300       ??_GPxCollisionMeshMappingData@physx@@UEAAPEAXI@Z 0000000180017300 f i GuMeshFactory.obj
 0001:00016300       ??_EPxCollisionMeshMappingData@physx@@UEAAPEAXI@Z 0000000180017300 f i GuMeshFactory.obj
 0001:00016350       ??_GRTreeTriangleData@Gu@physx@@UEAAPEAXI@Z 0000000180017350 f i GuMeshFactory.obj
 0001:00016350       ??_ERTreeTriangleData@Gu@physx@@UEAAPEAXI@Z 0000000180017350 f i GuMeshFactory.obj
 0001:00016400       ??_GSoftBodyCollisionData@Gu@physx@@UEAAPEAXI@Z 0000000180017400 f i GuMeshFactory.obj
 0001:00016400       ??_ESoftBodyCollisionData@Gu@physx@@UEAAPEAXI@Z 0000000180017400 f i GuMeshFactory.obj
 0001:00016470       ??_ESoftBodySimulationData@Gu@physx@@UEAAPEAXI@Z 0000000180017470 f i GuMeshFactory.obj
 0001:00016470       ??_GSoftBodySimulationData@Gu@physx@@UEAAPEAXI@Z 0000000180017470 f i GuMeshFactory.obj
 0001:000164e0       ??_ETriangleMeshData@Gu@physx@@UEAAPEAXI@Z 00000001800174e0 f i GuMeshFactory.obj
 0001:000164e0       ??_GTriangleMeshData@Gu@physx@@UEAAPEAXI@Z 00000001800174e0 f i GuMeshFactory.obj
 0001:00016550       ?__global_delete@@YAXPEAX_K@Z 0000000180017550 f i GuMeshFactory.obj
 0001:00016550       ??_V@YAXPEAX_K@Z           0000000180017550 f i LIBCMT:delete_array_size.obj
 0001:00016560       ?addBVH@MeshFactory@Gu@physx@@QEAAXPEAVBVH@23@_N@Z 0000000180017560 f   GuMeshFactory.obj
 0001:00016600       ?addConvexMesh@MeshFactory@Gu@physx@@QEAAXPEAVConvexMesh@23@_N@Z 0000000180017600 f   GuMeshFactory.obj
 0001:000166a0       ?addFactoryListener@MeshFactory@Gu@physx@@QEAAXAEAVMeshFactoryListener@23@@Z 00000001800176a0 f   GuMeshFactory.obj
 0001:00016710       ?addHeightField@MeshFactory@Gu@physx@@QEAAXPEAVHeightField@23@_N@Z 0000000180017710 f   GuMeshFactory.obj
 0001:000167b0       ?addSoftBodyMesh@MeshFactory@Gu@physx@@QEAAXPEAVSoftBodyMesh@23@_N@Z 00000001800177b0 f   GuMeshFactory.obj
 0001:00016850       ?addTetrahedronMesh@MeshFactory@Gu@physx@@QEAAXPEAVTetrahedronMesh@23@_N@Z 0000000180017850 f   GuMeshFactory.obj
 0001:000168f0       ?addTriangleMesh@MeshFactory@Gu@physx@@QEAAXPEAVTriangleMesh@23@_N@Z 00000001800178f0 f   GuMeshFactory.obj
 0001:00016990       ?allocate@?$PxArray@USlab@NodeAllocator@Gu@physx@@V?$PxReflectionAllocator@USlab@NodeAllocator@Gu@physx@@@4@@physx@@IEAAPEAUSlab@NodeAllocator@Gu@2@I@Z 0000000180017990 f i GuMeshFactory.obj
 0001:00016a40       ?allocateAdjacencies@TriangleMeshData@Gu@physx@@QEAAPEAIXZ 0000000180017a40 f i GuMeshFactory.obj
 0001:00016ab0       ?allocateExtraTrigData@TriangleMeshData@Gu@physx@@QEAAPEAEXZ 0000000180017ab0 f i GuMeshFactory.obj
 0001:00016b20       ?allocateFaceRemap@TriangleMeshData@Gu@physx@@QEAAPEAIXZ 0000000180017b20 f i GuMeshFactory.obj
 0001:00016b90       ?allocateGridModelData@SoftBodySimulationData@Gu@physx@@QEAAXIIIIIII@Z 0000000180017b90 f i GuMeshFactory.obj
 0001:00016e00       ?allocateMaterials@TetrahedronMeshData@Gu@physx@@QEAAPEAGXZ 0000000180017e00 f i GuMeshFactory.obj
 0001:00016e70       ?allocateMaterials@TriangleMeshData@Gu@physx@@QEAAPEAGXZ 0000000180017e70 f i GuMeshFactory.obj
 0001:00016ee0       ?allocateTetrahedrons@TetrahedronMeshData@Gu@physx@@QEAAXII@Z 0000000180017ee0 f i GuMeshFactory.obj
 0001:00016f70       ?allocateTriangles@TriangleMeshData@Gu@physx@@QEAAPEAXI_NI@Z 0000000180017f70 f i GuMeshFactory.obj
 0001:00017060       ?allocateVertices@MeshDataBase@Gu@physx@@QEAAPEAV?$PxVec3T@M@3@I@Z 0000000180018060 f i GuMeshFactory.obj
 0001:000170d0       ?allocateVertices@TetrahedronMeshData@Gu@physx@@QEAAPEAV?$PxVec3T@M@3@II@Z 00000001800180d0 f i GuMeshFactory.obj
 0001:00017170       ?allocatemappingData@CollisionMeshMappingData@Gu@physx@@QEAAXIIII@Z 0000000180018170 f i GuMeshFactory.obj
 0001:00017340       ?create@?$PxHashBase@PEAVHeightField@Gu@physx@@PEAV123@U?$PxHash@PEAVHeightField@Gu@physx@@@3@UGetKey@?$PxHashSetBase@PEAVHeightField@Gu@physx@@U?$PxHash@PEAVHeightField@Gu@physx@@@3@VPxAllocator@3@$00@3@VPxAllocator@3@$00@physx@@QEAAPEAPEAVHeightField@Gu@2@AEBQEAV342@AEA_N@Z 0000000180018340 f i GuMeshFactory.obj
 0001:00017340       ?create@?$PxHashBase@PEAVConvexMesh@Gu@physx@@PEAV123@U?$PxHash@PEAVConvexMesh@Gu@physx@@@3@UGetKey@?$PxHashSetBase@PEAVConvexMesh@Gu@physx@@U?$PxHash@PEAVConvexMesh@Gu@physx@@@3@VPxAllocator@3@$00@3@VPxAllocator@3@$00@physx@@QEAAPEAPEAVConvexMesh@Gu@2@AEBQEAV342@AEA_N@Z 0000000180018340 f i GuMeshFactory.obj
 0001:00017340       ?create@?$PxHashBase@PEAVTriangleMesh@Gu@physx@@PEAV123@U?$PxHash@PEAVTriangleMesh@Gu@physx@@@3@UGetKey@?$PxHashSetBase@PEAVTriangleMesh@Gu@physx@@U?$PxHash@PEAVTriangleMesh@Gu@physx@@@3@VPxAllocator@3@$00@3@VPxAllocator@3@$00@physx@@QEAAPEAPEAVTriangleMesh@Gu@2@AEBQEAV342@AEA_N@Z 0000000180018340 f i GuMeshFactory.obj
 0001:00017340       ?create@?$PxHashBase@PEAVBVH@Gu@physx@@PEAV123@U?$PxHash@PEAVBVH@Gu@physx@@@3@UGetKey@?$PxHashSetBase@PEAVBVH@Gu@physx@@U?$PxHash@PEAVBVH@Gu@physx@@@3@VPxAllocator@3@$00@3@VPxAllocator@3@$00@physx@@QEAAPEAPEAVBVH@Gu@2@AEBQEAV342@AEA_N@Z 0000000180018340 f i GuMeshFactory.obj
 0001:00017340       ?create@?$PxHashBase@PEAVSoftBodyMesh@Gu@physx@@PEAV123@U?$PxHash@PEAVSoftBodyMesh@Gu@physx@@@3@UGetKey@?$PxHashSetBase@PEAVSoftBodyMesh@Gu@physx@@U?$PxHash@PEAVSoftBodyMesh@Gu@physx@@@3@VPxAllocator@3@$00@3@VPxAllocator@3@$00@physx@@QEAAPEAPEAVSoftBodyMesh@Gu@2@AEBQEAV342@AEA_N@Z 0000000180018340 f i GuMeshFactory.obj
 0001:00017340       ?create@?$PxHashBase@PEAVTetrahedronMesh@Gu@physx@@PEAV123@U?$PxHash@PEAVTetrahedronMesh@Gu@physx@@@3@UGetKey@?$PxHashSetBase@PEAVTetrahedronMesh@Gu@physx@@U?$PxHash@PEAVTetrahedronMesh@Gu@physx@@@3@VPxAllocator@3@$00@3@VPxAllocator@3@$00@physx@@QEAAPEAPEAVTetrahedronMesh@Gu@2@AEBQEAV342@AEA_N@Z 0000000180018340 f i GuMeshFactory.obj
 0001:000174e0       ?createBVH@MeshFactory@Gu@physx@@IEAAPEAVPxBVH@3@AEAVBVHData@23@@Z 00000001800184e0 f   GuMeshFactory.obj
 0001:00017640       ?createBVH@MeshFactory@Gu@physx@@QEAAPEAVPxBVH@3@AEAVPxInputStream@3@@Z 0000000180018640 f   GuMeshFactory.obj
 0001:000177c0       ?createBVH@MeshFactory@Gu@physx@@QEAAPEAVPxBVH@3@PEAX@Z 00000001800187c0 f   GuMeshFactory.obj
 0001:000177d0       ?createConvexMesh@MeshFactory@Gu@physx@@IEAAPEAVPxConvexMesh@3@AEAUConvexHullInitData@23@@Z 00000001800187d0 f   GuMeshFactory.obj
 0001:00017920       ?createConvexMesh@MeshFactory@Gu@physx@@QEAAPEAVPxConvexMesh@3@AEAVPxInputStream@3@@Z 0000000180018920 f   GuMeshFactory.obj
 0001:00017a80       ?createConvexMesh@MeshFactory@Gu@physx@@QEAAPEAVPxConvexMesh@3@PEAX@Z 0000000180018a80 f   GuMeshFactory.obj
 0001:00017a90       ?createHeightField@MeshFactory@Gu@physx@@QEAAPEAVPxHeightField@3@AEAVPxInputStream@3@@Z 0000000180018a90 f   GuMeshFactory.obj
 0001:00017c10       ?createHeightField@MeshFactory@Gu@physx@@QEAAPEAVPxHeightField@3@PEAX@Z 0000000180018c10 f   GuMeshFactory.obj
 0001:00017d70       ?createSoftBodyMesh@MeshFactory@Gu@physx@@IEAAPEAVPxSoftBodyMesh@3@AEAVSoftBodyMeshData@23@@Z 0000000180018d70 f   GuMeshFactory.obj
 0001:00017ec0       ?createSoftBodyMesh@MeshFactory@Gu@physx@@QEAAPEAVPxSoftBodyMesh@3@AEAVPxInputStream@3@@Z 0000000180018ec0 f   GuMeshFactory.obj
 0001:00018480       ?createSoftBodyMesh@MeshFactory@Gu@physx@@QEAAPEAVPxSoftBodyMesh@3@PEAX@Z 0000000180019480 f   GuMeshFactory.obj
 0001:00018490       ?createTetrahedronMesh@MeshFactory@Gu@physx@@IEAAPEAVPxTetrahedronMesh@3@AEAVTetrahedronMeshData@23@@Z 0000000180019490 f   GuMeshFactory.obj
 0001:000185f0       ?createTetrahedronMesh@MeshFactory@Gu@physx@@QEAAPEAVPxTetrahedronMesh@3@AEAVPxInputStream@3@@Z 00000001800195f0 f   GuMeshFactory.obj
 0001:00018650       ?createTetrahedronMesh@MeshFactory@Gu@physx@@QEAAPEAVPxTetrahedronMesh@3@PEAX@Z 0000000180019650 f   GuMeshFactory.obj
 0001:00018660       ?createTriangleMesh@MeshFactory@Gu@physx@@IEAAPEAVPxTriangleMesh@3@AEAVTriangleMeshData@23@@Z 0000000180019660 f   GuMeshFactory.obj
 0001:00018860       ?createTriangleMesh@MeshFactory@Gu@physx@@QEAAPEAVPxTriangleMesh@3@AEAVPxInputStream@3@@Z 0000000180019860 f   GuMeshFactory.obj
 0001:000188c0       ?createTriangleMesh@MeshFactory@Gu@physx@@QEAAPEAVPxTriangleMesh@3@PEAX@Z 00000001800198c0 f   GuMeshFactory.obj
 0001:000188d0       ?erase@?$PxHashBase@PEAVBVH@Gu@physx@@PEAV123@U?$PxHash@PEAVBVH@Gu@physx@@@3@UGetKey@?$PxHashSetBase@PEAVBVH@Gu@physx@@U?$PxHash@PEAVBVH@Gu@physx@@@3@VPxAllocator@3@$00@3@VPxAllocator@3@$00@physx@@QEAA_NAEBQEAVBVH@Gu@2@@Z 00000001800198d0 f i GuMeshFactory.obj
 0001:000188d0       ?erase@?$PxHashBase@PEAVSoftBodyMesh@Gu@physx@@PEAV123@U?$PxHash@PEAVSoftBodyMesh@Gu@physx@@@3@UGetKey@?$PxHashSetBase@PEAVSoftBodyMesh@Gu@physx@@U?$PxHash@PEAVSoftBodyMesh@Gu@physx@@@3@VPxAllocator@3@$00@3@VPxAllocator@3@$00@physx@@QEAA_NAEBQEAVSoftBodyMesh@Gu@2@@Z 00000001800198d0 f i GuMeshFactory.obj
 0001:000188d0       ?erase@?$PxHashBase@PEAVTetrahedronMesh@Gu@physx@@PEAV123@U?$PxHash@PEAVTetrahedronMesh@Gu@physx@@@3@UGetKey@?$PxHashSetBase@PEAVTetrahedronMesh@Gu@physx@@U?$PxHash@PEAVTetrahedronMesh@Gu@physx@@@3@VPxAllocator@3@$00@3@VPxAllocator@3@$00@physx@@QEAA_NAEBQEAVTetrahedronMesh@Gu@2@@Z 00000001800198d0 f i GuMeshFactory.obj
 0001:000188d0       ?erase@?$PxHashBase@PEAVHeightField@Gu@physx@@PEAV123@U?$PxHash@PEAVHeightField@Gu@physx@@@3@UGetKey@?$PxHashSetBase@PEAVHeightField@Gu@physx@@U?$PxHash@PEAVHeightField@Gu@physx@@@3@VPxAllocator@3@$00@3@VPxAllocator@3@$00@physx@@QEAA_NAEBQEAVHeightField@Gu@2@@Z 00000001800198d0 f i GuMeshFactory.obj
 0001:000188d0       ?erase@?$PxHashBase@PEAVConvexMesh@Gu@physx@@PEAV123@U?$PxHash@PEAVConvexMesh@Gu@physx@@@3@UGetKey@?$PxHashSetBase@PEAVConvexMesh@Gu@physx@@U?$PxHash@PEAVConvexMesh@Gu@physx@@@3@VPxAllocator@3@$00@3@VPxAllocator@3@$00@physx@@QEAA_NAEBQEAVConvexMesh@Gu@2@@Z 00000001800198d0 f i GuMeshFactory.obj
 0001:000188d0       ?erase@?$PxHashBase@PEAVTriangleMesh@Gu@physx@@PEAV123@U?$PxHash@PEAVTriangleMesh@Gu@physx@@@3@UGetKey@?$PxHashSetBase@PEAVTriangleMesh@Gu@physx@@U?$PxHash@PEAVTriangleMesh@Gu@physx@@@3@VPxAllocator@3@$00@3@VPxAllocator@3@$00@physx@@QEAA_NAEBQEAVTriangleMesh@Gu@2@@Z 00000001800198d0 f i GuMeshFactory.obj
 0001:00018a40       ?getBVHs@MeshFactory@Gu@physx@@QEBAIPEAPEAVPxBVH@3@II@Z 0000000180019a40 f   GuMeshFactory.obj
 0001:00018ae0       ?getBounds@AABBTreeBounds@Gu@physx@@QEBAPEBVPxBounds3@3@XZ 0000000180019ae0 f i GuMeshFactory.obj
 0001:00018ae0       ?getBounds@AABBTreeBounds@Gu@physx@@QEAAPEAVPxBounds3@3@XZ 0000000180019ae0 f i GuMeshFactory.obj
 0001:00018af0       ?getConvexMeshes@MeshFactory@Gu@physx@@QEBAIPEAPEAVPxConvexMesh@3@II@Z 0000000180019af0 f   GuMeshFactory.obj
 0001:00018b90       ?getHeightFields@MeshFactory@Gu@physx@@QEBAIPEAPEAVPxHeightField@3@II@Z 0000000180019b90 f   GuMeshFactory.obj
 0001:00018c30       ?getNbBVHs@MeshFactory@Gu@physx@@QEBAIXZ 0000000180019c30 f   GuMeshFactory.obj
 0001:00018c70       ?getNbConvexMeshes@MeshFactory@Gu@physx@@QEBAIXZ 0000000180019c70 f   GuMeshFactory.obj
 0001:00018cb0       ?getNbHeightFields@MeshFactory@Gu@physx@@QEBAIXZ 0000000180019cb0 f   GuMeshFactory.obj
 0001:00018cf0       ?getNbRuntimePrimitives@AABBTreeBuildNode@Gu@physx@@QEBAIXZ 0000000180019cf0 f i GuMeshFactory.obj
 0001:00018cf0       ?getNbPrimitives@AABBTreeBuildNode@Gu@physx@@QEBAIXZ 0000000180019cf0 f i GuMeshFactory.obj
 0001:00018d00       ?getNbSoftBodyMeshes@MeshFactory@Gu@physx@@QEBAIXZ 0000000180019d00 f   GuMeshFactory.obj
 0001:00018d40       ?getNbTetrahedronMeshes@MeshFactory@Gu@physx@@QEBAIXZ 0000000180019d40 f   GuMeshFactory.obj
 0001:00018d80       ?getNbTriangleMeshes@MeshFactory@Gu@physx@@QEBAIXZ 0000000180019d80 f   GuMeshFactory.obj
 0001:00018dc0       ?getNeg@AABBTreeBuildNode@Gu@physx@@QEBAPEBV123@XZ 0000000180019dc0 f i GuMeshFactory.obj
 0001:00018de0       ?getPrimitives@AABBTreeBuildNode@Gu@physx@@QEAAPEAIPEAI@Z 0000000180019de0 f i GuMeshFactory.obj
 0001:00018de0       ?getPrimitives@AABBTreeBuildNode@Gu@physx@@QEBAPEBIPEBI@Z 0000000180019de0 f i GuMeshFactory.obj
 0001:00018df0       ?getSoftBodyMeshes@MeshFactory@Gu@physx@@QEBAIPEAPEAVPxSoftBodyMesh@3@II@Z 0000000180019df0 f   GuMeshFactory.obj
 0001:00018e90       ?getTetrahedronMeshes@MeshFactory@Gu@physx@@QEBAIPEAPEAVPxTetrahedronMesh@3@II@Z 0000000180019e90 f   GuMeshFactory.obj
 0001:00018f20       ?getTriangleMeshes@MeshFactory@Gu@physx@@QEBAIPEAPEAVPxTriangleMesh@3@II@Z 0000000180019f20 f   GuMeshFactory.obj
 0001:00018fb0       ?growAndPushBack@?$PxArray@PEAVMeshFactoryListener@Gu@physx@@V?$PxReflectionAllocator@PEAVMeshFactoryListener@Gu@physx@@@3@@physx@@IEAAAEAPEAVMeshFactoryListener@Gu@2@AEBQEAV342@@Z 0000000180019fb0 f i GuMeshFactory.obj
 0001:000190f0       ?isLeaf@AABBTreeBuildNode@Gu@physx@@QEBA_NXZ 000000018001a0f0 f i GuMeshFactory.obj
 0001:0001ab80       ?moveFrom@AABBTreeBounds@Gu@physx@@QEAAXAEAV123@@Z 000000018001bb80 f i GuMeshFactory.obj
 0001:0001ab90       ?notifyFactoryListener@MeshFactory@Gu@physx@@QEAAXPEBVPxBase@3@G@Z 000000018001bb90 f   GuMeshFactory.obj
 0001:0001ac00       ?notifyListenersAdd@MeshFactory@Gu@physx@@IEAAXPEBVPxBase@3@@Z 000000018001bc00 f   GuMeshFactory.obj
 0001:0001ac50       ?notifyListenersRemove@MeshFactory@Gu@physx@@IEAAXPEBVPxBase@3@@Z 000000018001bc50 f   GuMeshFactory.obj
 0001:0001aca0       ?ownsMemory@AABBTreeBounds@Gu@physx@@QEBA_NXZ 000000018001bca0 f i GuMeshFactory.obj
 0001:0001af20       ?recreate@?$PxArray@USlab@NodeAllocator@Gu@physx@@V?$PxReflectionAllocator@USlab@NodeAllocator@Gu@physx@@@4@@physx@@IEAAXI@Z 000000018001bf20 f i GuMeshFactory.obj
 0001:0001afd0       ?release@CollisionMeshMappingData@Gu@physx@@UEAAXXZ 000000018001bfd0 f i GuMeshFactory.obj
 0001:0001aff0       ?release@MeshFactory@Gu@physx@@QEAAXXZ 000000018001bff0 f   GuMeshFactory.obj
 0001:0001b0e0       ?remove@MeshFactory@Gu@physx@@QEAA_NAEAVPxBase@3@@Z 000000018001c0e0 f   GuMeshFactory.obj
 0001:0001b130       ?removeBVH@MeshFactory@Gu@physx@@QEAA_NAEAVPxBVH@3@@Z 000000018001c130 f   GuMeshFactory.obj
 0001:0001b1c0       ?removeConvexMesh@MeshFactory@Gu@physx@@QEAA_NAEAVPxConvexMesh@3@@Z 000000018001c1c0 f   GuMeshFactory.obj
 0001:0001b250       ?removeFactoryListener@MeshFactory@Gu@physx@@QEAAXAEAVMeshFactoryListener@23@@Z 000000018001c250 f   GuMeshFactory.obj
 0001:0001b2e0       ?removeHeightField@MeshFactory@Gu@physx@@QEAA_NAEAVPxHeightField@3@@Z 000000018001c2e0 f   GuMeshFactory.obj
 0001:0001b370       ?removeSoftBodyMesh@MeshFactory@Gu@physx@@QEAA_NAEAVPxSoftBodyMesh@3@@Z 000000018001c370 f   GuMeshFactory.obj
 0001:0001b400       ?removeTetrahedronMesh@MeshFactory@Gu@physx@@QEAA_NAEAVPxTetrahedronMesh@3@@Z 000000018001c400 f   GuMeshFactory.obj
 0001:0001b490       ?removeTriangleMesh@MeshFactory@Gu@physx@@QEAA_NAEAVPxTriangleMesh@3@@Z 000000018001c490 f   GuMeshFactory.obj
 0001:0001b520       ?reserveInternal@?$PxHashBase@PEAVSoftBodyMesh@Gu@physx@@PEAV123@U?$PxHash@PEAVSoftBodyMesh@Gu@physx@@@3@UGetKey@?$PxHashSetBase@PEAVSoftBodyMesh@Gu@physx@@U?$PxHash@PEAVSoftBodyMesh@Gu@physx@@@3@VPxAllocator@3@$00@3@VPxAllocator@3@$00@physx@@AEAAXI@Z 000000018001c520 f i GuMeshFactory.obj
 0001:0001b520       ?reserveInternal@?$PxHashBase@PEAVConvexMesh@Gu@physx@@PEAV123@U?$PxHash@PEAVConvexMesh@Gu@physx@@@3@UGetKey@?$PxHashSetBase@PEAVConvexMesh@Gu@physx@@U?$PxHash@PEAVConvexMesh@Gu@physx@@@3@VPxAllocator@3@$00@3@VPxAllocator@3@$00@physx@@AEAAXI@Z 000000018001c520 f i GuMeshFactory.obj
 0001:0001b520       ?reserveInternal@?$PxHashBase@PEAVBVH@Gu@physx@@PEAV123@U?$PxHash@PEAVBVH@Gu@physx@@@3@UGetKey@?$PxHashSetBase@PEAVBVH@Gu@physx@@U?$PxHash@PEAVBVH@Gu@physx@@@3@VPxAllocator@3@$00@3@VPxAllocator@3@$00@physx@@AEAAXI@Z 000000018001c520 f i GuMeshFactory.obj
 0001:0001b520       ?reserveInternal@?$PxHashBase@PEAVTriangleMesh@Gu@physx@@PEAV123@U?$PxHash@PEAVTriangleMesh@Gu@physx@@@3@UGetKey@?$PxHashSetBase@PEAVTriangleMesh@Gu@physx@@U?$PxHash@PEAVTriangleMesh@Gu@physx@@@3@VPxAllocator@3@$00@3@VPxAllocator@3@$00@physx@@AEAAXI@Z 000000018001c520 f i GuMeshFactory.obj
 0001:0001b520       ?reserveInternal@?$PxHashBase@PEAVTetrahedronMesh@Gu@physx@@PEAV123@U?$PxHash@PEAVTetrahedronMesh@Gu@physx@@@3@UGetKey@?$PxHashSetBase@PEAVTetrahedronMesh@Gu@physx@@U?$PxHash@PEAVTetrahedronMesh@Gu@physx@@@3@VPxAllocator@3@$00@3@VPxAllocator@3@$00@physx@@AEAAXI@Z 000000018001c520 f i GuMeshFactory.obj
 0001:0001b520       ?reserveInternal@?$PxHashBase@PEAVHeightField@Gu@physx@@PEAV123@U?$PxHash@PEAVHeightField@Gu@physx@@@3@UGetKey@?$PxHashSetBase@PEAVHeightField@Gu@physx@@U?$PxHash@PEAVHeightField@Gu@physx@@@3@VPxAllocator@3@$00@3@VPxAllocator@3@$00@physx@@AEAAXI@Z 000000018001c520 f i GuMeshFactory.obj
 0001:0001b6f0       ?setBounds@AABBTreeBounds@Gu@physx@@QEAAXPEAVPxBounds3@3@@Z 000000018001c6f0 f i GuMeshFactory.obj
 0001:0001b700       ?setNbRunTimePrimitives@AABBTreeBuildNode@Gu@physx@@QEAAXI@Z 000000018001c700 f i GuMeshFactory.obj
 0001:0001b710       ?takeOwnership@AABBTreeBounds@Gu@physx@@QEAAXXZ 000000018001c710 f i GuMeshFactory.obj
 0001:0001b720       getInsertionCallback       000000018001c720 f   GuMeshFactory.obj
 0001:0001b730       ??4BigConvexData@physx@@QEAAAEAV01@AEBV01@@Z 000000018001c730 f i GuMetaData.obj
 0001:0001b750       ?getTriangles@TriangleMesh@Gu@physx@@UEBAPEBXXZ 000000018001c750 f i GuTriangleMesh.obj
 0001:0001b750       ?getSoftBodyAuxData@SoftBodyMesh@Gu@physx@@UEBAPEBVPxSoftBodyAuxData@3@XZ 000000018001c750 f i GuTetrahedronMesh.obj
 0001:0001b750       ?getTransforms@PruningPool@Gu@physx@@QEBAPEBV?$PxTransformT@M@3@XZ 000000018001c750 f i GuIncrementalAABBPrunerCore.obj
 0001:0001b750       ?getTransforms@PruningPool@Gu@physx@@QEAAPEAV?$PxTransformT@M@3@XZ 000000018001c750 f i GuIncrementalAABBPrunerCore.obj
 0001:0001b750       ?getSoftBodyAuxData@SoftBodyMesh@Gu@physx@@UEAAPEAVPxSoftBodyAuxData@3@XZ 000000018001c750 f i GuTetrahedronMesh.obj
 0001:0001b750       ?GetAdjacentVerts@BigConvexData@physx@@QEBAPEBEXZ 000000018001c750 f i GuMetaData.obj
 0001:0001b760       ?GetValency@BigConvexData@physx@@QEBAGI@Z 000000018001c760 f i GuMetaData.obj
 0001:0001b760       ?GetNbNeighbors@BigConvexData@physx@@QEBAGI@Z 000000018001c760 f i GuMetaData.obj
 0001:0001b770       ?GetNbSamples@BigConvexData@physx@@QEBAIXZ 000000018001c770 f i GuMetaData.obj
 0001:0001b780       ?length@pcharNode@@UEBAHXZ 000000018001c780 f i libvcruntime:undname.obj
 0001:0001b780       ?getNbVertices@TetrahedronMesh@Gu@physx@@UEBAIXZ 000000018001c780 f i GuTetrahedronMesh.obj
 0001:0001b780       ?raw_length@pcharNode@@UEBAHXZ 000000018001c780 f i libvcruntime:undname.obj
 0001:0001b780       ?GetNbVerts@BigConvexData@physx@@QEBAIXZ 000000018001c780 f i GuMetaData.obj
 0001:0001b780       ?getNbVertices@TriangleMesh@Gu@physx@@UEBAIXZ 000000018001c780 f i GuTriangleMesh.obj
 0001:0001b790       ?GetNeighbors@BigConvexData@physx@@QEBAPEBEI@Z 000000018001c790 f i GuMetaData.obj
 0001:0001b7a0       ?GetOffset@BigConvexData@physx@@QEBAGI@Z 000000018001c7a0 f i GuMetaData.obj
 0001:0001b7b0       ?GetSubdiv@BigConvexData@physx@@QEBAIXZ 000000018001c7b0 f i GuMetaData.obj
 0001:0001b7c0       ?getBinaryMetaData@BV4Tree@Gu@physx@@SAXAEAVPxOutputStream@3@@Z 000000018001c7c0 f   GuMetaData.obj
 0001:0001bd60       ?getBinaryMetaData@BV4TriangleMesh@Gu@physx@@SAXAEAVPxOutputStream@3@@Z 000000018001cd60 f   GuMetaData.obj
 0001:0001c0e0       ?getBinaryMetaData@BigConvexData@physx@@SAXAEAVPxOutputStream@2@@Z 000000018001d0e0 f   GuMetaData.obj
 0001:0001c3a0       ?getBinaryMetaData@ConvexMesh@Gu@physx@@SAXAEAVPxOutputStream@3@@Z 000000018001d3a0 f   GuMetaData.obj
 0001:0001ca30       ?getBinaryMetaData@HeightField@Gu@physx@@SAXAEAVPxOutputStream@3@@Z 000000018001da30 f   GuMetaData.obj
 0001:0001ce20       ?getBinaryMetaData@RTree@Gu@physx@@SAXAEAVPxOutputStream@3@@Z 000000018001de20 f   GuMetaData.obj
 0001:0001d150       ?getBinaryMetaData@RTreeTriangleMesh@Gu@physx@@SAXAEAVPxOutputStream@3@@Z 000000018001e150 f   GuMetaData.obj
 0001:0001d230       ?getBinaryMetaData@TriangleMesh@Gu@physx@@SAXAEAVPxOutputStream@3@@Z 000000018001e230 f   GuMetaData.obj
 0001:0001ed70       ?doSupport@?$SupportLocalImpl@VConvexHullNoScaleV@Gu@physx@@@Gu@physx@@UEBA?AT__m128@@AEBT4@@Z 000000018001fd70 f i GuMTD.obj
 0001:0001edc0       ?doSupport@?$SupportLocalImpl@VConvexHullNoScaleV@Gu@physx@@@Gu@physx@@UEBAXAEBT__m128@@AEAT4@1@Z 000000018001fdc0 f i GuMTD.obj
 0001:0001ef40       ?populateVerts@?$SupportLocalImpl@VConvexHullNoScaleV@Gu@physx@@@Gu@physx@@UEBAXPEBEIPEBV?$PxVec3T@M@3@PEAT__m128@@@Z 000000018001ff40 f i GuMTD.obj
 0001:0001ef80       ?getInternalData@TriangleMesh@Gu@physx@@UEBA_NAEAUPxTriangleMeshInternalData@3@_N@Z 000000018001ff80 f   GuTriangleMesh.obj
 0001:0001ef80       ?isDynamic@Pruner@Gu@physx@@UEBA_NXZ 000000018001ff80 f   GuIncrementalAABBPruner.obj
 0001:00020b40       ??$gjk@U?$LocalConvex@VCapsuleV@Gu@physx@@@Gu@physx@@U?$LocalConvex@VConvexHullV@Gu@physx@@@23@@Gu@physx@@YA?AW4GjkStatus@01@AEBU?$LocalConvex@VCapsuleV@Gu@physx@@@01@AEBU?$LocalConvex@VConvexHullV@Gu@physx@@@01@AEBT__m128@@2AEAT5@333@Z 0000000180021b40 f i GuMTD.obj
 0001:000218a0       ??0SeparatingAxes@Gu@physx@@QEAA@AEBV012@@Z 00000001800228a0 f i GuMTD.obj
 0001:000218a0       ??0SeparatingAxes@Gu@physx@@QEAA@$$QEAV012@@Z 00000001800228a0 f i GuMTD.obj
 0001:000219b0       ??0SeparatingAxes@Gu@physx@@QEAA@XZ 00000001800229b0 f i GuMTD.obj
 0001:000219c0       ??4SeparatingAxes@Gu@physx@@QEAAAEAV012@$$QEAV012@@Z 00000001800229c0 f i GuMTD.obj
 0001:000219c0       ??4SeparatingAxes@Gu@physx@@QEAAAEAV012@AEBV012@@Z 00000001800229c0 f i GuMTD.obj
 0001:00021ad0       ??_E?$LocalConvex@VConvexHullV@Gu@physx@@@Gu@physx@@UEAAPEAXI@Z 0000000180022ad0 f i GuMTD.obj
 0001:00021ad0       ??_G?$LocalConvex@VTetrahedronV@Gu@physx@@@Gu@physx@@UEAAPEAXI@Z 0000000180022ad0 f i GuCookingTetrahedronMesh.obj
 0001:00021ad0       ??_E?$LocalConvex@VCapsuleV@Gu@physx@@@Gu@physx@@UEAAPEAXI@Z 0000000180022ad0 f i GuMTD.obj
 0001:00021ad0       ??_E?$LocalConvex@VTetrahedronV@Gu@physx@@@Gu@physx@@UEAAPEAXI@Z 0000000180022ad0 f i GuCookingTetrahedronMesh.obj
 0001:00021ad0       ??_G?$LocalConvex@UPointConvexV@@@Gu@physx@@UEAAPEAXI@Z 0000000180022ad0 f i GuGjkQuery.obj
 0001:00021ad0       ??_G?$LocalConvex@VTriangleV@Gu@physx@@@Gu@physx@@UEAAPEAXI@Z 0000000180022ad0 f i GuSweepTests.obj
 0001:00021ad0       ??_G?$LocalConvex@VConvexHullV@Gu@physx@@@Gu@physx@@UEAAPEAXI@Z 0000000180022ad0 f i GuMTD.obj
 0001:00021ad0       ??_G?$LocalConvex@VCapsuleV@Gu@physx@@@Gu@physx@@UEAAPEAXI@Z 0000000180022ad0 f i GuMTD.obj
 0001:00021ad0       ??_GGjkConvex@Gu@physx@@UEAAPEAXI@Z 0000000180022ad0 f i GuMTD.obj
 0001:00021ad0       ??_E?$LocalConvex@UCustomConvexV@@@Gu@physx@@UEAAPEAXI@Z 0000000180022ad0 f i GuGjkQuery.obj
 0001:00021ad0       ??_G?$LocalConvex@UCustomConvexV@@@Gu@physx@@UEAAPEAXI@Z 0000000180022ad0 f i GuGjkQuery.obj
 0001:00021ad0       ??_E?$LocalConvex@VTriangleV@Gu@physx@@@Gu@physx@@UEAAPEAXI@Z 0000000180022ad0 f i GuSweepTests.obj
 0001:00021ad0       ??_EGjkConvex@Gu@physx@@UEAAPEAXI@Z 0000000180022ad0 f i GuMTD.obj
 0001:00021ad0       ??_E?$LocalConvex@VBoxV@Gu@physx@@@Gu@physx@@UEAAPEAXI@Z 0000000180022ad0 f i GuSweepTests.obj
 0001:00021ad0       ??_E?$LocalConvex@VConvexHullNoScaleV@Gu@physx@@@Gu@physx@@UEAAPEAXI@Z 0000000180022ad0 f i GuPCMContactBoxConvex.obj
 0001:00021ad0       ??_G?$LocalConvex@VConvexHullNoScaleV@Gu@physx@@@Gu@physx@@UEAAPEAXI@Z 0000000180022ad0 f i GuPCMContactBoxConvex.obj
 0001:00021ad0       ??_G?$LocalConvex@VBoxV@Gu@physx@@@Gu@physx@@UEAAPEAXI@Z 0000000180022ad0 f i GuSweepTests.obj
 0001:00021ad0       ??_E?$LocalConvex@UPointConvexV@@@Gu@physx@@UEAAPEAXI@Z 0000000180022ad0 f i GuGjkQuery.obj
 0001:00025f30       ?getAxes@SeparatingAxes@Gu@physx@@QEBAPEBV?$PxVec3T@M@3@XZ 0000000180026f30 f i GuMTD.obj
 0001:00025f40       ?getCenter@?$LocalConvex@VTetrahedronV@Gu@physx@@@Gu@physx@@UEBA?AT__m128@@XZ 0000000180026f40 f i GuCookingTetrahedronMesh.obj
 0001:00025f40       ?getCenter@?$LocalConvex@VCapsuleV@Gu@physx@@@Gu@physx@@UEBA?AT__m128@@XZ 0000000180026f40 f i GuMTD.obj
 0001:00025f40       ?getCenter@?$LocalConvex@VTriangleV@Gu@physx@@@Gu@physx@@UEBA?AT__m128@@XZ 0000000180026f40 f i GuSweepTests.obj
 0001:00025f40       ?getCenter@?$LocalConvex@VBoxV@Gu@physx@@@Gu@physx@@UEBA?AT__m128@@XZ 0000000180026f40 f i GuSweepTests.obj
 0001:00025f40       ?getCenter@?$LocalConvex@VConvexHullNoScaleV@Gu@physx@@@Gu@physx@@UEBA?AT__m128@@XZ 0000000180026f40 f i GuPCMContactBoxConvex.obj
 0001:00025f40       ?getCenter@?$LocalConvex@UCustomConvexV@@@Gu@physx@@UEBA?AT__m128@@XZ 0000000180026f40 f i GuGjkQuery.obj
 0001:00025f40       ?getCenter@?$LocalConvex@UPointConvexV@@@Gu@physx@@UEBA?AT__m128@@XZ 0000000180026f40 f i GuGjkQuery.obj
 0001:00025f40       ?getCenter@?$LocalConvex@VConvexHullV@Gu@physx@@@Gu@physx@@UEBA?AT__m128@@XZ 0000000180026f40 f i GuMTD.obj
 0001:00025f50       ?getNbActiveObjects@PruningPool@Gu@physx@@QEBAIXZ 0000000180026f50 f i GuIncrementalAABBPrunerCore.obj
 0001:00025f50       ?getNumAxes@SeparatingAxes@Gu@physx@@QEBAIXZ 0000000180026f50 f i GuMTD.obj
 0001:00025f50       ?getCount@BuildStats@Gu@physx@@QEBAIXZ 0000000180026f50 f i GuBV4Build.obj
 0001:00025f60       ?getSweepMargin@?$LocalConvex@VCapsuleV@Gu@physx@@@Gu@physx@@UEBA?AT__m128@@XZ 0000000180026f60 f i GuMTD.obj
 0001:00025f60       ?getSweepMargin@?$RelativeConvex@VCapsuleV@Gu@physx@@@Gu@physx@@UEBA?AT__m128@@XZ 0000000180026f60 f i GuCCDSweepPrimitives.obj
 0001:00025f70       ?getSweepMargin@?$RelativeConvex@VConvexHullV@Gu@physx@@@Gu@physx@@UEBA?AT__m128@@XZ 0000000180026f70 f i GuOverlapTests.obj
 0001:00025f70       ?getSweepMargin@?$LocalConvex@VConvexHullV@Gu@physx@@@Gu@physx@@UEBA?AT__m128@@XZ 0000000180026f70 f i GuMTD.obj
 0001:00025f70       ?getSweepMargin@?$LocalConvex@UCustomConvexV@@@Gu@physx@@UEBA?AT__m128@@XZ 0000000180026f70 f i GuGjkQuery.obj
 0001:00025f70       ?getSweepMargin@?$RelativeConvex@VConvexHullNoScaleV@Gu@physx@@@Gu@physx@@UEBA?AT__m128@@XZ 0000000180026f70 f i GuPCMContactConvexConvex.obj
 0001:00025f70       ?getSweepMargin@?$LocalConvex@VBoxV@Gu@physx@@@Gu@physx@@UEBA?AT__m128@@XZ 0000000180026f70 f i GuSweepTests.obj
 0001:00025f70       ?getSweepMargin@?$RelativeConvex@UCustomConvexV@@@Gu@physx@@UEBA?AT__m128@@XZ 0000000180026f70 f i GuGjkQuery.obj
 0001:00025f70       ?getSweepMargin@?$LocalConvex@UPointConvexV@@@Gu@physx@@UEBA?AT__m128@@XZ 0000000180026f70 f i GuGjkQuery.obj
 0001:00025f70       ?getSweepMargin@?$RelativeConvex@VBoxV@Gu@physx@@@Gu@physx@@UEBA?AT__m128@@XZ 0000000180026f70 f i GuOverlapTests.obj
 0001:00025f70       ?getSweepMargin@?$LocalConvex@VConvexHullNoScaleV@Gu@physx@@@Gu@physx@@UEBA?AT__m128@@XZ 0000000180026f70 f i GuPCMContactBoxConvex.obj
 0001:00025f90       ?getSweepMargin@GjkConvex@Gu@physx@@UEBA?AT__m128@@XZ 0000000180026f90 f i GuMTD.obj
 0001:00025fb0       ?pointConvexDistance@@YA_NAEAV?$PxVec3T@M@physx@@0AEAMAEBV12@PEBVConvexMesh@Gu@2@AEBVPxMeshScale@2@AEBV?$PxTransformT@M@2@@Z 0000000180026fb0 f   GuMTD.obj
 0001:00026d10       ?reset@SeparatingAxes@Gu@physx@@QEAAXXZ 0000000180027d10 f i GuMTD.obj
 0001:00026d20       ?support@?$LocalConvex@VCapsuleV@Gu@physx@@@Gu@physx@@UEBA?AT__m128@@AEBT4@@Z 0000000180027d20 f i GuMTD.obj
 0001:00026d80       ?support@?$LocalConvex@VCapsuleV@Gu@physx@@@Gu@physx@@UEBA?AT__m128@@AEBT4@AEAH@Z 0000000180027d80 f i GuMTD.obj
 0001:00026df0       ?support@?$LocalConvex@VConvexHullV@Gu@physx@@@Gu@physx@@UEBA?AT__m128@@AEBT4@@Z 0000000180027df0 f i GuMTD.obj
 0001:00026ed0       ?support@?$LocalConvex@VConvexHullV@Gu@physx@@@Gu@physx@@UEBA?AT__m128@@AEBT4@AEAH@Z 0000000180027ed0 f i GuMTD.obj
 0001:00026fa0       ?support@GjkConvex@Gu@physx@@UEBA?AT__m128@@AEBT4@@Z 0000000180027fa0 f i GuMTD.obj
 0001:00026fc0       ?support@GjkConvex@Gu@physx@@UEBA?AT__m128@@AEBT4@AEAH@Z 0000000180027fc0 f i GuMTD.obj
 0001:00026fe0       ?supportPoint@?$LocalConvex@VCapsuleV@Gu@physx@@@Gu@physx@@UEBA?AT__m128@@H@Z 0000000180027fe0 f i GuMTD.obj
 0001:00027010       ?supportPoint@?$LocalConvex@VConvexHullV@Gu@physx@@@Gu@physx@@UEBA?AT__m128@@H@Z 0000000180028010 f i GuMTD.obj
 0001:00027060       ?supportPoint@GjkConvex@Gu@physx@@UEBA?AT__m128@@H@Z 0000000180028060 f i GuMTD.obj
 0001:00027080       ?supportPoint@?$RelativeConvex@VBoxV@Gu@physx@@@Gu@physx@@UEBA?AT__m128@@H@Z 0000000180028080 f i GuOverlapTests.obj
 0001:000270f0       ?support@?$RelativeConvex@VBoxV@Gu@physx@@@Gu@physx@@UEBA?AT__m128@@AEBT4@@Z 00000001800280f0 f i GuOverlapTests.obj
 0001:00027170       ?support@?$RelativeConvex@VBoxV@Gu@physx@@@Gu@physx@@UEBA?AT__m128@@AEBT4@AEAH@Z 0000000180028170 f i GuOverlapTests.obj
 0001:00027200       ?getCenter@?$RelativeConvex@VConvexHullNoScaleV@Gu@physx@@@Gu@physx@@UEBA?AT__m128@@XZ 0000000180028200 f i GuPCMContactConvexConvex.obj
 0001:00027200       ?getCenter@?$RelativeConvex@VBoxV@Gu@physx@@@Gu@physx@@UEBA?AT__m128@@XZ 0000000180028200 f i GuOverlapTests.obj
 0001:00027200       ?getCenter@?$RelativeConvex@VConvexHullV@Gu@physx@@@Gu@physx@@UEBA?AT__m128@@XZ 0000000180028200 f i GuOverlapTests.obj
 0001:00027200       ?getCenter@?$RelativeConvex@UCustomConvexV@@@Gu@physx@@UEBA?AT__m128@@XZ 0000000180028200 f i GuGjkQuery.obj
 0001:00027200       ?getCenter@?$RelativeConvex@VCapsuleV@Gu@physx@@@Gu@physx@@UEBA?AT__m128@@XZ 0000000180028200 f i GuCCDSweepPrimitives.obj
 0001:00027200       ?getCenter@?$RelativeConvex@VTriangleV@Gu@physx@@@Gu@physx@@UEBA?AT__m128@@XZ 0000000180028200 f i GuCCDSweepPrimitives.obj
 0001:00027240       ??_E?$RelativeConvex@VBoxV@Gu@physx@@@Gu@physx@@UEAAPEAXI@Z 0000000180028240 f i GuOverlapTests.obj
 0001:00027240       ??_G?$RelativeConvex@VTriangleV@Gu@physx@@@Gu@physx@@UEAAPEAXI@Z 0000000180028240 f i GuCCDSweepPrimitives.obj
 0001:00027240       ??_G?$RelativeConvex@VCapsuleV@Gu@physx@@@Gu@physx@@UEAAPEAXI@Z 0000000180028240 f i GuCCDSweepPrimitives.obj
 0001:00027240       ??_E?$RelativeConvex@VCapsuleV@Gu@physx@@@Gu@physx@@UEAAPEAXI@Z 0000000180028240 f i GuCCDSweepPrimitives.obj
 0001:00027240       ??_E?$RelativeConvex@VConvexHullNoScaleV@Gu@physx@@@Gu@physx@@UEAAPEAXI@Z 0000000180028240 f i GuPCMContactConvexConvex.obj
 0001:00027240       ??_G?$RelativeConvex@UCustomConvexV@@@Gu@physx@@UEAAPEAXI@Z 0000000180028240 f i GuGjkQuery.obj
 0001:00027240       ??_G?$RelativeConvex@VConvexHullNoScaleV@Gu@physx@@@Gu@physx@@UEAAPEAXI@Z 0000000180028240 f i GuPCMContactConvexConvex.obj
 0001:00027240       ??_G?$RelativeConvex@VConvexHullV@Gu@physx@@@Gu@physx@@UEAAPEAXI@Z 0000000180028240 f i GuOverlapTests.obj
 0001:00027240       ??_E?$RelativeConvex@UCustomConvexV@@@Gu@physx@@UEAAPEAXI@Z 0000000180028240 f i GuGjkQuery.obj
 0001:00027240       ??_G?$RelativeConvex@VBoxV@Gu@physx@@@Gu@physx@@UEAAPEAXI@Z 0000000180028240 f i GuOverlapTests.obj
 0001:00027240       ??_E?$RelativeConvex@VTriangleV@Gu@physx@@@Gu@physx@@UEAAPEAXI@Z 0000000180028240 f i GuCCDSweepPrimitives.obj
 0001:00027240       ??_E?$RelativeConvex@VConvexHullV@Gu@physx@@@Gu@physx@@UEAAPEAXI@Z 0000000180028240 f i GuOverlapTests.obj
 0001:000293b0       ?supportPoint@?$RelativeConvex@VConvexHullV@Gu@physx@@@Gu@physx@@UEBA?AT__m128@@H@Z 000000018002a3b0 f i GuOverlapTests.obj
 0001:00029430       ?support@?$RelativeConvex@VConvexHullV@Gu@physx@@@Gu@physx@@UEBA?AT__m128@@AEBT4@@Z 000000018002a430 f i GuOverlapTests.obj
 0001:00029560       ?support@?$RelativeConvex@VConvexHullV@Gu@physx@@@Gu@physx@@UEBA?AT__m128@@AEBT4@AEAH@Z 000000018002a560 f i GuOverlapTests.obj
 0001:00029730       ??$gjk@U?$RelativeConvex@VBoxV@Gu@physx@@@Gu@physx@@U?$LocalConvex@VConvexHullV@Gu@physx@@@23@@Gu@physx@@YA?AW4GjkStatus@01@AEBU?$RelativeConvex@VBoxV@Gu@physx@@@01@AEBU?$LocalConvex@VConvexHullV@Gu@physx@@@01@AEBT__m128@@2AEAT5@333@Z 000000018002a730 f i GuOverlapTests.obj
 0001:0002a4f0       ??$gjk@U?$RelativeConvex@VConvexHullV@Gu@physx@@@Gu@physx@@U?$LocalConvex@VConvexHullV@Gu@physx@@@23@@Gu@physx@@YA?AW4GjkStatus@01@AEBU?$RelativeConvex@VConvexHullV@Gu@physx@@@01@AEBU?$LocalConvex@VConvexHullV@Gu@physx@@@01@AEBT__m128@@2AEAT5@333@Z 000000018002b4f0 f i GuOverlapTests.obj
 0001:0002b370       ?ComputeCubemapNearestOffset@physx@@YAIAEBV?$PxVec3T@M@1@I@Z 000000018002c370 f i GuOverlapTests.obj
 0001:0002b470       ?getOverlapFuncTable@Gu@physx@@YAPEAY0L@Q6A_NAEBVPxGeometry@2@AEBV?$PxTransformT@M@2@01PEAUTriggerCache@12@PEAUPxQueryThreadContext@2@@ZXZ 000000018002c470 f   GuOverlapTests.obj
 0001:0002d010       ?registerHeightFields@Gu@physx@@YAXXZ 000000018002e010 f   GuOverlapTests.obj
 0001:0002d060       ?raycast_box@@YAIAEBVPxGeometry@physx@@AEBV?$PxTransformT@M@2@AEBV?$PxVec3T@M@2@2MV?$PxFlags@W4Enum@PxHitFlag@physx@@G@2@IPEIAUPxGeomRaycastHit@2@IPEAUPxQueryThreadContext@2@@Z 000000018002e060 f   GuRaycastTests.obj
 0001:0002d690       ?raycast_sphere@@YAIAEBVPxGeometry@physx@@AEBV?$PxTransformT@M@2@AEBV?$PxVec3T@M@2@2MV?$PxFlags@W4Enum@PxHitFlag@physx@@G@2@IPEIAUPxGeomRaycastHit@2@IPEAUPxQueryThreadContext@2@@Z 000000018002e690 f   GuRaycastTests.obj
 0001:0002d820       ?raycast_capsule@@YAIAEBVPxGeometry@physx@@AEBV?$PxTransformT@M@2@AEBV?$PxVec3T@M@2@2MV?$PxFlags@W4Enum@PxHitFlag@physx@@G@2@IPEIAUPxGeomRaycastHit@2@IPEAUPxQueryThreadContext@2@@Z 000000018002e820 f   GuRaycastTests.obj
 0001:0002dd80       ?raycast_plane@@YAIAEBVPxGeometry@physx@@AEBV?$PxTransformT@M@2@AEBV?$PxVec3T@M@2@2MV?$PxFlags@W4Enum@PxHitFlag@physx@@G@2@IPEIAUPxGeomRaycastHit@2@IPEAUPxQueryThreadContext@2@@Z 000000018002ed80 f   GuRaycastTests.obj
 0001:0002def0       ?raycast_convexMesh@@YAIAEBVPxGeometry@physx@@AEBV?$PxTransformT@M@2@AEBV?$PxVec3T@M@2@2MV?$PxFlags@W4Enum@PxHitFlag@physx@@G@2@IPEIAUPxGeomRaycastHit@2@IPEAUPxQueryThreadContext@2@@Z 000000018002eef0 f   GuRaycastTests.obj
 0001:0002ea00       ?getTetrahedraRemap@TetrahedronMesh@Gu@physx@@UEBAPEBIXZ 000000018002fa00 f   GuTetrahedronMesh.obj
 0001:0002ea00       ?raycast_softbody@@YAIAEBVPxGeometry@physx@@AEBV?$PxTransformT@M@2@AEBV?$PxVec3T@M@2@2MV?$PxFlags@W4Enum@PxHitFlag@physx@@G@2@IPEIAUPxGeomRaycastHit@2@IPEAUPxQueryThreadContext@2@@Z 000000018002fa00 f   GuRaycastTests.obj
 0001:0002ea00       ?raycast_hairsystem@@YAIAEBVPxGeometry@physx@@AEBV?$PxTransformT@M@2@AEBV?$PxVec3T@M@2@2MV?$PxFlags@W4Enum@PxHitFlag@physx@@G@2@IPEIAUPxGeomRaycastHit@2@IPEAUPxQueryThreadContext@2@@Z 000000018002fa00 f   GuRaycastTests.obj
 0001:0002ea00       ?getMidphaseID@RTreeTriangleMeshBuilder@physx@@UEBA?AW4Enum@PxMeshMidPhase@2@XZ 000000018002fa00 f   GuCookingTriangleMesh.obj
 0001:0002ea00       ?getMidphaseID@RTreeTriangleMesh@Gu@physx@@UEBA?AW4Enum@PxMeshMidPhase@3@XZ 000000018002fa00 f   GuTriangleMeshRTree.obj
 0001:0002ea00       ?raycast_particlesystem@@YAIAEBVPxGeometry@physx@@AEBV?$PxTransformT@M@2@AEBV?$PxVec3T@M@2@2MV?$PxFlags@W4Enum@PxHitFlag@physx@@G@2@IPEIAUPxGeomRaycastHit@2@IPEAUPxQueryThreadContext@2@@Z 000000018002fa00 f   GuRaycastTests.obj
 0001:0002ea10       ?raycast_triangleMesh@@YAIAEBVPxGeometry@physx@@AEBV?$PxTransformT@M@2@AEBV?$PxVec3T@M@2@2MV?$PxFlags@W4Enum@PxHitFlag@physx@@G@2@IPEIAUPxGeomRaycastHit@2@IPEAUPxQueryThreadContext@2@@Z 000000018002fa10 f   GuRaycastTests.obj
 0001:0002fdf0       ??Dphysx@@YA?AV?$PxMat34T@M@0@AEBVPxMeshScale@0@AEBV?$PxTransformT@M@0@@Z 0000000180030df0 f i GuRaycastTests.obj
 0001:000308d0       ?getRaycastFuncTable@Gu@physx@@YAAEAY0L@Q6AIAEBVPxGeometry@2@AEBV?$PxTransformT@M@2@AEBV?$PxVec3T@M@2@2MV?$PxFlags@W4Enum@PxHitFlag@physx@@G@2@IPEIAUPxGeomRaycastHit@2@IPEAUPxQueryThreadContext@2@@ZXZ 00000001800318d0 f   GuRaycastTests.obj
 0001:000308e0       ?raycast_heightField@@YAIAEBVPxGeometry@physx@@AEBV?$PxTransformT@M@2@AEBV?$PxVec3T@M@2@2MV?$PxFlags@W4Enum@PxHitFlag@physx@@G@2@IPEIAUPxGeomRaycastHit@2@IPEAUPxQueryThreadContext@2@@Z 00000001800318e0 f   GuRaycastTests.obj
 0001:00031020       ?registerHeightFields_Raycasts@@YAXXZ 0000000180032020 f   GuRaycastTests.obj
 0001:00031030       ??Dphysx@@YA?AV?$PxMat34T@M@0@AEBV?$PxTransformT@M@0@AEBVPxMeshScale@0@@Z 0000000180032030 f i GuSweepMTD.obj
 0001:00031570       ??_G?$MeshHitCallback@UPxGeomRaycastHit@physx@@@Gu@physx@@UEAAPEAXI@Z 0000000180032570 f i GuSweepMTD.obj
 0001:00031570       ??_E?$MeshHitCallback@UPxGeomRaycastHit@physx@@@Gu@physx@@UEAAPEAXI@Z 0000000180032570 f i GuSweepMTD.obj
 0001:000315a0       ??_GMeshMTDGenerationCallback@@UEAAPEAXI@Z 00000001800325a0 f i GuSweepMTD.obj
 0001:000315a0       ??_EMeshMTDGenerationCallback@@UEAAPEAXI@Z 00000001800325a0 f i GuSweepMTD.obj
 0001:000315d0       ??_EMidPhaseQueryLocalReport@@UEAAPEAXI@Z 00000001800325d0 f i GuSweepMTD.obj
 0001:000315d0       ??_GRTreeCookerRemap@@UEAAPEAXI@Z 00000001800325d0 f i GuCookingTriangleMesh.obj
 0001:000315d0       ??_ERTreeCookerRemap@@UEAAPEAXI@Z 00000001800325d0 f i GuCookingTriangleMesh.obj
 0001:000315d0       ??_GMidPhaseQueryLocalReport@@UEAAPEAXI@Z 00000001800325d0 f i GuSweepMTD.obj
 0001:00031600       ?allocate@?$PxArray@IV?$PxReflectionAllocator@I@physx@@@physx@@IEAAPEAII@Z 0000000180032600 f i GuSweepMTD.obj
 0001:000316b0       ?computeBox_HeightFieldMTD@Gu@physx@@YA_NAEBVPxHeightFieldGeometry@2@AEBV?$PxTransformT@M@2@AEBVBox@12@1M_NAEAUPxGeomSweepHit@2@@Z 00000001800326b0 f   GuSweepMTD.obj
 0001:00032430       ?computeBox_TriangleMeshMTD@Gu@physx@@YA_NAEBVPxTriangleMeshGeometry@2@AEBV?$PxTransformT@M@2@AEBVBox@12@1M_NAEAUPxGeomSweepHit@2@@Z 0000000180033430 f   GuSweepMTD.obj
 0001:000333e0       ?computeCapsule_CapsuleMTD@Gu@physx@@YA_NAEBVCapsule@12@0AEAUPxGeomSweepHit@2@@Z 00000001800343e0 f   GuSweepMTD.obj
 0001:00033620       ?computeCapsule_HeightFieldMTD@Gu@physx@@YA_NAEBVPxHeightFieldGeometry@2@AEBV?$PxTransformT@M@2@AEAVCapsuleV@12@M_NAEAUPxGeomSweepHit@2@@Z 0000000180034620 f   GuSweepMTD.obj
 0001:00033e00       ?computeCapsule_TriangleMeshMTD@Gu@physx@@YA_NAEBVPxTriangleMeshGeometry@2@AEBV?$PxTransformT@M@2@AEAVCapsuleV@12@M_NAEAUPxGeomSweepHit@2@@Z 0000000180034e00 f   GuSweepMTD.obj
 0001:000346c0       ?computeConvex_HeightFieldMTD@Gu@physx@@YA_NAEBVPxHeightFieldGeometry@2@AEBV?$PxTransformT@M@2@AEBVPxConvexMeshGeometry@2@1M_NAEAUPxGeomSweepHit@2@@Z 00000001800356c0 f   GuSweepMTD.obj
 0001:00035990       ?computeConvex_TriangleMeshMTD@Gu@physx@@YA_NAEBVPxTriangleMeshGeometry@2@AEBV?$PxTransformT@M@2@AEBVPxConvexMeshGeometry@2@1M_NAEAUPxGeomSweepHit@2@@Z 0000000180036990 f   GuSweepMTD.obj
 0001:00036f10       ?computePlane_BoxMTD@Gu@physx@@YA_NAEBVPxPlane@2@AEBVBox@12@AEAUPxGeomSweepHit@2@@Z 0000000180037f10 f   GuSweepMTD.obj
 0001:00037240       ?computePlane_CapsuleMTD@Gu@physx@@YA_NAEBVPxPlane@2@AEBVCapsule@12@AEAUPxGeomSweepHit@2@@Z 0000000180038240 f   GuSweepMTD.obj
 0001:00037360       ?computePlane_ConvexMTD@Gu@physx@@YA_NAEBVPxPlane@2@AEBVPxConvexMeshGeometry@2@AEBV?$PxTransformT@M@2@AEAUPxGeomSweepHit@2@@Z 0000000180038360 f   GuSweepMTD.obj
 0001:00037ed0       ?computeSphere_CapsuleMTD@Gu@physx@@YA_NAEBVSphere@12@AEBVCapsule@12@AEAUPxGeomSweepHit@2@@Z 0000000180038ed0 f   GuSweepMTD.obj
 0001:00038080       ?computeSphere_SphereMTD@Gu@physx@@YA_NAEBVSphere@12@0AEAUPxGeomSweepHit@2@@Z 0000000180039080 f   GuSweepMTD.obj
 0001:00038170       ?getInverse@?$PxMat33T@M@physx@@QEBA?BV12@XZ 0000000180039170 f i GuSweepMTD.obj
 0001:000383c0       ?growAndPushBack@?$PxArray@IV?$PxReflectionAllocator@I@physx@@@physx@@IEAAAEAIAEBI@Z 00000001800393c0 f i GuSweepMTD.obj
 0001:00038480       ?init@FastVertex2ShapeScaling@Cm@physx@@QEAAXAEBV?$PxVec3T@M@3@AEBV?$PxQuatT@M@3@@Z 0000000180039480 f i GuSweepMTD.obj
 0001:00038d50       ?processHit@MeshMTDGenerationCallback@@UEAA_NAEBUPxGeomRaycastHit@physx@@AEBV?$PxVec3T@M@3@11AEAMPEBI@Z 0000000180039d50 f i GuSweepMTD.obj
 0001:00038da0       ?recreate@?$PxArray@IV?$PxReflectionAllocator@I@physx@@@physx@@IEAAXI@Z 0000000180039da0 f i GuSweepMTD.obj
 0001:00038e40       ?reportTouchedTris@MidPhaseQueryLocalReport@@UEAA_NIPEBI@Z 0000000180039e40 f i GuSweepMTD.obj
 0001:00038eb0       ??$gjkPenetration@U?$LocalConvex@VCapsuleV@Gu@physx@@@Gu@physx@@U?$LocalConvex@VConvexHullV@Gu@physx@@@23@@Gu@physx@@YA?AW4GjkStatus@01@AEBU?$LocalConvex@VCapsuleV@Gu@physx@@@01@AEBU?$LocalConvex@VConvexHullV@Gu@physx@@@01@AEBT__m128@@2_NPEIAE4AEAEAEAUGjkOutput@01@@Z 0000000180039eb0 f i GuSweepSharedTests.obj
 0001:00038f20       ??$gjkPenetration@U?$LocalConvex@VCapsuleV@Gu@physx@@@Gu@physx@@U?$LocalConvex@VConvexHullV@Gu@physx@@@23@@Gu@physx@@YA?AW4GjkStatus@01@AEBU?$LocalConvex@VCapsuleV@Gu@physx@@@01@AEBU?$LocalConvex@VConvexHullV@Gu@physx@@@01@AEBT__m128@@2_NPEIAE4PEIAT5@5AEAEAEAUGjkOutput@01@@Z 0000000180039f20 f i GuSweepSharedTests.obj
 0001:0003a440       ??$gjkPenetration@U?$RelativeConvex@VBoxV@Gu@physx@@@Gu@physx@@U?$LocalConvex@VConvexHullV@Gu@physx@@@23@@Gu@physx@@YA?AW4GjkStatus@01@AEBU?$RelativeConvex@VBoxV@Gu@physx@@@01@AEBU?$LocalConvex@VConvexHullV@Gu@physx@@@01@AEBT__m128@@2_NPEIAE4AEAEAEAUGjkOutput@01@@Z 000000018003b440 f i GuSweepSharedTests.obj
 0001:0003a4b0       ??$gjkPenetration@U?$RelativeConvex@VBoxV@Gu@physx@@@Gu@physx@@U?$LocalConvex@VConvexHullV@Gu@physx@@@23@@Gu@physx@@YA?AW4GjkStatus@01@AEBU?$RelativeConvex@VBoxV@Gu@physx@@@01@AEBU?$LocalConvex@VConvexHullV@Gu@physx@@@01@AEBT__m128@@2_NPEIAE4PEIAT5@5AEAEAEAUGjkOutput@01@@Z 000000018003b4b0 f i GuSweepSharedTests.obj
 0001:0003ba10       ??$gjkPenetration@U?$RelativeConvex@VConvexHullV@Gu@physx@@@Gu@physx@@U?$LocalConvex@VConvexHullV@Gu@physx@@@23@@Gu@physx@@YA?AW4GjkStatus@01@AEBU?$RelativeConvex@VConvexHullV@Gu@physx@@@01@AEBU?$LocalConvex@VConvexHullV@Gu@physx@@@01@AEBT__m128@@2_NPEIAE4AEAEAEAUGjkOutput@01@@Z 000000018003ca10 f i GuSweepSharedTests.obj
 0001:0003ba80       ??$gjkPenetration@U?$RelativeConvex@VConvexHullV@Gu@physx@@@Gu@physx@@U?$LocalConvex@VConvexHullV@Gu@physx@@@23@@Gu@physx@@YA?AW4GjkStatus@01@AEBU?$RelativeConvex@VConvexHullV@Gu@physx@@@01@AEBU?$LocalConvex@VConvexHullV@Gu@physx@@@01@AEBT__m128@@2_NPEIAE4PEIAT5@5AEAEAEAUGjkOutput@01@@Z 000000018003ca80 f i GuSweepSharedTests.obj
 0001:0003d090       ??$gjkRaycast@U?$LocalConvex@VCapsuleV@Gu@physx@@@Gu@physx@@U?$LocalConvex@VConvexHullV@Gu@physx@@@23@@Gu@physx@@YA_NAEBU?$LocalConvex@VCapsuleV@Gu@physx@@@01@AEBU?$LocalConvex@VConvexHullV@Gu@physx@@@01@AEBT__m128@@222AEAT4@33M@Z 000000018003e090 f i GuSweepSharedTests.obj
 0001:0003dda0       ??$gjkRaycast@U?$RelativeConvex@VBoxV@Gu@physx@@@Gu@physx@@U?$LocalConvex@VConvexHullV@Gu@physx@@@23@@Gu@physx@@YA_NAEBU?$RelativeConvex@VBoxV@Gu@physx@@@01@AEBU?$LocalConvex@VConvexHullV@Gu@physx@@@01@AEBT__m128@@222AEAT4@33M@Z 000000018003eda0 f i GuSweepSharedTests.obj
 0001:0003eb50       ??$gjkRaycast@U?$RelativeConvex@VConvexHullV@Gu@physx@@@Gu@physx@@U?$LocalConvex@VConvexHullV@Gu@physx@@@23@@Gu@physx@@YA_NAEBU?$RelativeConvex@VConvexHullV@Gu@physx@@@01@AEBU?$LocalConvex@VConvexHullV@Gu@physx@@@01@AEBT__m128@@222AEAT4@33M@Z 000000018003fb50 f i GuSweepSharedTests.obj
 0001:0003f9f0       ??$gjkRaycastPenetration@U?$RelativeConvex@VConvexHullV@Gu@physx@@@Gu@physx@@U?$LocalConvex@VConvexHullV@Gu@physx@@@23@@Gu@physx@@YA_NAEBU?$RelativeConvex@VConvexHullV@Gu@physx@@@01@AEBU?$LocalConvex@VConvexHullV@Gu@physx@@@01@AEBT__m128@@222AEAT4@33M_N@Z 00000001800409f0 f i GuSweepSharedTests.obj
 0001:00040620       ?sweepBox_ConvexGeom@@YA_NAEBVPxGeometry@physx@@AEBV?$PxTransformT@M@2@AEBVPxBoxGeometry@2@1AEBVBox@Gu@2@AEBV?$PxVec3T@M@2@MAEAUPxGeomSweepHit@2@V?$PxFlags@W4Enum@PxHitFlag@physx@@G@2@MPEAUPxQueryThreadContext@2@@Z 0000000180041620 f   GuSweepSharedTests.obj
 0001:00041420       ?sweepBox_PlaneGeom@@YA_NAEBVPxGeometry@physx@@AEBV?$PxTransformT@M@2@AEBVPxBoxGeometry@2@1AEBVBox@Gu@2@AEBV?$PxVec3T@M@2@MAEAUPxGeomSweepHit@2@V?$PxFlags@W4Enum@PxHitFlag@physx@@G@2@MPEAUPxQueryThreadContext@2@@Z 0000000180042420 f   GuSweepSharedTests.obj
 0001:000418c0       ?sweepCapsuleTriangles@Gu@physx@@YA_NIPEBVPxTriangle@2@_NAEBVPxCapsuleGeometry@2@AEBV?$PxTransformT@M@2@AEBV?$PxVec3T@M@2@MAEAUPxGeomSweepHit@2@PEBIMV?$PxFlags@W4Enum@PxHitFlag@physx@@G@2@@Z 00000001800428c0 f   GuSweepSharedTests.obj
 0001:00041ab0       ?sweepCapsule_CapsuleGeom@@YA_NAEBVPxGeometry@physx@@AEBV?$PxTransformT@M@2@AEBVPxCapsuleGeometry@2@1AEBVCapsule@Gu@2@AEBV?$PxVec3T@M@2@MAEAUPxGeomSweepHit@2@V?$PxFlags@W4Enum@PxHitFlag@physx@@G@2@MPEAUPxQueryThreadContext@2@@Z 0000000180042ab0 f   GuSweepSharedTests.obj
 0001:00041c90       ?sweepCapsule_ConvexGeom@@YA_NAEBVPxGeometry@physx@@AEBV?$PxTransformT@M@2@AEBVPxCapsuleGeometry@2@1AEBVCapsule@Gu@2@AEBV?$PxVec3T@M@2@MAEAUPxGeomSweepHit@2@V?$PxFlags@W4Enum@PxHitFlag@physx@@G@2@MPEAUPxQueryThreadContext@2@@Z 0000000180042c90 f   GuSweepSharedTests.obj
 0001:000429e0       ?sweepCapsule_PlaneGeom@@YA_NAEBVPxGeometry@physx@@AEBV?$PxTransformT@M@2@AEBVPxCapsuleGeometry@2@1AEBVCapsule@Gu@2@AEBV?$PxVec3T@M@2@MAEAUPxGeomSweepHit@2@V?$PxFlags@W4Enum@PxHitFlag@physx@@G@2@MPEAUPxQueryThreadContext@2@@Z 00000001800439e0 f   GuSweepSharedTests.obj
 0001:00042cd0       ?sweepCapsule_SphereGeom@@YA_NAEBVPxGeometry@physx@@AEBV?$PxTransformT@M@2@AEBVPxCapsuleGeometry@2@1AEBVCapsule@Gu@2@AEBV?$PxVec3T@M@2@MAEAUPxGeomSweepHit@2@V?$PxFlags@W4Enum@PxHitFlag@physx@@G@2@MPEAUPxQueryThreadContext@2@@Z 0000000180043cd0 f   GuSweepSharedTests.obj
 0001:00042e60       ?sweepConvex_BoxGeom@@YA_NAEBVPxGeometry@physx@@AEBV?$PxTransformT@M@2@AEBVPxConvexMeshGeometry@2@1AEBV?$PxVec3T@M@2@MAEAUPxGeomSweepHit@2@V?$PxFlags@W4Enum@PxHitFlag@physx@@G@2@MPEAUPxQueryThreadContext@2@@Z 0000000180043e60 f   GuSweepSharedTests.obj
 0001:00043080       ?sweepConvex_CapsuleGeom@@YA_NAEBVPxGeometry@physx@@AEBV?$PxTransformT@M@2@AEBVPxConvexMeshGeometry@2@1AEBV?$PxVec3T@M@2@MAEAUPxGeomSweepHit@2@V?$PxFlags@W4Enum@PxHitFlag@physx@@G@2@MPEAUPxQueryThreadContext@2@@Z 0000000180044080 f   GuSweepSharedTests.obj
 0001:000432b0       ?sweepConvex_ConvexGeom@@YA_NAEBVPxGeometry@physx@@AEBV?$PxTransformT@M@2@AEBVPxConvexMeshGeometry@2@1AEBV?$PxVec3T@M@2@MAEAUPxGeomSweepHit@2@V?$PxFlags@W4Enum@PxHitFlag@physx@@G@2@MPEAUPxQueryThreadContext@2@@Z 00000001800442b0 f   GuSweepSharedTests.obj
 0001:00044220       ?sweepConvex_PlaneGeom@@YA_NAEBVPxGeometry@physx@@AEBV?$PxTransformT@M@2@AEBVPxConvexMeshGeometry@2@1AEBV?$PxVec3T@M@2@MAEAUPxGeomSweepHit@2@V?$PxFlags@W4Enum@PxHitFlag@physx@@G@2@MPEAUPxQueryThreadContext@2@@Z 0000000180045220 f   GuSweepSharedTests.obj
 0001:00044670       ?sweepConvex_SphereGeom@@YA_NAEBVPxGeometry@physx@@AEBV?$PxTransformT@M@2@AEBVPxConvexMeshGeometry@2@1AEBV?$PxVec3T@M@2@MAEAUPxGeomSweepHit@2@V?$PxFlags@W4Enum@PxHitFlag@physx@@G@2@MPEAUPxQueryThreadContext@2@@Z 0000000180045670 f   GuSweepSharedTests.obj
 0001:00045270       ?sweepCapsule_BoxGeom@@YA_NAEBVPxGeometry@physx@@AEBV?$PxTransformT@M@2@AEBVPxCapsuleGeometry@2@1AEBVCapsule@Gu@2@AEBV?$PxVec3T@M@2@MAEAUPxGeomSweepHit@2@V?$PxFlags@W4Enum@PxHitFlag@physx@@G@2@MPEAUPxQueryThreadContext@2@@Z 0000000180046270 f   GuSweepTests.obj
 0001:00045b20       ?sweepBox_SphereGeom@@YA_NAEBVPxGeometry@physx@@AEBV?$PxTransformT@M@2@AEBVPxBoxGeometry@2@1AEBVBox@Gu@2@AEBV?$PxVec3T@M@2@MAEAUPxGeomSweepHit@2@V?$PxFlags@W4Enum@PxHitFlag@physx@@G@2@MPEAUPxQueryThreadContext@2@@Z 0000000180046b20 f   GuSweepTests.obj
 0001:00046200       ?sweepBox_CapsuleGeom@@YA_NAEBVPxGeometry@physx@@AEBV?$PxTransformT@M@2@AEBVPxBoxGeometry@2@1AEBVBox@Gu@2@AEBV?$PxVec3T@M@2@MAEAUPxGeomSweepHit@2@V?$PxFlags@W4Enum@PxHitFlag@physx@@G@2@MPEAUPxQueryThreadContext@2@@Z 0000000180047200 f   GuSweepTests.obj
 0001:00046ab0       ?sweepBox_BoxGeom@@YA_NAEBVPxGeometry@physx@@AEBV?$PxTransformT@M@2@AEBVPxBoxGeometry@2@1AEBVBox@Gu@2@AEBV?$PxVec3T@M@2@MAEAUPxGeomSweepHit@2@V?$PxFlags@W4Enum@PxHitFlag@physx@@G@2@MPEAUPxQueryThreadContext@2@@Z 0000000180047ab0 f   GuSweepTests.obj
 0001:00047590       ??$gjkPenetration@U?$LocalConvex@VCapsuleV@Gu@physx@@@Gu@physx@@U?$LocalConvex@VBoxV@Gu@physx@@@23@@Gu@physx@@YA?AW4GjkStatus@01@AEBU?$LocalConvex@VCapsuleV@Gu@physx@@@01@AEBU?$LocalConvex@VBoxV@Gu@physx@@@01@AEBT__m128@@2_NPEIAE4AEAEAEAUGjkOutput@01@@Z 0000000180048590 f i GuSweepTests.obj
 0001:00047600       ??$gjkPenetration@U?$LocalConvex@VCapsuleV@Gu@physx@@@Gu@physx@@U?$LocalConvex@VBoxV@Gu@physx@@@23@@Gu@physx@@YA?AW4GjkStatus@01@AEBU?$LocalConvex@VCapsuleV@Gu@physx@@@01@AEBU?$LocalConvex@VBoxV@Gu@physx@@@01@AEBT__m128@@2_NPEIAE4PEIAT5@5AEAEAEAUGjkOutput@01@@Z 0000000180048600 f i GuSweepTests.obj
 0001:00048a40       ??$gjkPenetration@U?$RelativeConvex@VBoxV@Gu@physx@@@Gu@physx@@U?$LocalConvex@VBoxV@Gu@physx@@@23@@Gu@physx@@YA?AW4GjkStatus@01@AEBU?$RelativeConvex@VBoxV@Gu@physx@@@01@AEBU?$LocalConvex@VBoxV@Gu@physx@@@01@AEBT__m128@@2_NPEIAE4AEAEAEAUGjkOutput@01@@Z 0000000180049a40 f i GuSweepTests.obj
 0001:00048ab0       ??$gjkPenetration@U?$RelativeConvex@VBoxV@Gu@physx@@@Gu@physx@@U?$LocalConvex@VBoxV@Gu@physx@@@23@@Gu@physx@@YA?AW4GjkStatus@01@AEBU?$RelativeConvex@VBoxV@Gu@physx@@@01@AEBU?$LocalConvex@VBoxV@Gu@physx@@@01@AEBT__m128@@2_NPEIAE4PEIAT5@5AEAEAEAUGjkOutput@01@@Z 0000000180049ab0 f i GuSweepTests.obj
 0001:00049f40       ??$gjkRaycast@U?$LocalConvex@VCapsuleV@Gu@physx@@@Gu@physx@@U?$LocalConvex@VBoxV@Gu@physx@@@23@@Gu@physx@@YA_NAEBU?$LocalConvex@VCapsuleV@Gu@physx@@@01@AEBU?$LocalConvex@VBoxV@Gu@physx@@@01@AEBT__m128@@222AEAT4@33M@Z 000000018004af40 f i GuSweepTests.obj
 0001:0004aae0       ??$gjkRaycast@U?$LocalConvex@VTriangleV@Gu@physx@@@Gu@physx@@U?$LocalConvex@VBoxV@Gu@physx@@@23@@Gu@physx@@YA_NAEBU?$LocalConvex@VTriangleV@Gu@physx@@@01@AEBU?$LocalConvex@VBoxV@Gu@physx@@@01@AEBT__m128@@222AEAT4@33M@Z 000000018004bae0 f i GuSweepTests.obj
 0001:0004b740       ??$gjkRaycast@U?$RelativeConvex@VBoxV@Gu@physx@@@Gu@physx@@U?$LocalConvex@VBoxV@Gu@physx@@@23@@Gu@physx@@YA_NAEBU?$RelativeConvex@VBoxV@Gu@physx@@@01@AEBU?$LocalConvex@VBoxV@Gu@physx@@@01@AEBT__m128@@222AEAT4@33M@Z 000000018004c740 f i GuSweepTests.obj
 0001:0004c370       ?getSweepFuncTable@Gu@physx@@YAAEBUGeomSweepFuncs@12@XZ 000000018004d370 f   GuSweepTests.obj
 0001:0004c380       ?getSweepMargin@?$LocalConvex@VTriangleV@Gu@physx@@@Gu@physx@@UEBA?AT__m128@@XZ 000000018004d380 f i GuSweepTests.obj
 0001:0004c380       ?getSweepMargin@?$LocalConvex@VTetrahedronV@Gu@physx@@@Gu@physx@@UEBA?AT__m128@@XZ 000000018004d380 f i GuCookingTetrahedronMesh.obj
 0001:0004c380       ?getSweepMargin@?$RelativeConvex@VTriangleV@Gu@physx@@@Gu@physx@@UEBA?AT__m128@@XZ 000000018004d380 f i GuCCDSweepPrimitives.obj
 0001:0004c390       ?registerHeightFields_Sweeps@@YAXXZ 000000018004d390 f   GuSweepTests.obj
 0001:0004c3d0       ?support@?$LocalConvex@VBoxV@Gu@physx@@@Gu@physx@@UEBA?AT__m128@@AEBT4@@Z 000000018004d3d0 f i GuSweepTests.obj
 0001:0004c400       ?support@?$LocalConvex@VBoxV@Gu@physx@@@Gu@physx@@UEBA?AT__m128@@AEBT4@AEAH@Z 000000018004d400 f i GuSweepTests.obj
 0001:0004c440       ?support@?$LocalConvex@VTriangleV@Gu@physx@@@Gu@physx@@UEBA?AT__m128@@AEBT4@@Z 000000018004d440 f i GuSweepTests.obj
 0001:0004c4d0       ?support@?$LocalConvex@VTriangleV@Gu@physx@@@Gu@physx@@UEBA?AT__m128@@AEBT4@AEAH@Z 000000018004d4d0 f i GuSweepTests.obj
 0001:0004c5b0       ?supportPoint@?$LocalConvex@VBoxV@Gu@physx@@@Gu@physx@@UEBA?AT__m128@@H@Z 000000018004d5b0 f i GuSweepTests.obj
 0001:0004c5f0       ?supportPoint@?$LocalConvex@VTetrahedronV@Gu@physx@@@Gu@physx@@UEBA?AT__m128@@H@Z 000000018004d5f0 f i GuCookingTetrahedronMesh.obj
 0001:0004c5f0       ?supportPoint@?$LocalConvex@VTriangleV@Gu@physx@@@Gu@physx@@UEBA?AT__m128@@H@Z 000000018004d5f0 f i GuSweepTests.obj
 0001:0004c610       ?sweepBoxTriangles@Gu@physx@@YA_NIPEBVPxTriangle@2@_NAEBVPxBoxGeometry@2@AEBV?$PxTransformT@M@2@AEBV?$PxVec3T@M@2@MAEAUPxGeomSweepHit@2@PEBIMV?$PxFlags@W4Enum@PxHitFlag@physx@@G@2@@Z 000000018004d610 f   GuSweepTests.obj
 0001:0004d080       ??$traverseBVH@VClosestDistanceToTrimeshTraversalController@Gu@physx@@@Gu@physx@@YAXPEBUBVHNode@01@AEAVClosestDistanceToTrimeshTraversalController@01@H@Z 000000018004e080 f i GuSDF.obj
 0001:0004d4a0       ??$traverseBVH@VLineSegmentTrimeshIntersectionTraversalController@Gu@physx@@@Gu@physx@@YAXPEBUBVHNode@01@AEAVLineSegmentTrimeshIntersectionTraversalController@01@H@Z 000000018004e4a0 f i GuSDF.obj
 0001:0004d9b0       ??1SDF@Gu@physx@@QEAA@XZ   000000018004e9b0 f   GuSDF.obj
 0001:0004da40       ??_E?$PxThreadT@V?$PxReflectionAllocator@VPxThreadImpl@physx@@@physx@@@physx@@UEAAPEAXI@Z 000000018004ea40 f i GuSDF.obj
 0001:0004da40       ??_G?$PxThreadT@V?$PxReflectionAllocator@VPxThreadImpl@physx@@@physx@@@physx@@UEAAPEAXI@Z 000000018004ea40 f i GuSDF.obj
 0001:0004dae0       ??_GPxRunnable@physx@@UEAAPEAXI@Z 000000018004eae0 f i GuSDF.obj
 0001:0004dae0       ??_EPxRunnable@physx@@UEAAPEAXI@Z 000000018004eae0 f i GuSDF.obj
 0001:0004db10       ?SDFUsingWindingNumbers@Gu@physx@@YAXAEAV?$PxArray@UBVHNode@Gu@physx@@V?$PxReflectionAllocator@UBVHNode@Gu@physx@@@3@@2@AEAV?$PxHashMap@IU?$ClusterApproximationT@MV?$PxVec3T@M@physx@@@Gu@physx@@U?$PxHash@I@3@VPxAllocator@3@@2@PEBV?$PxVec3T@M@2@PEBIIIIIPEAMAEAVGridQueryPointSampler@12@PEAV52@I_N7@Z 000000018004eb10 f   GuSDF.obj
 0001:0004e010       ?SDFUsingWindingNumbers@Gu@physx@@YAXPEBV?$PxVec3T@M@2@PEBIIIIIPEAMV32@3PEAV32@_NI@Z 000000018004f010 f   GuSDF.obj
 0001:0004e320       ?SDFUsingWindingNumbersSparse@Gu@physx@@YAXPEBV?$PxVec3T@M@2@PEBIIIIIAEBV32@2MIAEAV?$PxArray@MV?$PxReflectionAllocator@M@physx@@@2@AEAV?$PxArray@IV?$PxReflectionAllocator@I@physx@@@2@33AEAM5I@Z 000000018004f320 f   GuSDF.obj
 0001:0004f140       ?allocate@?$PxArray@HV?$PxInlineAllocator@$0EAA@V?$PxReflectionAllocator@H@physx@@@physx@@@physx@@IEAAPEAHI@Z 0000000180050140 f i GuSDF.obj
 0001:0004f210       ?allocate@?$PxArray@MV?$PxReflectionAllocator@M@physx@@@physx@@IEAAPEAMI@Z 0000000180050210 f i GuSDF.obj
 0001:0004f2c0       ?allocateSdfs@SDF@Gu@physx@@QEAAPEAMAEBV?$PxVec3T@M@3@AEBMIIIIIIIMMI@Z 00000001800502c0 f   GuSDF.obj
 0001:0004f4d0       ?buildTree@Gu@physx@@YAXPEBIIPEBV?$PxVec3T@M@2@AEAV?$PxArray@UBVHNode@Gu@physx@@V?$PxReflectionAllocator@UBVHNode@Gu@physx@@@3@@2@M@Z 00000001800504d0 f   GuSDF.obj
 0001:0004f700       ?computeSDFThreadJob@Gu@physx@@YAPEAXPEAX@Z 0000000180050700 f   GuSDF.obj
 0001:000501e0       ?convertSparseSDFTo3DTextureLayout@Gu@physx@@YAXIIIIPEAIPEBMIAEAV?$PxArray@MV?$PxReflectionAllocator@M@physx@@@2@AEAI33@Z 00000001800511e0 f   GuSDF.obj
 0001:00050550       ?createTriangles@Gu@physx@@YAXHHHMQEAMAEBV?$PxHashMap@_KIU?$PxHash@_K@physx@@VPxAllocator@2@@2@AEBV?$PxArray@V?$PxVec3T@M@physx@@V?$PxReflectionAllocator@V?$PxVec3T@M@physx@@@2@@2@AEAV?$PxArray@IV?$PxReflectionAllocator@I@physx@@@2@@Z 0000000180051550 f   GuSDF.obj
 0001:00050d80       ?extractIsosurfaceFromSDF@Gu@physx@@YAXAEBVSDF@12@AEAV?$PxArray@V?$PxVec3T@M@physx@@V?$PxReflectionAllocator@V?$PxVec3T@M@physx@@@2@@2@AEAV?$PxArray@IV?$PxReflectionAllocator@I@physx@@@2@@Z 0000000180051d80 f   GuSDF.obj
 0001:00052dd0       ?fixSdfForNonClosedGeometry@Gu@physx@@YAXIIIPEAMAEBV?$PxVec3T@M@2@@Z 0000000180053dd0 f   GuSDF.obj
 0001:00053e80       ?generatePointInCell@Gu@physx@@YA_NAEBVSDF@12@HHHAEAV?$PxVec3T@M@2@QEAY111M@Z 0000000180054e80 f   GuSDF.obj
 0001:000542e0       ?growAndPushBack@?$PxArray@HV?$PxInlineAllocator@$0EAA@V?$PxReflectionAllocator@H@physx@@@physx@@@physx@@IEAAAEAHAEBH@Z 00000001800552e0 f i GuSDF.obj
 0001:000543d0       ?growAndPushBack@?$PxArray@MV?$PxReflectionAllocator@M@physx@@@physx@@IEAAAEAMAEBM@Z 00000001800553d0 f i GuSDF.obj
 0001:000544b0       ?growAndPushBack@?$PxArray@PEAV?$PxThreadT@V?$PxReflectionAllocator@VPxThreadImpl@physx@@@physx@@@physx@@V?$PxReflectionAllocator@PEAV?$PxThreadT@V?$PxReflectionAllocator@VPxThreadImpl@physx@@@physx@@@physx@@@2@@physx@@IEAAAEAPEAV?$PxThreadT@V?$PxReflectionAllocator@VPxThreadImpl@physx@@@physx@@@2@AEBQEAV32@@Z 00000001800554b0 f i GuSDF.obj
 0001:000545f0       ?growAndPushBack@?$PxArray@UMutation@Gu@physx@@V?$PxReflectionAllocator@UMutation@Gu@physx@@@3@@physx@@IEAAAEAUMutation@Gu@2@AEBU342@@Z 00000001800555f0 f i GuSDF.obj
 0001:00054750       ?growAndPushBack@?$PxArray@URange@Gu@physx@@V?$PxReflectionAllocator@URange@Gu@physx@@@3@@physx@@IEAAAEAURange@Gu@2@AEBU342@@Z 0000000180055750 f i GuSDF.obj
 0001:000548c0       ?growAndPushBack@?$PxArray@USDFCalculationData@Gu@physx@@V?$PxReflectionAllocator@USDFCalculationData@Gu@physx@@@3@@physx@@IEAAAEAUSDFCalculationData@Gu@2@AEBU342@@Z 00000001800558c0 f i GuSDF.obj
 0001:00054a70       ?growAndPushBack@?$PxArray@V?$PxVec3T@M@physx@@V?$PxReflectionAllocator@V?$PxVec3T@M@physx@@@2@@physx@@IEAAAEAV?$PxVec3T@M@2@AEBV32@@Z 0000000180055a70 f i GuSDF.obj
 0001:00054c60       ?recreate@?$PxArray@MV?$PxReflectionAllocator@M@physx@@@physx@@IEAAXI@Z 0000000180055c60 f i GuSDF.obj
 0001:00054d40       ?reserveInternal@?$PxHashBase@V?$PxPair@$$CBIU?$ClusterApproximationT@MV?$PxVec3T@M@physx@@@Gu@physx@@@physx@@IU?$PxHash@I@2@UGetKey@?$PxHashMapBase@IU?$ClusterApproximationT@MV?$PxVec3T@M@physx@@@Gu@physx@@U?$PxHash@I@3@VPxAllocator@3@@2@VPxAllocator@2@$00@physx@@AEAAXI@Z 0000000180055d40 f i GuSDF.obj
 0001:00054f50       ?reserveInternal@?$PxHashBase@V?$PxPair@$$CB_KI@physx@@_KU?$PxHash@_K@2@UGetKey@?$PxHashMapBase@_KIU?$PxHash@_K@physx@@VPxAllocator@2@@2@VPxAllocator@2@$00@physx@@AEAAXI@Z 0000000180055f50 f i GuSDF.obj
 0001:00054f50       ?reserveInternal@?$PxHashBase@V?$PxPair@$$CB_KH@physx@@_KU?$PxHash@_K@2@UGetKey@?$PxHashMapBase@_KHU?$PxHash@_K@physx@@VPxAllocator@2@@2@VPxAllocator@2@$00@physx@@AEAAXI@Z 0000000180055f50 f i GuMeshAnalysis.obj
 0001:00055140       ?resize@?$PxArray@MV?$PxReflectionAllocator@M@physx@@@physx@@QEAAXIAEBM@Z 0000000180056140 f i GuSDF.obj
 0001:00055250       ?sampleSDFDirect@?$DenseSDF@M@Gu@physx@@QEAAMAEBV?$PxVec3T@M@3@@Z 0000000180056250 f i GuSDF.obj
 0001:000553e0       ?windingNumbers@Gu@physx@@YAXPEBV?$PxVec3T@M@2@PEBIIIIIPEAMV32@3PEAV32@@Z 00000001800563e0 f   GuSDF.obj
 0001:00055770       ?windingNumbersInsideCheck@Gu@physx@@YAXPEBV?$PxVec3T@M@2@PEBIIIIIPEA_NV32@3PEAV32@@Z 0000000180056770 f   GuSDF.obj
 0001:000560b0       ??0MeshData@physx@@QEAA@AEBVPxTriangleMeshDesc@1@@Z 00000001800570b0 f i GuCookingSDF.obj
 0001:00056190       ?GetBounds@MeshData@physx@@QEBAXAEAV?$PxVec3T@M@2@0@Z 0000000180057190 f i GuCookingSDF.obj
 0001:00056430       ?buildSDF@physx@@YA_NAEAVPxTriangleMeshDesc@1@AEAV?$PxArray@MV?$PxReflectionAllocator@M@physx@@@1@AEAV?$PxArray@EV?$PxReflectionAllocator@E@physx@@@1@AEAV?$PxArray@IV?$PxReflectionAllocator@I@physx@@@1@@Z 0000000180057430 f   GuCookingSDF.obj
 0001:00056d60       ?quantizeSparseSDF@physx@@YAXW4Enum@PxSdfBitsPerSubgridPixel@1@AEBV?$PxArray@MV?$PxReflectionAllocator@M@physx@@@1@AEAV?$PxArray@EV?$PxReflectionAllocator@E@physx@@@1@MM@Z 0000000180057d60 f   GuCookingSDF.obj
 0001:00056e40       ?recreate@?$PxArray@EV?$PxReflectionAllocator@E@physx@@@physx@@IEAAXI@Z 0000000180057e40 f i GuCookingSDF.obj
 0001:00056f30       ?recreate@?$PxArray@V?$PxVec3T@M@physx@@V?$PxReflectionAllocator@V?$PxVec3T@M@physx@@@2@@physx@@IEAAXI@Z 0000000180057f30 f i GuCookingSDF.obj
 0001:00057100       ?resize@?$PxArray@EV?$PxReflectionAllocator@E@physx@@@physx@@QEAAXIAEBE@Z 0000000180058100 f i GuCookingSDF.obj
 0001:000571c0       ?resize@?$PxArray@IV?$PxReflectionAllocator@I@physx@@@physx@@QEAAXIAEBI@Z 00000001800581c0 f i GuCookingSDF.obj
 0001:00057280       ?resize@?$PxArray@V?$PxVec3T@M@physx@@V?$PxReflectionAllocator@V?$PxVec3T@M@physx@@@2@@physx@@QEAAXIAEBV?$PxVec3T@M@2@@Z 0000000180058280 f i GuCookingSDF.obj
 0001:00057370       ??$gjk@U?$RelativeConvex@UCustomConvexV@@@Gu@physx@@U?$LocalConvex@UCustomConvexV@@@23@@Gu@physx@@YA?AW4GjkStatus@01@AEBU?$RelativeConvex@UCustomConvexV@@@01@AEBU?$LocalConvex@UCustomConvexV@@@01@AEBT__m128@@2AEAT5@333@Z 0000000180058370 f i GuGjkQuery.obj
 0001:000580f0       ??$gjkPenetration@U?$RelativeConvex@UCustomConvexV@@@Gu@physx@@U?$LocalConvex@UCustomConvexV@@@23@@Gu@physx@@YA?AW4GjkStatus@01@AEBU?$RelativeConvex@UCustomConvexV@@@01@AEBU?$LocalConvex@UCustomConvexV@@@01@AEBT__m128@@2_NPEIAE4PEIAT5@5AEAEAEAUGjkOutput@01@@Z 00000001800590f0 f i GuGjkQuery.obj
 0001:00059630       ??$gjkPenetration@U?$RelativeConvex@UCustomConvexV@@@Gu@physx@@U?$LocalConvex@UCustomConvexV@@@23@@Gu@physx@@YA?AW4GjkStatus@01@AEBU?$RelativeConvex@UCustomConvexV@@@01@AEBU?$LocalConvex@UCustomConvexV@@@01@AEBT__m128@@2_NPEIAT5@4AEAEAEAUGjkOutput@01@@Z 000000018005a630 f i GuGjkQuery.obj
 0001:00059690       ??$gjkRaycast@U?$RelativeConvex@UCustomConvexV@@@Gu@physx@@U?$LocalConvex@UCustomConvexV@@@23@@Gu@physx@@YA_NAEBU?$RelativeConvex@UCustomConvexV@@@01@AEBU?$LocalConvex@UCustomConvexV@@@01@AEBT__m128@@222AEAT4@33M@Z 000000018005a690 f i GuGjkQuery.obj
 0001:0005a3e0       ??$gjkRaycast@U?$RelativeConvex@UCustomConvexV@@@Gu@physx@@U?$LocalConvex@UPointConvexV@@@23@@Gu@physx@@YA_NAEBU?$RelativeConvex@UCustomConvexV@@@01@AEBU?$LocalConvex@UPointConvexV@@@01@AEBT__m128@@222AEAT4@33M@Z 000000018005b3e0 f i GuGjkQuery.obj
 0001:0005b030       ?overlap@PxGjkQuery@physx@@SA_NAEBUSupport@12@0AEBV?$PxTransformT@M@2@1@Z 000000018005c030 f   GuGjkQuery.obj
 0001:0005b3b0       ?proximityInfo@PxGjkQuery@physx@@SA_NAEBUSupport@12@0AEBV?$PxTransformT@M@2@1MMAEAV?$PxVec3T@M@2@22AEAM@Z 000000018005c3b0 f   GuGjkQuery.obj
 0001:0005c0f0       ?raycast@PxGjkQuery@physx@@SA_NAEBUSupport@12@AEBV?$PxTransformT@M@2@AEBV?$PxVec3T@M@2@2MAEAMAEAV52@4@Z 000000018005d0f0 f   GuGjkQuery.obj
 0001:0005c590       ?support@?$LocalConvex@UCustomConvexV@@@Gu@physx@@UEBA?AT__m128@@AEBT4@@Z 000000018005d590 f i GuGjkQuery.obj
 0001:0005c610       ?support@?$LocalConvex@UCustomConvexV@@@Gu@physx@@UEBA?AT__m128@@AEBT4@AEAH@Z 000000018005d610 f i GuGjkQuery.obj
 0001:0005c690       ?support@?$LocalConvex@UPointConvexV@@@Gu@physx@@UEBA?AT__m128@@AEBT4@@Z 000000018005d690 f i GuGjkQuery.obj
 0001:0005c690       ?supportPoint@?$LocalConvex@UPointConvexV@@@Gu@physx@@UEBA?AT__m128@@H@Z 000000018005d690 f i GuGjkQuery.obj
 0001:0005c6a0       ?support@?$LocalConvex@UPointConvexV@@@Gu@physx@@UEBA?AT__m128@@AEBT4@AEAH@Z 000000018005d6a0 f i GuGjkQuery.obj
 0001:0005c6c0       ?support@?$RelativeConvex@UCustomConvexV@@@Gu@physx@@UEBA?AT__m128@@AEBT4@@Z 000000018005d6c0 f i GuGjkQuery.obj
 0001:0005c790       ?support@?$RelativeConvex@UCustomConvexV@@@Gu@physx@@UEBA?AT__m128@@AEBT4@AEAH@Z 000000018005d790 f i GuGjkQuery.obj
 0001:0005c870       ?supportPoint@?$LocalConvex@UCustomConvexV@@@Gu@physx@@UEBA?AT__m128@@H@Z 000000018005d870 f i GuGjkQuery.obj
 0001:0005c8e0       ?supportPoint@?$RelativeConvex@UCustomConvexV@@@Gu@physx@@UEBA?AT__m128@@H@Z 000000018005d8e0 f i GuGjkQuery.obj
 0001:0005c980       ?sweep@PxGjkQuery@physx@@SA_NAEBUSupport@12@0AEBV?$PxTransformT@M@2@1AEBV?$PxVec3T@M@2@MAEAMAEAV52@4@Z 000000018005d980 f   GuGjkQuery.obj
 0001:0005d120       ??$approximateCluster@MV?$PxVec3T@M@physx@@@Gu@physx@@YAXAEBV?$PxArray@HV?$PxReflectionAllocator@H@physx@@@1@IIPEBIPEBV?$PxVec3T@M@1@AEBV?$PxArray@MV?$PxReflectionAllocator@M@physx@@@1@AEBV?$PxArray@V?$PxVec3T@M@physx@@V?$PxReflectionAllocator@V?$PxVec3T@M@physx@@@2@@1@4AEAU?$ClusterApproximationT@MV?$PxVec3T@M@physx@@@01@@Z 000000018005e120 f i GuWindingNumber.obj
 0001:0005d960       ??$copy@V?$PxReflectionAllocator@M@physx@@@?$PxArray@MV?$PxReflectionAllocator@M@physx@@@physx@@IEAAXAEBV01@@Z 000000018005e960 f i GuWindingNumber.obj
 0001:0005d9c0       ??$precomputeClusterInformation@MV?$PxVec3T@M@physx@@@Gu@physx@@YAXHPEBUBVHNode@01@PEBIIPEBV?$PxVec3T@M@1@AEAV?$PxHashMap@IU?$ClusterApproximationT@MV?$PxVec3T@M@physx@@@Gu@physx@@U?$PxHash@I@3@VPxAllocator@3@@1@V?$PxArray@MV?$PxReflectionAllocator@M@physx@@@1@AEBV?$PxArray@V?$PxVec3T@M@physx@@V?$PxReflectionAllocator@V?$PxVec3T@M@physx@@@2@@1@5@Z 000000018005e9c0 f i GuWindingNumber.obj
 0001:0005dd80       ??$precomputeClusterInformation@MV?$PxVec3T@M@physx@@@Gu@physx@@YAXPEBUBVHNode@01@PEBIIPEBV?$PxVec3T@M@1@AEAV?$PxHashMap@IU?$ClusterApproximationT@MV?$PxVec3T@M@physx@@@Gu@physx@@U?$PxHash@I@3@VPxAllocator@3@@1@H@Z 000000018005ed80 f i GuWindingNumber.obj
 0001:0005e180       ??$traverseBVH@V?$WindingNumberTraversalController@MV?$PxVec3T@M@physx@@@Gu@physx@@@Gu@physx@@YAXPEBUBVHNode@01@AEAV?$WindingNumberTraversalController@MV?$PxVec3T@M@physx@@@01@H@Z 000000018005f180 f i GuWindingNumber.obj
 0001:0005e720       ?allocate@?$PxArray@HV?$PxReflectionAllocator@H@physx@@@physx@@IEAAPEAHI@Z 000000018005f720 f i GuWindingNumber.obj
 0001:0005e7d0       ?computeWindingNumber@Gu@physx@@YAMPEBUBVHNode@12@AEBV?$PxVec3T@M@2@AEBV?$PxHashMap@IU?$ClusterApproximationT@MV?$PxVec3T@M@physx@@@Gu@physx@@U?$PxHash@I@3@VPxAllocator@3@@2@PEBIPEBV42@@Z 000000018005f7d0 f   GuWindingNumber.obj
 0001:0005e840       ?computeWindingNumber@Gu@physx@@YAMPEBUBVHNode@12@AEBV?$PxVec3T@M@2@MAEBV?$PxHashMap@IU?$ClusterApproximationT@MV?$PxVec3T@M@physx@@@Gu@physx@@U?$PxHash@I@3@VPxAllocator@3@@2@PEBIPEBV42@@Z 000000018005f840 f   GuWindingNumber.obj
 0001:0005e8b0       ?copy@?$PxArray@MV?$PxReflectionAllocator@M@physx@@@physx@@KAXPEAM0PEBM@Z 000000018005f8b0 f i GuWindingNumber.obj
 0001:0005e910       ?create@?$PxHashBase@V?$PxPair@$$CBIU?$ClusterApproximationT@MV?$PxVec3T@M@physx@@@Gu@physx@@@physx@@IU?$PxHash@I@2@UGetKey@?$PxHashMapBase@IU?$ClusterApproximationT@MV?$PxVec3T@M@physx@@@Gu@physx@@U?$PxHash@I@3@VPxAllocator@3@@2@VPxAllocator@2@$00@physx@@QEAAPEAV?$PxPair@$$CBIU?$ClusterApproximationT@MV?$PxVec3T@M@physx@@@Gu@physx@@@2@AEBIAEA_N@Z 000000018005f910 f i GuWindingNumber.obj
 0001:0005ea70       ?growAndPushBack@?$PxArray@HV?$PxReflectionAllocator@H@physx@@@physx@@IEAAAEAHAEBH@Z 000000018005fa70 f i GuWindingNumber.obj
 0001:0005eb30       ?growAndPushBack@?$PxArray@USection@Gu@physx@@V?$PxReflectionAllocator@USection@Gu@physx@@@3@@physx@@IEAAAEAUSection@Gu@2@AEBU342@@Z 000000018005fb30 f i GuWindingNumber.obj
 0001:0005ec70       ?precomputeClusterInformation@Gu@physx@@YAXPEBUBVHNode@12@PEBIIPEBV?$PxVec3T@M@2@AEAV?$PxHashMap@IU?$ClusterApproximationT@MV?$PxVec3T@M@physx@@@Gu@physx@@U?$PxHash@I@3@VPxAllocator@3@@2@H@Z 000000018005fc70 f   GuWindingNumber.obj
 0001:0005ec80       ?recreate@?$PxArray@HV?$PxReflectionAllocator@H@physx@@@physx@@IEAAXI@Z 000000018005fc80 f i GuWindingNumber.obj
 0001:0005edb0       ?SweepAnyShapeHeightfield@Gu@physx@@YAMAEBUCCDShape@12@0AEBV?$PxTransformT@M@2@111MAEAV?$PxVec3T@M@2@2MAEAIM@Z 000000018005fdb0 f   GuCCDSweepConvexMesh.obj
 0001:00060330       ?SweepAnyShapeMesh@Gu@physx@@YAMAEBUCCDShape@12@0AEBV?$PxTransformT@M@2@111MAEAV?$PxVec3T@M@2@2MAEAIM@Z 0000000180061330 f   GuCCDSweepConvexMesh.obj
 0001:00061930       ?SweepEstimateAnyShapeHeightfield@Gu@physx@@YAMAEBUCCDShape@12@0MM@Z 0000000180062930 f   GuCCDSweepConvexMesh.obj
 0001:000625a0       ?SweepEstimateAnyShapeMesh@Gu@physx@@YAMAEBUCCDShape@12@0MM@Z 00000001800635a0 f   GuCCDSweepConvexMesh.obj
 0001:00062840       ?allocate@?$PxArray@IV?$PxInlineAllocator@$0BAA@V?$PxReflectionAllocator@I@physx@@@physx@@@physx@@IEAAPEAII@Z 0000000180063840 f i GuCCDSweepConvexMesh.obj
 0001:00063320       ?growAndPushBack@?$PxArray@IV?$PxInlineAllocator@$0BAA@V?$PxReflectionAllocator@I@physx@@@physx@@@physx@@IEAAAEAIAEBI@Z 0000000180064320 f i GuCCDSweepConvexMesh.obj
 0001:00063960       ?recreate@?$PxArray@IV?$PxInlineAllocator@$0BAA@V?$PxReflectionAllocator@I@physx@@@physx@@@physx@@IEAAXI@Z 0000000180064960 f i GuCCDSweepConvexMesh.obj
 0001:00063a90       ?resize@?$PxArray@IV?$PxInlineAllocator@$0BAA@V?$PxReflectionAllocator@I@physx@@@physx@@@physx@@QEAAXIAEBI@Z 0000000180064a90 f i GuCCDSweepConvexMesh.obj
 0001:00063b60       ?transformBoxOrthonormal@physx@@YA?AVBox@Gu@1@AEBV231@AEBV?$PxTransformT@M@1@@Z 0000000180064b60 f i GuCCDSweepConvexMesh.obj
 0001:00063ff0       ?UnimplementedSweep@Gu@physx@@YAMAEBUCCDShape@12@0AEBV?$PxTransformT@M@2@111MAEAV?$PxVec3T@M@2@2MAEAIM@Z 0000000180064ff0 f   GuCCDSweepPrimitives.obj
 0001:00067b80       ?UnimplementedTriangleSweep@Gu@physx@@YAMAEBVPxGeometry@2@0AEBV?$PxTransformT@M@2@111MAEAV?$PxVec3T@M@2@2AEBVFastVertex2ShapeScaling@Cm@2@AEAVTriangleV@12@M@Z 0000000180068b80 f   GuCCDSweepPrimitives.obj
 0001:00067b90       ??$SweepGeomTriangles@VCapsuleV@Gu@physx@@@Gu@physx@@YAMAEBVPxGeometry@1@0AEBV?$PxTransformT@M@1@111MAEAV?$PxVec3T@M@1@2AEBVFastVertex2ShapeScaling@Cm@1@AEAVTriangleV@01@M@Z 0000000180068b90 f i GuCCDSweepPrimitives.obj
 0001:000682c0       ??$SweepGeomTriangles@VBoxV@Gu@physx@@@Gu@physx@@YAMAEBVPxGeometry@1@0AEBV?$PxTransformT@M@1@111MAEAV?$PxVec3T@M@1@2AEBVFastVertex2ShapeScaling@Cm@1@AEAVTriangleV@01@M@Z 00000001800692c0 f i GuCCDSweepPrimitives.obj
 0001:00068a10       ??$SweepGeomTriangles@VConvexHullV@Gu@physx@@@Gu@physx@@YAMAEBVPxGeometry@1@0AEBV?$PxTransformT@M@1@111MAEAV?$PxVec3T@M@1@2AEBVFastVertex2ShapeScaling@Cm@1@AEAVTriangleV@01@M@Z 0000000180069a10 f i GuCCDSweepPrimitives.obj
 0001:00069500       ?supportPoint@?$RelativeConvex@VCapsuleV@Gu@physx@@@Gu@physx@@UEBA?AT__m128@@H@Z 000000018006a500 f i GuCCDSweepPrimitives.obj
 0001:00069560       ?support@?$RelativeConvex@VCapsuleV@Gu@physx@@@Gu@physx@@UEBA?AT__m128@@AEBT4@@Z 000000018006a560 f i GuCCDSweepPrimitives.obj
 0001:00069610       ?support@?$RelativeConvex@VCapsuleV@Gu@physx@@@Gu@physx@@UEBA?AT__m128@@AEBT4@AEAH@Z 000000018006a610 f i GuCCDSweepPrimitives.obj
 0001:000696d0       ?supportPoint@?$RelativeConvex@VTriangleV@Gu@physx@@@Gu@physx@@UEBA?AT__m128@@H@Z 000000018006a6d0 f i GuCCDSweepPrimitives.obj
 0001:00069720       ?support@?$RelativeConvex@VTriangleV@Gu@physx@@@Gu@physx@@UEBA?AT__m128@@AEBT4@@Z 000000018006a720 f i GuCCDSweepPrimitives.obj
 0001:00069820       ?support@?$RelativeConvex@VTriangleV@Gu@physx@@@Gu@physx@@UEBA?AT__m128@@AEBT4@AEAH@Z 000000018006a820 f i GuCCDSweepPrimitives.obj
 0001:00069960       ??$gjkPenetration@U?$RelativeConvex@VCapsuleV@Gu@physx@@@Gu@physx@@U?$LocalConvex@VBoxV@Gu@physx@@@23@@Gu@physx@@YA?AW4GjkStatus@01@AEBU?$RelativeConvex@VCapsuleV@Gu@physx@@@01@AEBU?$LocalConvex@VBoxV@Gu@physx@@@01@AEBT__m128@@2_NPEIAE4AEAEAEAUGjkOutput@01@@Z 000000018006a960 f i GuCCDSweepPrimitives.obj
 0001:000699d0       ??$gjkPenetration@U?$RelativeConvex@VCapsuleV@Gu@physx@@@Gu@physx@@U?$LocalConvex@VBoxV@Gu@physx@@@23@@Gu@physx@@YA?AW4GjkStatus@01@AEBU?$RelativeConvex@VCapsuleV@Gu@physx@@@01@AEBU?$LocalConvex@VBoxV@Gu@physx@@@01@AEBT__m128@@2_NPEIAE4PEIAT5@5AEAEAEAUGjkOutput@01@@Z 000000018006a9d0 f i GuCCDSweepPrimitives.obj
 0001:0006ae80       ??$gjkPenetration@U?$RelativeConvex@VCapsuleV@Gu@physx@@@Gu@physx@@U?$LocalConvex@VCapsuleV@Gu@physx@@@23@@Gu@physx@@YA?AW4GjkStatus@01@AEBU?$RelativeConvex@VCapsuleV@Gu@physx@@@01@AEBU?$LocalConvex@VCapsuleV@Gu@physx@@@01@AEBT__m128@@2_NPEIAE4AEAEAEAUGjkOutput@01@@Z 000000018006be80 f i GuCCDSweepPrimitives.obj
 0001:0006aef0       ??$gjkPenetration@U?$RelativeConvex@VCapsuleV@Gu@physx@@@Gu@physx@@U?$LocalConvex@VCapsuleV@Gu@physx@@@23@@Gu@physx@@YA?AW4GjkStatus@01@AEBU?$RelativeConvex@VCapsuleV@Gu@physx@@@01@AEBU?$LocalConvex@VCapsuleV@Gu@physx@@@01@AEBT__m128@@2_NPEIAE4PEIAT5@5AEAEAEAUGjkOutput@01@@Z 000000018006bef0 f i GuCCDSweepPrimitives.obj
 0001:0006c390       ??$gjkPenetration@U?$RelativeConvex@VCapsuleV@Gu@physx@@@Gu@physx@@U?$LocalConvex@VConvexHullV@Gu@physx@@@23@@Gu@physx@@YA?AW4GjkStatus@01@AEBU?$RelativeConvex@VCapsuleV@Gu@physx@@@01@AEBU?$LocalConvex@VConvexHullV@Gu@physx@@@01@AEBT__m128@@2_NPEIAE4AEAEAEAUGjkOutput@01@@Z 000000018006d390 f i GuCCDSweepPrimitives.obj
 0001:0006c400       ??$gjkPenetration@U?$RelativeConvex@VCapsuleV@Gu@physx@@@Gu@physx@@U?$LocalConvex@VConvexHullV@Gu@physx@@@23@@Gu@physx@@YA?AW4GjkStatus@01@AEBU?$RelativeConvex@VCapsuleV@Gu@physx@@@01@AEBU?$LocalConvex@VConvexHullV@Gu@physx@@@01@AEBT__m128@@2_NPEIAE4PEIAT5@5AEAEAEAUGjkOutput@01@@Z 000000018006d400 f i GuCCDSweepPrimitives.obj
 0001:0006d980       ??$gjkPenetration@U?$RelativeConvex@VTriangleV@Gu@physx@@@Gu@physx@@U?$LocalConvex@VBoxV@Gu@physx@@@23@@Gu@physx@@YA?AW4GjkStatus@01@AEBU?$RelativeConvex@VTriangleV@Gu@physx@@@01@AEBU?$LocalConvex@VBoxV@Gu@physx@@@01@AEBT__m128@@2_NPEIAE4AEAEAEAUGjkOutput@01@@Z 000000018006e980 f i GuCCDSweepPrimitives.obj
 0001:0006d9f0       ??$gjkPenetration@U?$RelativeConvex@VTriangleV@Gu@physx@@@Gu@physx@@U?$LocalConvex@VBoxV@Gu@physx@@@23@@Gu@physx@@YA?AW4GjkStatus@01@AEBU?$RelativeConvex@VTriangleV@Gu@physx@@@01@AEBU?$LocalConvex@VBoxV@Gu@physx@@@01@AEBT__m128@@2_NPEIAE4PEIAT5@5AEAEAEAUGjkOutput@01@@Z 000000018006e9f0 f i GuCCDSweepPrimitives.obj
 0001:0006eee0       ??$gjkPenetration@U?$RelativeConvex@VTriangleV@Gu@physx@@@Gu@physx@@U?$LocalConvex@VCapsuleV@Gu@physx@@@23@@Gu@physx@@YA?AW4GjkStatus@01@AEBU?$RelativeConvex@VTriangleV@Gu@physx@@@01@AEBU?$LocalConvex@VCapsuleV@Gu@physx@@@01@AEBT__m128@@2_NPEIAE4AEAEAEAUGjkOutput@01@@Z 000000018006fee0 f i GuCCDSweepPrimitives.obj
 0001:0006ef50       ??$gjkPenetration@U?$RelativeConvex@VTriangleV@Gu@physx@@@Gu@physx@@U?$LocalConvex@VCapsuleV@Gu@physx@@@23@@Gu@physx@@YA?AW4GjkStatus@01@AEBU?$RelativeConvex@VTriangleV@Gu@physx@@@01@AEBU?$LocalConvex@VCapsuleV@Gu@physx@@@01@AEBT__m128@@2_NPEIAE4PEIAT5@5AEAEAEAUGjkOutput@01@@Z 000000018006ff50 f i GuCCDSweepPrimitives.obj
 0001:00070450       ??$gjkPenetration@U?$RelativeConvex@VTriangleV@Gu@physx@@@Gu@physx@@U?$LocalConvex@VConvexHullV@Gu@physx@@@23@@Gu@physx@@YA?AW4GjkStatus@01@AEBU?$RelativeConvex@VTriangleV@Gu@physx@@@01@AEBU?$LocalConvex@VConvexHullV@Gu@physx@@@01@AEBT__m128@@2_NPEIAE4AEAEAEAUGjkOutput@01@@Z 0000000180071450 f i GuCCDSweepPrimitives.obj
 0001:000704c0       ??$gjkPenetration@U?$RelativeConvex@VTriangleV@Gu@physx@@@Gu@physx@@U?$LocalConvex@VConvexHullV@Gu@physx@@@23@@Gu@physx@@YA?AW4GjkStatus@01@AEBU?$RelativeConvex@VTriangleV@Gu@physx@@@01@AEBU?$LocalConvex@VConvexHullV@Gu@physx@@@01@AEBT__m128@@2_NPEIAE4PEIAT5@5AEAEAEAUGjkOutput@01@@Z 00000001800714c0 f i GuCCDSweepPrimitives.obj
 0001:00071a70       ??$gjkRaycast@U?$RelativeConvex@VCapsuleV@Gu@physx@@@Gu@physx@@U?$LocalConvex@VBoxV@Gu@physx@@@23@@Gu@physx@@YA_NAEBU?$RelativeConvex@VCapsuleV@Gu@physx@@@01@AEBU?$LocalConvex@VBoxV@Gu@physx@@@01@AEBT__m128@@222AEAT4@33M@Z 0000000180072a70 f i GuCCDSweepPrimitives.obj
 0001:000726c0       ??$gjkRaycast@U?$RelativeConvex@VCapsuleV@Gu@physx@@@Gu@physx@@U?$LocalConvex@VCapsuleV@Gu@physx@@@23@@Gu@physx@@YA_NAEBU?$RelativeConvex@VCapsuleV@Gu@physx@@@01@AEBU?$LocalConvex@VCapsuleV@Gu@physx@@@01@AEBT__m128@@222AEAT4@33M@Z 00000001800736c0 f i GuCCDSweepPrimitives.obj
 0001:00073390       ??$gjkRaycast@U?$RelativeConvex@VCapsuleV@Gu@physx@@@Gu@physx@@U?$LocalConvex@VConvexHullV@Gu@physx@@@23@@Gu@physx@@YA_NAEBU?$RelativeConvex@VCapsuleV@Gu@physx@@@01@AEBU?$LocalConvex@VConvexHullV@Gu@physx@@@01@AEBT__m128@@222AEAT4@33M@Z 0000000180074390 f i GuCCDSweepPrimitives.obj
 0001:000741a0       ??$gjkRaycast@U?$RelativeConvex@VTriangleV@Gu@physx@@@Gu@physx@@U?$LocalConvex@VBoxV@Gu@physx@@@23@@Gu@physx@@YA_NAEBU?$RelativeConvex@VTriangleV@Gu@physx@@@01@AEBU?$LocalConvex@VBoxV@Gu@physx@@@01@AEBT__m128@@222AEAT4@33M@Z 00000001800751a0 f i GuCCDSweepPrimitives.obj
 0001:00074ea0       ??$gjkRaycast@U?$RelativeConvex@VTriangleV@Gu@physx@@@Gu@physx@@U?$LocalConvex@VCapsuleV@Gu@physx@@@23@@Gu@physx@@YA_NAEBU?$RelativeConvex@VTriangleV@Gu@physx@@@01@AEBU?$LocalConvex@VCapsuleV@Gu@physx@@@01@AEBT__m128@@222AEAT4@33M@Z 0000000180075ea0 f i GuCCDSweepPrimitives.obj
 0001:00075c20       ??$gjkRaycast@U?$RelativeConvex@VTriangleV@Gu@physx@@@Gu@physx@@U?$LocalConvex@VConvexHullV@Gu@physx@@@23@@Gu@physx@@YA_NAEBU?$RelativeConvex@VTriangleV@Gu@physx@@@01@AEBU?$LocalConvex@VConvexHullV@Gu@physx@@@01@AEBT__m128@@222AEAT4@33M@Z 0000000180076c20 f i GuCCDSweepPrimitives.obj
 0001:00076a90       ?SweepShapeShape@Gu@physx@@YAMAEBUCCDShape@12@0AEBV?$PxTransformT@M@2@111MAEAV?$PxVec3T@M@2@2MAEAIM@Z 0000000180077a90 f   GuCCDSweepPrimitives.obj
 0001:00076ab0       ?SweepShapeTriangle@Gu@physx@@YAMAEBVPxGeometry@2@0AEBV?$PxTransformT@M@2@111MAEAV?$PxVec3T@M@2@2AEBVFastVertex2ShapeScaling@Cm@2@AEAVTriangleV@12@M@Z 0000000180077ab0 f   GuCCDSweepPrimitives.obj
 0001:00076ad0       ?barycentricCoordinates@Gu@physx@@YAXAEBT__m128@@000AEAT3@1@Z 0000000180077ad0 f   GuBarycentricCoordinates.obj
 0001:00076c10       ?barycentricCoordinates@Gu@physx@@YAXAEBT__m128@@00AEAT3@@Z 0000000180077c10 f   GuBarycentricCoordinates.obj
 0001:00076c80       ??$?_UV?$PxReflectionAllocator@VAdjTriangle@Gu@physx@@@physx@@@PxUserAllocated@physx@@SAPEAX_KV?$PxReflectionAllocator@VAdjTriangle@Gu@physx@@@1@PEBDH@Z 0000000180077c80 f i GuAdjacencies.obj
 0001:00076d60       ??0AdjacenciesBuilder@Gu@physx@@QEAA@XZ 0000000180077d60 f   GuAdjacencies.obj
 0001:00076d70       ??1AdjacenciesBuilder@Gu@physx@@QEAA@XZ 0000000180077d70 f   GuAdjacencies.obj
 0001:00076dc0       ?ComputeNbBoundaryEdges@Adjacencies@Gu@physx@@QEBAIXZ 0000000180077dc0 f   GuAdjacencies.obj
 0001:00077050       ?Init@AdjacenciesBuilder@Gu@physx@@QEAA_NAEBUADJACENCIESCREATE@23@@Z 0000000180078050 f   GuAdjacencies.obj
 0001:00077620       ??0EdgeList@Gu@physx@@QEAA@XZ 0000000180078620 f   GuEdgeList.obj
 0001:00077640       ??1EdgeList@Gu@physx@@QEAA@XZ 0000000180078640 f   GuEdgeList.obj
 0001:000776f0       ?computeActiveEdges@EdgeList@Gu@physx@@AEAA_NIPEBIPEBGPEBV?$PxVec3T@M@3@M@Z 00000001800786f0 f   GuEdgeList.obj
 0001:00078a80       ?createEdgesToFaces@EdgeList@Gu@physx@@AEAA_NIPEBIPEBG@Z 0000000180079a80 f   GuEdgeList.obj
 0001:00078ce0       ?createFacesToEdges@EdgeList@Gu@physx@@AEAA_NIPEBIPEBG@Z 0000000180079ce0 f   GuEdgeList.obj
 0001:00079110       ?init@EdgeList@Gu@physx@@QEAA_NAEBUEDGELISTCREATE@23@@Z 000000018007a110 f   GuEdgeList.obj
 0001:00079240       ?addAxis@SeparatingAxes@Gu@physx@@QEAA_NAEBV?$PxVec3T@M@3@@Z 000000018007a240 f   GuSeparatingAxes.obj
 0001:00079300       ??$kmeans_cluster@V?$PxVec3T@M@physx@@M@@YAIPEBV?$PxVec3T@M@physx@@IIPEAV01@PEAIMM@Z 000000018007a300 f i GuQuantizer.obj
 0001:00079c20       ??_EQuantizer@Gu@physx@@MEAAPEAXI@Z 000000018007ac20 f i GuQuantizer.obj
 0001:00079c20       ??_GQuantizer@Gu@physx@@MEAAPEAXI@Z 000000018007ac20 f i GuQuantizer.obj
 0001:00079c50       ??_GQuantizerImpl@@EEAAPEAXI@Z 000000018007ac50 f i GuQuantizer.obj
 0001:00079c50       ??_EQuantizerImpl@@EEAAPEAXI@Z 000000018007ac50 f i GuQuantizer.obj
 0001:00079d20       ?createQuantizer@Gu@physx@@YAPEAVQuantizer@12@XZ 000000018007ad20 f   GuQuantizer.obj
 0001:00079dd0       ?getDenormalizeCenter@QuantizerImpl@@UEBAAEBV?$PxVec3T@M@physx@@XZ 000000018007add0 f i GuQuantizer.obj
 0001:00079de0       ?getDenormalizeScale@QuantizerImpl@@UEBAAEBV?$PxVec3T@M@physx@@XZ 000000018007ade0 f i GuQuantizer.obj
 0001:00079de0       ?getCurrentAABBTreeBounds@PruningPool@Gu@physx@@QEBAAEBVAABBTreeBounds@23@XZ 000000018007ade0 f i GuIncrementalAABBPrunerCore.obj
 0001:00079df0       ?kmeansQuantize3D@QuantizerImpl@@UEAAPEBV?$PxVec3T@M@physx@@IPEBV23@I_NIAEAI@Z 000000018007adf0 f i GuQuantizer.obj
 0001:0007a050       ?normalizeInput@QuantizerImpl@@AEAAXIPEBV?$PxVec3T@M@physx@@I@Z 000000018007b050 f i GuQuantizer.obj
 0001:0007a480       ?release@QuantizerImpl@@UEAAXXZ 000000018007b480 f i GuQuantizer.obj
 0001:0007a4a0       ??0MeshCleaner@Gu@physx@@QEAA@IPEBV?$PxVec3T@M@2@IPEBIM@Z 000000018007b4a0 f   GuMeshCleaner.obj
 0001:0007ae40       ??1MeshCleaner@Gu@physx@@QEAA@XZ 000000018007be40 f   GuMeshCleaner.obj
 0001:0007aed0       ??0ReducedVertexCloud@Gu@physx@@QEAA@PEBV?$PxVec3T@M@2@I@Z 000000018007bed0 f   GuVertexReducer.obj
 0001:0007aef0       ??1ReducedVertexCloud@Gu@physx@@QEAA@XZ 000000018007bef0 f   GuVertexReducer.obj
 0001:0007af00       ?clean@ReducedVertexCloud@Gu@physx@@QEAAAEAV123@XZ 000000018007bf00 f   GuVertexReducer.obj
 0001:0007af70       ?reduce@ReducedVertexCloud@Gu@physx@@QEAA_NPEAUREDUCEDCLOUD@23@@Z 000000018007bf70 f   GuVertexReducer.obj
 0001:0007b210       ??$copy@V?$PxReflectionAllocator@H@physx@@@?$PxArray@HV?$PxReflectionAllocator@H@physx@@@physx@@IEAAXAEBV01@@Z 000000018007c210 f i GuMeshAnalysis.obj
 0001:0007b280       ?buildTriangleAdjacency@MeshAnalyzer@Gu@physx@@SA_NPEBU?$IndexedTriangleT@H@23@IAEAV?$PxArray@HV?$PxReflectionAllocator@H@physx@@@3@AEAV?$PxHashMap@_KHU?$PxHash@_K@physx@@VPxAllocator@2@@3@@Z 000000018007c280 f   GuMeshAnalysis.obj
 0001:0007b740       ?checkConsistentTriangleOrientation@MeshAnalyzer@Gu@physx@@SA_NPEBU?$IndexedTriangleT@H@23@IAEAV?$PxArray@_NV?$PxReflectionAllocator@_N@physx@@@3@AEAV?$PxHashMap@_KHU?$PxHash@_K@physx@@VPxAllocator@2@@3@@Z 000000018007c740 f   GuMeshAnalysis.obj
 0001:0007bb70       ?checkMeshWatertightness@MeshAnalyzer@Gu@physx@@SA_NPEBU?$IndexedTriangleT@H@23@I@Z 000000018007cb70 f   GuMeshAnalysis.obj
 0001:0007bca0       ?create@?$PxHashBase@V?$PxPair@$$CB_KH@physx@@_KU?$PxHash@_K@2@UGetKey@?$PxHashMapBase@_KHU?$PxHash@_K@physx@@VPxAllocator@2@@2@VPxAllocator@2@$00@physx@@QEAAPEAV?$PxPair@$$CB_KH@2@AEB_KAEA_N@Z 000000018007cca0 f i GuMeshAnalysis.obj
 0001:0007be40       ?growAndPushBack@?$PxArray@V?$PxArray@HV?$PxReflectionAllocator@H@physx@@@physx@@V?$PxReflectionAllocator@V?$PxArray@HV?$PxReflectionAllocator@H@physx@@@physx@@@2@@physx@@IEAAAEAV?$PxArray@HV?$PxReflectionAllocator@H@physx@@@2@AEBV32@@Z 000000018007ce40 f i GuMeshAnalysis.obj
 0001:0007bff0       ?makeTriOrientationConsistent@MeshAnalyzer@Gu@physx@@SA_NPEAU?$IndexedTriangleT@H@23@I_N@Z 000000018007cff0 f   GuMeshAnalysis.obj
 0001:0007c100       ?recreate@?$PxArray@_NV?$PxReflectionAllocator@_N@physx@@@physx@@IEAAXI@Z 000000018007d100 f i GuMeshAnalysis.obj
 0001:0007c1f0       ?resize@?$PxArray@HV?$PxReflectionAllocator@H@physx@@@physx@@QEAAXIAEBH@Z 000000018007d1f0 f i GuMeshAnalysis.obj
 0001:0007c2b0       ?resize@?$PxArray@_NV?$PxReflectionAllocator@_N@physx@@@physx@@QEAAXIAEB_N@Z 000000018007d2b0 f i GuMeshAnalysis.obj
 0001:0007c370       ?contactBoxBox@Gu@physx@@YA_NAEBVPxGeometry@2@0AEBV?$PxTransformT@M@2@1AEBUNarrowPhaseParams@12@AEAUCache@12@AEAVPxContactBuffer@2@PEAVPxRenderOutput@2@@Z 000000018007d370 f   GuContactBoxBox.obj
 0001:00080780       ?contactCapsuleBox@Gu@physx@@YA_NAEBVPxGeometry@2@0AEBV?$PxTransformT@M@2@1AEBUNarrowPhaseParams@12@AEAUCache@12@AEAVPxContactBuffer@2@PEAVPxRenderOutput@2@@Z 0000000180081780 f   GuContactCapsuleBox.obj
 0001:00080d20       ?contactCapsuleCapsule@Gu@physx@@YA_NAEBVPxGeometry@2@0AEBV?$PxTransformT@M@2@1AEBUNarrowPhaseParams@12@AEAUCache@12@AEAVPxContactBuffer@2@PEAVPxRenderOutput@2@@Z 0000000180081d20 f   GuContactCapsuleCapsule.obj
 0001:000835e0       ?contactCapsuleConvex@Gu@physx@@YA_NAEBVPxGeometry@2@0AEBV?$PxTransformT@M@2@1AEBUNarrowPhaseParams@12@AEAUCache@12@AEAVPxContactBuffer@2@PEAVPxRenderOutput@2@@Z 00000001800845e0 f   GuContactCapsuleConvex.obj
 0001:00085af0       ?contactCapsuleHeightfield@Gu@physx@@YA_NAEBVPxGeometry@2@0AEBV?$PxTransformT@M@2@1AEBUNarrowPhaseParams@12@AEAUCache@12@AEAVPxContactBuffer@2@PEAVPxRenderOutput@2@@Z 0000000180086af0 f   GuContactCapsuleMesh.obj
 0001:00086300       ?contactCapsuleMesh@Gu@physx@@YA_NAEBVPxGeometry@2@0AEBV?$PxTransformT@M@2@1AEBUNarrowPhaseParams@12@AEAUCache@12@AEAVPxContactBuffer@2@PEAVPxRenderOutput@2@@Z 0000000180087300 f   GuContactCapsuleMesh.obj
 0001:00087480       ?transformQueryBounds@FastVertex2ShapeScaling@Cm@physx@@QEBAXAEAV?$PxVec3T@M@3@0AEAV?$PxMat33T@M@3@@Z 0000000180088480 f i GuContactCapsuleMesh.obj
 0001:0008b790       ?contactBoxConvex@Gu@physx@@YA_NAEBVPxGeometry@2@0AEBV?$PxTransformT@M@2@1AEBUNarrowPhaseParams@12@AEAUCache@12@AEAVPxContactBuffer@2@PEAVPxRenderOutput@2@@Z 000000018008c790 f   GuContactConvexConvex.obj
 0001:0008b960       ?contactConvexConvex@Gu@physx@@YA_NAEBVPxGeometry@2@0AEBV?$PxTransformT@M@2@1AEBUNarrowPhaseParams@12@AEAUCache@12@AEAVPxContactBuffer@2@PEAVPxRenderOutput@2@@Z 000000018008c960 f   GuContactConvexConvex.obj
 0001:0008bde0       ?transformPlaneToShapeSpace@FastVertex2ShapeScaling@Cm@physx@@QEBAXAEBV?$PxVec3T@M@3@MAEAV43@AEAM@Z 000000018008cde0 f i GuContactConvexConvex.obj
 0001:0008c290       ??_GConvexMeshContactGenerationCallback@@UEAAPEAXI@Z 000000018008d290 f i GuContactConvexMesh.obj
 0001:0008c290       ??_EConvexMeshContactGenerationCallback@@UEAAPEAXI@Z 000000018008d290 f i GuContactConvexMesh.obj
 0001:0008c2f0       ?addData@?$CacheMap@UCachedEdge@Gu@physx@@$0IA@@Gu@physx@@QEAA_NAEBUCachedEdge@23@@Z 000000018008d2f0 f i GuContactConvexMesh.obj
 0001:0008c3d0       ?addData@?$CacheMap@UCachedVertex@Gu@physx@@$0IA@@Gu@physx@@QEAA_NAEBUCachedVertex@23@@Z 000000018008d3d0 f i GuContactConvexMesh.obj
 0001:0008c460       ?allocate@?$PxArray@IV?$PxInlineAllocator@$0BBAA@V?$PxReflectionAllocator@I@physx@@@physx@@@physx@@IEAAPEAII@Z 000000018008d460 f i GuContactConvexMesh.obj
 0001:0008c870       ?contactBoxHeightfield@Gu@physx@@YA_NAEBVPxGeometry@2@0AEBV?$PxTransformT@M@2@1AEBUNarrowPhaseParams@12@AEAUCache@12@AEAVPxContactBuffer@2@PEAVPxRenderOutput@2@@Z 000000018008d870 f   GuContactConvexMesh.obj
 0001:0008c9f0       ?contactBoxMesh@Gu@physx@@YA_NAEBVPxGeometry@2@0AEBV?$PxTransformT@M@2@1AEBUNarrowPhaseParams@12@AEAUCache@12@AEAVPxContactBuffer@2@PEAVPxRenderOutput@2@@Z 000000018008d9f0 f   GuContactConvexMesh.obj
 0001:0008cbc0       ?contactConvexHeightfield@Gu@physx@@YA_NAEBVPxGeometry@2@0AEBV?$PxTransformT@M@2@1AEBUNarrowPhaseParams@12@AEAUCache@12@AEAVPxContactBuffer@2@PEAVPxRenderOutput@2@@Z 000000018008dbc0 f   GuContactConvexMesh.obj
 0001:0008cd10       ?contactConvexMesh@Gu@physx@@YA_NAEBVPxGeometry@2@0AEBV?$PxTransformT@M@2@1AEBUNarrowPhaseParams@12@AEAUCache@12@AEAVPxContactBuffer@2@PEAVPxRenderOutput@2@@Z 000000018008dd10 f   GuContactConvexMesh.obj
 0001:00090460       ?processHit@ConvexMeshContactGenerationCallback@@UEAA_NAEBUPxGeomRaycastHit@physx@@AEBV?$PxVec3T@M@3@11AEAMPEBI@Z 0000000180091460 f i GuContactConvexMesh.obj
 0001:00090dd0       ?recreate@?$PxArray@IV?$PxInlineAllocator@$0BBAA@V?$PxReflectionAllocator@I@physx@@@physx@@@physx@@IEAAXI@Z 0000000180091dd0 f i GuContactConvexMesh.obj
 0001:00092200       ?contactPlaneBox@Gu@physx@@YA_NAEBVPxGeometry@2@0AEBV?$PxTransformT@M@2@1AEBUNarrowPhaseParams@12@AEAUCache@12@AEAVPxContactBuffer@2@PEAVPxRenderOutput@2@@Z 0000000180093200 f   GuContactPlaneBox.obj
 0001:00092e90       ?contactPlaneCapsule@Gu@physx@@YA_NAEBVPxGeometry@2@0AEBV?$PxTransformT@M@2@1AEBUNarrowPhaseParams@12@AEAUCache@12@AEAVPxContactBuffer@2@PEAVPxRenderOutput@2@@Z 0000000180093e90 f   GuContactPlaneCapsule.obj
 0001:00093530       ?contactPlaneConvex@Gu@physx@@YA_NAEBVPxGeometry@2@0AEBV?$PxTransformT@M@2@1AEBUNarrowPhaseParams@12@AEAUCache@12@AEAVPxContactBuffer@2@PEAVPxRenderOutput@2@@Z 0000000180094530 f   GuContactPlaneConvex.obj
 0001:000952e0       ?contactPolygonPolygonExt@Gu@physx@@YA_NIPEBV?$PxVec3T@M@2@PEBEAEBV?$PxMat34T@M@2@AEBVPxPlane@2@AEBV?$PxMat33T@M@2@I01234AEBV32@22IIAEAVPxContactBuffer@2@_N5M@Z 00000001800962e0 f   GuContactPolygonPolygon.obj
 0001:00096a30       ?findRotationMatrixFromZ@Gu@physx@@YA?AV?$PxMat33T@M@2@AEBV?$PxVec3T@M@2@@Z 0000000180097a30 f   GuContactPolygonPolygon.obj
 0001:00097460       ?contactSphereBox@Gu@physx@@YA_NAEBVPxGeometry@2@0AEBV?$PxTransformT@M@2@1AEBUNarrowPhaseParams@12@AEAUCache@12@AEAVPxContactBuffer@2@PEAVPxRenderOutput@2@@Z 0000000180098460 f   GuContactSphereBox.obj
 0001:00097a40       ?contactSphereCapsule@Gu@physx@@YA_NAEBVPxGeometry@2@0AEBV?$PxTransformT@M@2@1AEBUNarrowPhaseParams@12@AEAUCache@12@AEAVPxContactBuffer@2@PEAVPxRenderOutput@2@@Z 0000000180098a40 f   GuContactSphereCapsule.obj
 0001:00098820       ?contactSphereHeightfield@Gu@physx@@YA_NAEBVPxGeometry@2@0AEBV?$PxTransformT@M@2@1AEBUNarrowPhaseParams@12@AEAUCache@12@AEAVPxContactBuffer@2@PEAVPxRenderOutput@2@@Z 0000000180099820 f   GuContactSphereMesh.obj
 0001:00099230       ?contactSphereMesh@Gu@physx@@YA_NAEBVPxGeometry@2@0AEBV?$PxTransformT@M@2@1AEBUNarrowPhaseParams@12@AEAUCache@12@AEAVPxContactBuffer@2@PEAVPxRenderOutput@2@@Z 000000018009a230 f   GuContactSphereMesh.obj
 0001:0009b610       ?contactSpherePlane@Gu@physx@@YA_NAEBVPxGeometry@2@0AEBV?$PxTransformT@M@2@1AEBUNarrowPhaseParams@12@AEAUCache@12@AEAVPxContactBuffer@2@PEAVPxRenderOutput@2@@Z 000000018009c610 f   GuContactSpherePlane.obj
 0001:0009b820       ?contactSphereSphere@Gu@physx@@YA_NAEBVPxGeometry@2@0AEBV?$PxTransformT@M@2@1AEBUNarrowPhaseParams@12@AEAUCache@12@AEAVPxContactBuffer@2@PEAVPxRenderOutput@2@@Z 000000018009c820 f   GuContactSphereSphere.obj
 0001:0009b9a0       ?contactCustomGeometryGeometry@Gu@physx@@YA_NAEBVPxGeometry@2@0AEBV?$PxTransformT@M@2@1AEBUNarrowPhaseParams@12@AEAUCache@12@AEAVPxContactBuffer@2@PEAVPxRenderOutput@2@@Z 000000018009c9a0 f   GuContactCustomGeometry.obj
 0001:0009ba00       ?contactGeometryCustomGeometry@Gu@physx@@YA_NAEBVPxGeometry@2@0AEBV?$PxTransformT@M@2@1AEBUNarrowPhaseParams@12@AEAUCache@12@AEAVPxContactBuffer@2@PEAVPxRenderOutput@2@@Z 000000018009ca00 f   GuContactCustomGeometry.obj
 0001:0009bac0       ?selectNormal@Gu@physx@@YA_NEMM@Z 000000018009cac0 f   GuFeatureCode.obj
 0001:0009bb40       ??0BigConvexData@physx@@QEAA@XZ 000000018009cb40 f   GuBigConvexData.obj
 0001:0009bb60       ??1BigConvexData@physx@@QEAA@XZ 000000018009cb60 f   GuBigConvexData.obj
 0001:0009bc20       ?ComputeNearestOffset@BigConvexData@physx@@QEBAIAEBV?$PxVec3T@M@2@@Z 000000018009cc20 f   GuBigConvexData.obj
 0001:0009bd20       ?ComputeOffset@BigConvexData@physx@@QEBAIAEBV?$PxVec3T@M@2@@Z 000000018009cd20 f   GuBigConvexData.obj
 0001:0009be20       ?CreateOffsets@BigConvexData@physx@@IEAAXXZ 000000018009ce20 f   GuBigConvexData.obj
 0001:0009be70       ?Load@BigConvexData@physx@@QEAA_NAEAVPxInputStream@2@@Z 000000018009ce70 f   GuBigConvexData.obj
 0001:0009bf80       ?VLoad@BigConvexData@physx@@IEAA_NAEAVPxInputStream@2@@Z 000000018009cf80 f   GuBigConvexData.obj
 0001:0009c120       ?exportExtraData@BigConvexData@physx@@QEAAXAEAVPxSerializationContext@2@@Z 000000018009d120 f   GuBigConvexData.obj
 0001:0009c1a0       ?importExtraData@BigConvexData@physx@@QEAAXAEAVPxDeserializationContext@2@@Z 000000018009d1a0 f   GuBigConvexData.obj
 0001:0009c210       ?findUniqueConvexEdges@Gu@physx@@YAIIPEIAUConvexEdge@12@IPEIBUHullPolygonData@12@PEIBE@Z 000000018009d210 f   GuConvexHelper.obj
 0001:0009c350       ?getConvexData@Gu@physx@@YA_NAEBVPxConvexMeshGeometry@2@AEAVFastVertex2ShapeScaling@Cm@2@AEAVPxBounds3@2@AEAUPolygonalData@12@@Z 000000018009d350 f   GuConvexHelper.obj
 0001:0009c5d0       ?getScaledConvex@Gu@physx@@YAXAEAPEAV?$PxVec3T@M@2@AEAPEAEPEAV32@PEAE_NPEBV32@PEBEIAEBVFastVertex2ShapeScaling@Cm@2@@Z 000000018009d5d0 f   GuConvexHelper.obj
 0001:0009c700       ??0ConvexMesh@Gu@physx@@QEAA@PEAVMeshFactory@12@@Z 000000018009d700 f   GuConvexMesh.obj
 0001:0009c790       ??0ConvexMesh@Gu@physx@@QEAA@PEAVMeshFactory@12@AEAUConvexHullInitData@12@@Z 000000018009d790 f   GuConvexMesh.obj
 0001:0009c8b0       ??_GConvexMesh@Gu@physx@@UEAAPEAXI@Z 000000018009d8b0 f i GuConvexMesh.obj
 0001:0009c8b0       ??_EConvexMesh@Gu@physx@@UEAAPEAXI@Z 000000018009d8b0 f i GuConvexMesh.obj
 0001:0009c9b0       ??_GPxBVH@physx@@MEAAPEAXI@Z 000000018009d9b0 f i GuBVH.obj
 0001:0009c9b0       ??_EPxBase@physx@@MEAAPEAXI@Z 000000018009d9b0 f i GuConvexMesh.obj
 0001:0009c9b0       ??_GPxBase@physx@@MEAAPEAXI@Z 000000018009d9b0 f i GuConvexMesh.obj
 0001:0009c9b0       ??_EPxBVH@physx@@MEAAPEAXI@Z 000000018009d9b0 f i GuBVH.obj
 0001:0009c9e0       ?acquireReference@TetrahedronMesh@Gu@physx@@UEAAXXZ 000000018009d9e0 f   GuTetrahedronMesh.obj
 0001:0009c9e0       ?acquireReference@HeightField@Gu@physx@@UEAAXXZ 000000018009d9e0 f   GuHeightField.obj
 0001:0009c9e0       ?acquireReference@SoftBodyAuxData@Gu@physx@@UEAAXXZ 000000018009d9e0 f   GuTetrahedronMesh.obj
 0001:0009c9e0       ?acquireReference@SoftBodyMesh@Gu@physx@@UEAAXXZ 000000018009d9e0 f   GuTetrahedronMesh.obj
 0001:0009c9e0       ?acquireReference@TriangleMesh@Gu@physx@@UEAAXXZ 000000018009d9e0 f   GuTriangleMesh.obj
 0001:0009c9e0       ?acquireReference@ConvexMesh@Gu@physx@@UEAAXXZ 000000018009d9e0 f   GuConvexMesh.obj
 0001:0009ceb0       ?createObject@ConvexMesh@Gu@physx@@SAPEAV123@AEAPEAEAEAVPxDeserializationContext@3@@Z 000000018009deb0 f   GuConvexMesh.obj
 0001:0009cfa0       ?exportExtraData@ConvexMesh@Gu@physx@@UEAAXAEAVPxSerializationContext@3@@Z 000000018009dfa0 f   GuConvexMesh.obj
 0001:0009d070       ?getConcreteTypeName@PxConvexMesh@physx@@UEBAPEBDXZ 000000018009e070 f i GuConvexMesh.obj
 0001:0009d080       ?getIndexBuffer@ConvexMesh@Gu@physx@@UEBAPEBEXZ 000000018009e080 f i GuConvexMesh.obj
 0001:0009d0c0       ?getLocalBounds@ConvexMesh@Gu@physx@@UEBA?AVPxBounds3@3@XZ 000000018009e0c0 f   GuConvexMesh.obj
 0001:0009d150       ?getMassInformation@ConvexMesh@Gu@physx@@UEBAXAEAMAEAV?$PxMat33T@M@3@AEAV?$PxVec3T@M@3@@Z 000000018009e150 f   GuConvexMesh.obj
 0001:0009d1c0       ?getNbPolygons@ConvexMesh@Gu@physx@@UEBAIXZ 000000018009e1c0 f i GuConvexMesh.obj
 0001:0009d1d0       ?getNbVertices@ConvexMesh@Gu@physx@@UEBAIXZ 000000018009e1d0 f i GuConvexMesh.obj
 0001:0009d1e0       ?getPolygonData@ConvexMesh@Gu@physx@@UEBA_NIAEAUPxHullPolygon@3@@Z 000000018009e1e0 f   GuConvexMesh.obj
 0001:0009d230       ?getReferenceCount@TetrahedronMesh@Gu@physx@@UEBAIXZ 000000018009e230 f   GuTetrahedronMesh.obj
 0001:0009d230       ?getReferenceCount@TriangleMesh@Gu@physx@@UEBAIXZ 000000018009e230 f   GuTriangleMesh.obj
 0001:0009d230       ?getReferenceCount@ConvexMesh@Gu@physx@@UEBAIXZ 000000018009e230 f   GuConvexMesh.obj
 0001:0009d230       ?raw_length@DNameStatusNode@@UEBAHXZ 000000018009e230 f   libvcruntime:undname.obj
 0001:0009d230       ?getReferenceCount@HeightField@Gu@physx@@UEBAIXZ 000000018009e230 f   GuHeightField.obj
 0001:0009d230       ?length@DNameStatusNode@@UEBAHXZ 000000018009e230 f   libvcruntime:undname.obj
 0001:0009d230       ?getReferenceCount@SoftBodyAuxData@Gu@physx@@UEBAIXZ 000000018009e230 f   GuTetrahedronMesh.obj
 0001:0009d230       ?getReferenceCount@SoftBodyMesh@Gu@physx@@UEBAIXZ 000000018009e230 f   GuTetrahedronMesh.obj
 0001:0009d240       ?getSDF@ConvexMesh@Gu@physx@@UEBAPEBMXZ 000000018009e240 f   GuConvexMesh.obj
 0001:0009d250       ?getVertices@ConvexMesh@Gu@physx@@UEBAPEBV?$PxVec3T@M@3@XZ 000000018009e250 f i GuConvexMesh.obj
 0001:0009d270       ?isGpuCompatible@ConvexMesh@Gu@physx@@UEBA_NXZ 000000018009e270 f   GuConvexMesh.obj
 0001:0009d2b0       ?isKindOf@PxBase@physx@@MEBA_NPEBD@Z 000000018009e2b0 f i GuConvexMesh.obj
 0001:0009d2e0       ?isKindOf@PxConvexMesh@physx@@MEBA_NPEBD@Z 000000018009e2e0 f i GuConvexMesh.obj
 0001:0009d350       ?isReleasable@PxBase@physx@@UEBA_NXZ 000000018009e350 f i GuConvexMesh.obj
 0001:0009d360       ?load@ConvexMesh@Gu@physx@@QEAA_NAEAVPxInputStream@3@@Z 000000018009e360 f   GuConvexMesh.obj
 0001:0009d8f0       ?onRefCountZero@ConvexMesh@Gu@physx@@UEAAXXZ 000000018009e8f0 f   GuConvexMesh.obj
 0001:0009da20       ?release@ConvexMesh@Gu@physx@@UEAAXXZ 000000018009ea20 f   GuConvexMesh.obj
 0001:0009da20       ?release@HeightField@Gu@physx@@UEAAXXZ 000000018009ea20 f   GuHeightField.obj
 0001:0009da20       ?release@SoftBodyAuxData@Gu@physx@@UEAAXXZ 000000018009ea20 f   GuTetrahedronMesh.obj
 0001:0009da20       ?release@SoftBodyMesh@Gu@physx@@UEAAXXZ 000000018009ea20 f   GuTetrahedronMesh.obj
 0001:0009da20       ?release@TetrahedronMesh@Gu@physx@@UEAAXXZ 000000018009ea20 f   GuTetrahedronMesh.obj
 0001:0009da20       ?release@TriangleMesh@Gu@physx@@UEAAXXZ 000000018009ea20 f   GuTriangleMesh.obj
 0001:0009da50       ??Dphysx@@YA?AV?$PxMat34T@M@0@AEBVPxMeshScale@0@AEBV10@@Z 000000018009ea50 f i GuConvexUtilsInternal.obj
 0001:0009dfc0       ?computeHullOBB@Gu@physx@@YAXAEAVBox@12@AEBVPxBounds3@2@MAEBV?$PxMat34T@M@2@2AEBVFastVertex2ShapeScaling@Cm@2@_N@Z 000000018009efc0 f   GuConvexUtilsInternal.obj
 0001:0009e470       ?computeOBBAroundConvex@Gu@physx@@YAXAEAVBox@12@AEBVPxConvexMeshGeometry@2@PEBVPxConvexMesh@2@AEBV?$PxTransformT@M@2@@Z 000000018009f470 f   GuConvexUtilsInternal.obj
 0001:0009ecd0       ?computeVertexSpaceOBB@Gu@physx@@YAXAEAVBox@12@AEBV312@AEBV?$PxTransformT@M@2@AEBVPxMeshScale@2@@Z 000000018009fcd0 f   GuConvexUtilsInternal.obj
 0001:0009f000       ?transform@physx@@YA?AVBox@Gu@1@AEBV?$PxMat34T@M@1@AEBV231@@Z 00000001800a0000 f i GuConvexUtilsInternal.obj
 0001:0009f250       ?localSearch@physx@@YAXAEAIAEBV?$PxVec3T@M@1@PEBV21@PEBUBigConvexRawData@Gu@1@@Z 00000001800a0250 f   GuHillClimbing.obj
 0001:0009f380       ??0PCMPolygonalBox@Gu@physx@@QEAA@AEBV?$PxVec3T@M@2@@Z 00000001800a0380 f   GuPCMShapeConvex.obj
 0001:0009f380       ??0PolygonalBox@Gu@physx@@QEAA@AEBV?$PxVec3T@M@2@@Z 00000001800a0380 f   GuShapeConvex.obj
 0001:000a0840       ?getPolygonalData@PolygonalBox@Gu@physx@@QEBAXPEIAUPolygonalData@23@@Z 00000001800a1840 f   GuShapeConvex.obj
 0001:000a08b0       ?getPolygonalData_Convex@Gu@physx@@YAXPEIAUPolygonalData@12@PEIBUConvexHullData@12@AEBVFastVertex2ShapeScaling@Cm@2@@Z 00000001800a18b0 f   GuShapeConvex.obj
 0001:000a0a10       ?distancePointBoxSquared@Gu@physx@@YAMAEBV?$PxVec3T@M@2@00AEBV?$PxMat33T@M@2@PEAV32@@Z 00000001800a1a10 f   GuDistancePointBox.obj
 0001:000a0b60       ?closestPtPointTriangle@Gu@physx@@YA?AV?$PxVec3T@M@2@AEBV32@000AEAM1@Z 00000001800a1b60 f   GuDistancePointTriangle.obj
 0001:000a1080       ?distancePointTriangleSquared@Gu@physx@@YA?AT__m128@@AEBT3@000AEAT3@11@Z 00000001800a2080 f   GuDistancePointTriangle.obj
 0001:000a1dd0       ?distanceSegmentBoxSquared@Gu@physx@@YAMAEBV?$PxVec3T@M@2@000AEBV?$PxMat33T@M@2@PEAMPEAV32@@Z 00000001800a2dd0 f   GuDistanceSegmentBox.obj
 0001:000a2650       ?distanceSegmentSegmentSquared4@Gu@physx@@YA?AT__m128@@AEBT3@000000000AEAT3@1@Z 00000001800a3650 f   GuDistanceSegmentSegment.obj
 0001:000a2970       ?distanceSegmentSegmentSquared@Gu@physx@@YA?AT__m128@@AEBT3@000AEAT3@1@Z 00000001800a3970 f   GuDistanceSegmentSegment.obj
 0001:000a2b30       ?distanceSegmentSegmentSquared@Gu@physx@@YAMAEBV?$PxVec3T@M@2@000PEAM1@Z 00000001800a3b30 f   GuDistanceSegmentSegment.obj
 0001:000a2dc0       ?distanceSegmentSegmentSquared@Gu@physx@@YAMAEBV?$PxVec3T@M@2@0M00MPEAM1@Z 00000001800a3dc0 f   GuDistanceSegmentSegment.obj
 0001:000a3510       ?distanceSegmentTriangleSquared@Gu@physx@@YA?AT__m128@@AEBT3@0000AEAT3@1@Z 00000001800a4510 f   GuDistanceSegmentTriangle.obj
 0001:000a3c50       ?distanceSegmentTriangleSquared@Gu@physx@@YAMAEBV?$PxVec3T@M@2@0000PEAM11@Z 00000001800a4c50 f   GuDistanceSegmentTriangle.obj
 0001:000a52e0       ?PointOutsideOfPlane4@Gu@physx@@YA?AV?$PxVec4T@M@2@AEBV?$PxVec3T@M@2@0000@Z 00000001800a62e0 f   GuDistancePointTetrahedron.obj
 0001:000a5750       ?closestPtPointTetrahedron@Gu@physx@@YA?AV?$PxVec3T@M@2@AEBV32@0000AEBV?$PxVec4T@M@2@@Z 00000001800a6750 f   GuDistancePointTetrahedron.obj
 0001:000a6840       ?PenetrationDepth@EPA@Gu@physx@@QEAA?AW4GjkStatus@23@AEBUGjkConvex@23@0PEIBT__m128@@1E_NT6@AEAUGjkOutput@23@@Z 00000001800a7840 f   GuEPA.obj
 0001:000a7320       ?addFacet@EPA@Gu@physx@@QEAAPEAVFacet@23@IIIAEBT__m128@@@Z 00000001800a8320 f   GuEPA.obj
 0001:000a7760       ?epaPenetration@Gu@physx@@YA?AW4GjkStatus@12@AEBUGjkConvex@12@0PEIBE1E_NT__m128@@AEAUGjkOutput@12@@Z 00000001800a8760 f   GuEPA.obj
 0001:000a78d0       ?epaPenetration@Gu@physx@@YA?AW4GjkStatus@12@AEBUGjkConvex@12@0PEIBT__m128@@1E_NT5@AEAUGjkOutput@12@@Z 00000001800a88d0 f   GuEPA.obj
 0001:000a7980       ?silhouette@Facet@Gu@physx@@QEAAXAEBT__m128@@PEIBT4@1AEAVEdgeBuffer@23@AEAV?$InlineDeferredIDPool@$0EA@@Cm@3@@Z 00000001800a8980 f   GuEPA.obj
 0001:000a7b50       ?closestPtPointTetrahedron@Gu@physx@@YA?AT__m128@@PEIAT3@00AEAI@Z 00000001800a8b50 f   GuGJKSimplex.obj
 0001:000a82c0       ?closestPtPointTetrahedron@Gu@physx@@YA?AT__m128@@PEIAT3@00PEIAH1AEAI@Z 00000001800a92c0 f   GuGJKSimplex.obj
 0001:000a9d50       ??$gjk@UGjkConvex@Gu@physx@@U123@@Gu@physx@@YA?AW4GjkStatus@01@AEBUGjkConvex@01@0AEBT__m128@@1AEAT4@222@Z 00000001800aad50 f i GuGJKTest.obj
 0001:000aa970       ??$gjkPenetration@UGjkConvex@Gu@physx@@U123@@Gu@physx@@YA?AW4GjkStatus@01@AEBUGjkConvex@01@0AEBT__m128@@1_NPEIAE3AEAEAEAUGjkOutput@01@@Z 00000001800ab970 f i GuGJKTest.obj
 0001:000aa9e0       ??$gjkPenetration@UGjkConvex@Gu@physx@@U123@@Gu@physx@@YA?AW4GjkStatus@01@AEBUGjkConvex@01@0AEBT__m128@@1_NPEIAE3PEIAT4@4AEAEAEAUGjkOutput@01@@Z 00000001800ab9e0 f i GuGJKTest.obj
 0001:000abe00       ?testEpaPenetration@Gu@physx@@YA?AW4GjkStatus@12@AEBUGjkConvex@12@0PEBE1EAEAUGjkOutput@12@@Z 00000001800ace00 f   GuGJKTest.obj
 0001:000abe50       ?testGjk@Gu@physx@@YA?AW4GjkStatus@12@AEBUGjkConvex@12@0AEBT__m128@@1AEAT5@222@Z 00000001800ace50 f   GuGJKTest.obj
 0001:000abe60       ?testGjkPenetration@Gu@physx@@YA?AW4GjkStatus@12@AEBUGjkConvex@12@0AEBT__m128@@1PEAE2AEAEAEAUGjkOutput@12@@Z 00000001800ace60 f   GuGJKTest.obj
 0001:000abeb0       ??0HeightField@Gu@physx@@QEAA@PEAVMeshFactory@12@@Z 00000001800aceb0 f   GuHeightField.obj
 0001:000abf00       ??0HeightField@Gu@physx@@QEAA@PEAVMeshFactory@12@AEAUHeightFieldData@12@@Z 00000001800acf00 f   GuHeightField.obj
 0001:000abfb0       ??1HeightField@Gu@physx@@UEAA@XZ 00000001800acfb0 f   GuHeightField.obj
 0001:000ac030       ??_GHeightField@Gu@physx@@UEAAPEAXI@Z 00000001800ad030 f i GuHeightField.obj
 0001:000ac030       ??_EHeightField@Gu@physx@@UEAAPEAXI@Z 00000001800ad030 f i GuHeightField.obj
 0001:000ac0d0       ?computeCellCoordinates@HeightField@Gu@physx@@QEBAIMMAEAM0@Z 00000001800ad0d0 f   GuHeightField.obj
 0001:000ac1f0       ?createObject@HeightField@Gu@physx@@SAPEAV123@AEAPEAEAEAVPxDeserializationContext@3@@Z 00000001800ad1f0 f   GuHeightField.obj
 0001:000ac250       ?exportExtraData@HeightField@Gu@physx@@UEAAXAEAVPxSerializationContext@3@@Z 00000001800ad250 f   GuHeightField.obj
 0001:000ac2a0       ?getConcreteTypeName@PxHeightField@physx@@UEBAPEBDXZ 00000001800ad2a0 f i GuHeightField.obj
 0001:000ac2b0       ?getConvexEdgeThreshold@HeightField@Gu@physx@@UEBAMXZ 00000001800ad2b0 f i GuHeightField.obj
 0001:000ac2c0       ?getFlags@HeightField@Gu@physx@@UEBA?AV?$PxFlags@W4Enum@PxHeightFieldFlag@physx@@G@3@XZ 00000001800ad2c0 f i GuHeightField.obj
 0001:000ac2d0       ?getFormat@HeightField@Gu@physx@@UEBA?AW4Enum@PxHeightFieldFormat@3@XZ 00000001800ad2d0 f i GuHeightField.obj
 0001:000ac2e0       ?getHeight@HeightField@Gu@physx@@UEBAMMM@Z 00000001800ad2e0 f i GuHeightField.obj
 0001:000ac400       ?getNbColumns@HeightField@Gu@physx@@UEBAIXZ 00000001800ad400 f i GuHeightField.obj
 0001:000ac410       ?getNbBounds@BVH@Gu@physx@@UEBAIXZ 00000001800ad410 f i GuBVH.obj
 0001:000ac410       ?getNbPrimitives@TetrahedronSourceMesh@Gu@physx@@UEBAIXZ 00000001800ad410 f i GuBV4.obj
 0001:000ac410       ?getNbRows@HeightField@Gu@physx@@UEBAIXZ 00000001800ad410 f i GuHeightField.obj
 0001:000ac410       ?getNbPrimitives@SourceMesh@Gu@physx@@UEBAIXZ 00000001800ad410 f i GuBV4.obj
 0001:000ac420       ?getSample@HeightField@Gu@physx@@UEBAAEBUPxHeightFieldSample@3@II@Z 00000001800ad420 f i GuHeightField.obj
 0001:000ac430       ?getSampleStride@HeightField@Gu@physx@@UEBAIXZ 00000001800ad430 f i GuHeightField.obj
 0001:000ac440       ?getTimestamp@HeightField@Gu@physx@@UEBAIXZ 00000001800ad440 f i GuHeightField.obj
 0001:000ac450       ?getTriangleMaterialIndex@HeightField@Gu@physx@@UEBAGI@Z 00000001800ad450 f i GuHeightField.obj
 0001:000ac480       ?getTriangleNormal@HeightField@Gu@physx@@UEBA?AV?$PxVec3T@M@3@I@Z 00000001800ad480 f i GuHeightField.obj
 0001:000ac760       ?isCollisionVertexPreca@HeightField@Gu@physx@@QEBA_NIIIG@Z 00000001800ad760 f   GuHeightField.obj
 0001:000ac800       ?isConvexVertex@HeightField@Gu@physx@@QEBA_NIII@Z 00000001800ad800 f i GuHeightField.obj
 0001:000ac8d0       ?isKindOf@PxHeightField@physx@@MEBA_NPEBD@Z 00000001800ad8d0 f i GuHeightField.obj
 0001:000ac940       ?isSolidVertex@HeightField@Gu@physx@@QEBA_NIIIGAEA_N@Z 00000001800ad940 f   GuHeightField.obj
 0001:000acbd0       ?load@HeightField@Gu@physx@@QEAA_NAEAVPxInputStream@3@@Z 00000001800adbd0 f   GuHeightField.obj
 0001:000acf50       ?loadFromDesc@HeightField@Gu@physx@@QEAA_NAEBVPxHeightFieldDesc@3@@Z 00000001800adf50 f   GuHeightField.obj
 0001:000ad1f0       ?modifySamples@HeightField@Gu@physx@@UEAA_NHHAEBVPxHeightFieldDesc@3@_N@Z 00000001800ae1f0 f   GuHeightField.obj
 0001:000ad590       ?onRefCountZero@HeightField@Gu@physx@@UEAAXXZ 00000001800ae590 f   GuHeightField.obj
 0001:000ad660       ?parseTrianglesForCollisionVertices@HeightField@Gu@physx@@QEAAXG@Z 00000001800ae660 f   GuHeightField.obj
 0001:000adb40       ?releaseMemory@HeightField@Gu@physx@@QEAAXXZ 00000001800aeb40 f   GuHeightField.obj
 0001:000adb90       ?resizeAndClear@?$PxBitMapBase@VPxAllocator@physx@@@physx@@QEAAXI@Z 00000001800aeb90 f i GuHeightField.obj
 0001:000adc50       ?save@HeightField@Gu@physx@@QEAA_NAEAVPxOutputStream@3@_N@Z 00000001800aec50 f   GuHeightField.obj
 0001:000ade90       ?saveCells@HeightField@Gu@physx@@UEBAIPEAXI@Z 00000001800aee90 f   GuHeightField.obj
 0001:000aded0       ?computeLocalBounds@HeightFieldUtil@Gu@physx@@QEBAXAEAVPxBounds3@3@@Z 00000001800aeed0 f   GuHeightFieldUtil.obj
 0001:000ae390       ?getTriangle@HeightFieldUtil@Gu@physx@@QEBAIAEBV?$PxTransformT@M@3@AEAVPxTriangle@3@PEAI2I_N3@Z 00000001800af390 f   GuHeightFieldUtil.obj
 0001:000aeb90       ?getTriangleAdjacencyIndices@HeightField@Gu@physx@@QEBAXIIIIAEAI00@Z 00000001800afb90 f i GuHeightFieldUtil.obj
 0001:000aed70       ?getTriangleVertexIndices@HeightField@Gu@physx@@QEBAXIAEAI00@Z 00000001800afd70 f i GuHeightFieldUtil.obj
 0001:000aee30       ?overlapAABBTriangles@HeightFieldUtil@Gu@physx@@QEBAXAEBVPxBounds3@3@AEAVOverlapReport@23@I@Z 00000001800afe30 f   GuHeightFieldUtil.obj
 0001:000af290       ??$gjk@U?$RelativeConvex@VTriangleV@Gu@physx@@@Gu@physx@@U?$LocalConvex@VConvexHullV@Gu@physx@@@23@@Gu@physx@@YA?AW4GjkStatus@01@AEBU?$RelativeConvex@VTriangleV@Gu@physx@@@01@AEBU?$LocalConvex@VConvexHullV@Gu@physx@@@01@AEBT__m128@@2AEAT5@333@Z 00000001800b0290 f i GuOverlapTestsHF.obj
 0001:000b01d0       ?GeomOverlapCallback_BoxHeightfield@@YA_NAEBVPxGeometry@physx@@AEBV?$PxTransformT@M@2@01PEAUTriggerCache@Gu@2@PEAUPxQueryThreadContext@2@@Z 00000001800b11d0 f   GuOverlapTestsHF.obj
 0001:000b0730       ?GeomOverlapCallback_CapsuleHeightfield@@YA_NAEBVPxGeometry@physx@@AEBV?$PxTransformT@M@2@01PEAUTriggerCache@Gu@2@PEAUPxQueryThreadContext@2@@Z 00000001800b1730 f   GuOverlapTestsHF.obj
 0001:000b0d30       ?GeomOverlapCallback_ConvexHeightfield@@YA_NAEBVPxGeometry@physx@@AEBV?$PxTransformT@M@2@01PEAUTriggerCache@Gu@2@PEAUPxQueryThreadContext@2@@Z 00000001800b1d30 f   GuOverlapTestsHF.obj
 0001:000b1780       ?GeomOverlapCallback_SphereHeightfield@@YA_NAEBVPxGeometry@physx@@AEBV?$PxTransformT@M@2@01PEAUTriggerCache@Gu@2@PEAUPxQueryThreadContext@2@@Z 00000001800b2780 f   GuOverlapTestsHF.obj
 0001:000b2340       ??$gjkRaycast@U?$LocalConvex@VTriangleV@Gu@physx@@@Gu@physx@@U?$LocalConvex@VConvexHullV@Gu@physx@@@23@@Gu@physx@@YA_NAEBU?$LocalConvex@VTriangleV@Gu@physx@@@01@AEBU?$LocalConvex@VConvexHullV@Gu@physx@@@01@AEBT__m128@@222AEAT4@33M@Z 00000001800b3340 f i GuSweepsHF.obj
 0001:000b30e0       ??$traceSegment@VCapsuleTraceSegmentReport@@$0A@$00@HeightFieldTraceUtil@Gu@physx@@QEBAXAEBV?$PxVec3T@M@2@0MPEAVCapsuleTraceSegmentReport@@AEBVPxBounds3@2@_NPEBV32@@Z 00000001800b40e0 f i GuSweepsHF.obj
 0001:000b30e0       ??$traceSegment@VBoxTraceSegmentReport@@$0A@$00@HeightFieldTraceUtil@Gu@physx@@QEBAXAEBV?$PxVec3T@M@2@0MPEAVBoxTraceSegmentReport@@AEBVPxBounds3@2@_NPEBV32@@Z 00000001800b40e0 f i GuSweepsHF.obj
 0001:000b30e0       ??$traceSegment@VConvexTraceSegmentReport@@$0A@$00@HeightFieldTraceUtil@Gu@physx@@QEBAXAEBV?$PxVec3T@M@2@0MPEAVConvexTraceSegmentReport@@AEBVPxBounds3@2@_NPEBV32@@Z 00000001800b40e0 f i GuSweepsHF.obj
 0001:000b3b00       ??0ConvexTraceSegmentReport@@QEAA@AEBVHeightFieldUtil@Gu@physx@@AEBUConvexHullData@23@AEBVPxMeshScale@3@AEBV?$PxTransformT@M@3@3AEBV?$PxVec3T@M@3@MV?$PxFlags@W4Enum@PxHitFlag@physx@@G@3@M@Z 00000001800b4b00 f i GuSweepsHF.obj
 0001:000b4470       ??_EBoxTraceSegmentReport@@UEAAPEAXI@Z 00000001800b5470 f i GuSweepsHF.obj
 0001:000b4470       ??_GBoxTraceSegmentReport@@UEAAPEAXI@Z 00000001800b5470 f i GuSweepsHF.obj
 0001:000b44a0       ??_ECapsuleTraceSegmentReport@@UEAAPEAXI@Z 00000001800b54a0 f i GuSweepsHF.obj
 0001:000b44a0       ??_GCapsuleTraceSegmentReport@@UEAAPEAXI@Z 00000001800b54a0 f i GuSweepsHF.obj
 0001:000b44d0       ??_GConvexTraceSegmentReport@@UEAAPEAXI@Z 00000001800b54d0 f i GuSweepsHF.obj
 0001:000b44d0       ??_EConvexTraceSegmentReport@@UEAAPEAXI@Z 00000001800b54d0 f i GuSweepsHF.obj
 0001:000b4500       ??_GHeightFieldTraceSegmentReport@@UEAAPEAXI@Z 00000001800b5500 f i GuSweepsHF.obj
 0001:000b4500       ??_EHeightFieldTraceSegmentReport@@UEAAPEAXI@Z 00000001800b5500 f i GuSweepsHF.obj
 0001:000b4530       ?finalizeHit@ConvexTraceSegmentReport@@QEAA_NAEAUPxGeomSweepHit@physx@@AEBVPxHeightFieldGeometry@3@AEBV?$PxTransformT@M@3@AEBVPxConvexMeshGeometry@3@2AEBV?$PxVec3T@M@3@M@Z 00000001800b5530 f i GuSweepsHF.obj
 0001:000b4760       ?onEvent@BoxTraceSegmentReport@@UEAA_NIPEBI@Z 00000001800b5760 f i GuSweepsHF.obj
 0001:000b4bb0       ?onEvent@CapsuleTraceSegmentReport@@UEAA_NIPEBI@Z 00000001800b5bb0 f i GuSweepsHF.obj
 0001:000b4dc0       ?onEvent@ConvexTraceSegmentReport@@UEAA_NIPEBI@Z 00000001800b5dc0 f i GuSweepsHF.obj
 0001:000b5380       ?prepare@?$OverlapTraceSegment@VBoxTraceSegmentReport@@@HeightFieldTraceUtil@Gu@physx@@QEAAXAEBV?$PxVec3T@M@4@00AEAM1@Z 00000001800b6380 f i GuSweepsHF.obj
 0001:000b5380       ?prepare@?$OverlapTraceSegment@VConvexTraceSegmentReport@@@HeightFieldTraceUtil@Gu@physx@@QEAAXAEBV?$PxVec3T@M@4@00AEAM1@Z 00000001800b6380 f i GuSweepsHF.obj
 0001:000b5380       ?prepare@?$OverlapTraceSegment@VCapsuleTraceSegmentReport@@@HeightFieldTraceUtil@Gu@physx@@QEAAXAEBV?$PxVec3T@M@4@00AEAM1@Z 00000001800b6380 f i GuSweepsHF.obj
 0001:000b5620       ?sweepBox_HeightFieldGeom@@YA_NAEBVPxGeometry@physx@@AEBV?$PxTransformT@M@2@AEBVPxBoxGeometry@2@1AEBVBox@Gu@2@AEBV?$PxVec3T@M@2@MAEAUPxGeomSweepHit@2@V?$PxFlags@W4Enum@PxHitFlag@physx@@G@2@MPEAUPxQueryThreadContext@2@@Z 00000001800b6620 f   GuSweepsHF.obj
 0001:000b6460       ?sweepCapsule_HeightFieldGeom@@YA_NAEBVPxGeometry@physx@@AEBV?$PxTransformT@M@2@AEBVPxCapsuleGeometry@2@1AEBVCapsule@Gu@2@AEBV?$PxVec3T@M@2@MAEAUPxGeomSweepHit@2@V?$PxFlags@W4Enum@PxHitFlag@physx@@G@2@MPEAUPxQueryThreadContext@2@@Z 00000001800b7460 f   GuSweepsHF.obj
 0001:000b6db0       ?sweepConvex_HeightFieldGeom@@YA_NAEBVPxGeometry@physx@@AEBV?$PxTransformT@M@2@AEBVPxConvexMeshGeometry@2@1AEBV?$PxVec3T@M@2@MAEAUPxGeomSweepHit@2@V?$PxFlags@W4Enum@PxHitFlag@physx@@G@2@MPEAUPxQueryThreadContext@2@@Z 00000001800b7db0 f   GuSweepsHF.obj
 0001:000b7770       ?testVertexIndex@?$OverlapTraceSegment@VConvexTraceSegmentReport@@@HeightFieldTraceUtil@Gu@physx@@QEAA_NI@Z 00000001800b8770 f i GuSweepsHF.obj
 0001:000b7770       ?testVertexIndex@?$OverlapTraceSegment@VCapsuleTraceSegmentReport@@@HeightFieldTraceUtil@Gu@physx@@QEAA_NI@Z 00000001800b8770 f i GuSweepsHF.obj
 0001:000b7770       ?testVertexIndex@?$OverlapTraceSegment@VBoxTraceSegmentReport@@@HeightFieldTraceUtil@Gu@physx@@QEAA_NI@Z 00000001800b8770 f i GuSweepsHF.obj
 0001:000b78c0       ?transformFast@PxBounds3@physx@@SA?AV12@AEBV?$PxTransformT@M@2@AEBV12@@Z 00000001800b88c0 f i GuSweepsHF.obj
 0001:000b7ca0       ?intersectOBBOBB@Gu@physx@@YA_NAEBV?$PxVec3T@M@2@0AEBV?$PxMat33T@M@2@001_N@Z 00000001800b8ca0 f   GuIntersectionBoxBox.obj
 0001:000b8300       ?intersectCapsuleTriangle@Gu@physx@@YA_NAEBV?$PxVec3T@M@2@000AEBVCapsule@12@AEBUCapsuleTriangleOverlapData@12@@Z 00000001800b9300 f   GuIntersectionCapsuleTriangle.obj
 0001:000b8e90       ?intersectEdgeEdge@Gu@physx@@YA_NAEBV?$PxVec3T@M@2@0000AEAMAEAV32@@Z 00000001800b9e90 f   GuIntersectionEdgeEdge.obj
 0001:000b91c0       ?intersectRayAABB2@Gu@physx@@YA_NAEBT__m128@@0000AEAT3@1@Z 00000001800ba1c0 f   GuIntersectionRayBox.obj
 0001:000b9280       ?intersectRayAABB2@Gu@physx@@YA_NAEBV?$PxVec3T@M@2@000MAEAM1@Z 00000001800ba280 f   GuIntersectionRayBox.obj
 0001:000b9430       ?intersectRayAABB@Gu@physx@@YAHAEBV?$PxVec3T@M@2@000AEAM1@Z 00000001800ba430 f   GuIntersectionRayBox.obj
 0001:000b9550       ?rayAABBIntersect2@Gu@physx@@YAIAEBV?$PxVec3T@M@2@000AEAV32@AEAM@Z 00000001800ba550 f   GuIntersectionRayBox.obj
 0001:000b9760       ?intersectRayCapsuleInternal@Gu@physx@@YAIAEBV?$PxVec3T@M@2@000MQEAM@Z 00000001800ba760 f   GuIntersectionRayCapsule.obj
 0001:000b9c30       ?intersectRaySphere@Gu@physx@@YA_NAEBV?$PxVec3T@M@2@0M0MAEAMPEAV32@@Z 00000001800bac30 f   GuIntersectionRaySphere.obj
 0001:000b9d20       ?intersectRaySphereBasic@Gu@physx@@YA_NAEBV?$PxVec3T@M@2@0M0MAEAMPEAV32@@Z 00000001800bad20 f   GuIntersectionRaySphere.obj
 0001:000b9e80       ?intersectSphereBox@Gu@physx@@YA_NAEBVSphere@12@AEBVBox@12@@Z 00000001800bae80 f   GuIntersectionSphereBox.obj
 0001:000ba0b0       ?intersectTetrahedronBox@Gu@physx@@YA_NAEBV?$PxVec3T@M@2@000AEBVPxBounds3@2@@Z 00000001800bb0b0 f   GuIntersectionTetrahedronBox.obj
 0001:000ba490       ?intersectTriangleBox@Gu@physx@@YAHAEBVBoxPadded@12@AEBV?$PxVec3T@M@2@11@Z 00000001800bb490 f   GuIntersectionTriangleBox.obj
 0001:000baa60       ?intersectTriangleBoxBV4@@YAHAEBV?$PxVec3T@M@physx@@00AEBV?$PxMat33T@M@2@00@Z 00000001800bba60 f   GuIntersectionTriangleBox.obj
 0001:000baea0       ?intersectTriangleBox_ReferenceCode@Gu@physx@@YAHAEBV?$PxVec3T@M@2@0000@Z 00000001800bbea0 f   GuIntersectionTriangleBox.obj
 0001:000bb6d0       ?intersectTriangleBox_Unsafe@Gu@physx@@YAHAEBV?$PxVec3T@M@2@0000@Z 00000001800bc6d0 f   GuIntersectionTriangleBox.obj
 0001:000bbd80       ?trianglesIntersect@Gu@physx@@YA_NAEBV?$PxVec3T@M@2@00000PEAVSegment@12@@Z 00000001800bcd80 f   GuIntersectionTriangleTriangle.obj
 0001:000bc370       ??0BV4Tree@Gu@physx@@QEAA@W4PxEMPTY@2@@Z 00000001800bd370 f   GuBV4.obj
 0001:000bc380       ??0BV4Tree@Gu@physx@@QEAA@XZ 00000001800bd380 f   GuBV4.obj
 0001:000bc3b0       ??0SourceMesh@Gu@physx@@QEAA@XZ 00000001800bd3b0 f   GuBV4.obj
 0001:000bc3e0       ??0TetrahedronSourceMesh@Gu@physx@@QEAA@XZ 00000001800bd3e0 f   GuBV4.obj
 0001:000bc410       ??1BV4Tree@Gu@physx@@QEAA@XZ 00000001800bd410 f   GuBV4.obj
 0001:000bc470       ??1TetrahedronSourceMesh@Gu@physx@@UEAA@XZ 00000001800bd470 f   GuBV4.obj
 0001:000bc470       ??1SourceMesh@Gu@physx@@UEAA@XZ 00000001800bd470 f   GuBV4.obj
 0001:000bc4c0       ??4BV4Tree@Gu@physx@@QEAAXAEAV012@@Z 00000001800bd4c0 f   GuBV4.obj
 0001:000bc550       ??4SourceMesh@Gu@physx@@QEAAXAEAV012@@Z 00000001800bd550 f   GuBV4.obj
 0001:000bc5a0       ??_ETetrahedronSourceMesh@Gu@physx@@UEAAPEAXI@Z 00000001800bd5a0 f i GuBV4.obj
 0001:000bc5a0       ??_ESourceMesh@Gu@physx@@UEAAPEAXI@Z 00000001800bd5a0 f i GuBV4.obj
 0001:000bc5a0       ??_GSourceMesh@Gu@physx@@UEAAPEAXI@Z 00000001800bd5a0 f i GuBV4.obj
 0001:000bc5a0       ??_GTetrahedronSourceMesh@Gu@physx@@UEAAPEAXI@Z 00000001800bd5a0 f i GuBV4.obj
 0001:000bc640       ??_ESourceMeshBase@Gu@physx@@UEAAPEAXI@Z 00000001800bd640 f i GuBV4.obj
 0001:000bc640       ??_GSourceMeshBase@Gu@physx@@UEAAPEAXI@Z 00000001800bd640 f i GuBV4.obj
 0001:000bc6e0       ?exportExtraData@BV4Tree@Gu@physx@@QEAAXAEAVPxSerializationContext@3@@Z 00000001800bd6e0 f   GuBV4.obj
 0001:000bc740       ?getPrimitiveBox@SourceMesh@Gu@physx@@UEAAXIAEAT__m128@@0@Z 00000001800bd740 f   GuBV4.obj
 0001:000bc7e0       ?getPrimitiveBox@TetrahedronSourceMesh@Gu@physx@@UEAAXIAEAT__m128@@0@Z 00000001800bd7e0 f   GuBV4.obj
 0001:000bc8a0       ?importExtraData@BV4Tree@Gu@physx@@QEAAXAEAVPxDeserializationContext@3@@Z 00000001800bd8a0 f   GuBV4.obj
 0001:000bc8e0       ?init@BV32Tree@Gu@physx@@QEAA_NPEAVSourceMeshBase@23@AEBVPxBounds3@3@@Z 00000001800bd8e0 f   GuBV32.obj
 0001:000bc8e0       ?init@BV4Tree@Gu@physx@@QEAA_NPEAVSourceMeshBase@23@AEBVPxBounds3@3@@Z 00000001800bd8e0 f   GuBV4.obj
 0001:000bc980       ?load@BV4Tree@Gu@physx@@QEAA_NAEAVPxInputStream@3@_N@Z 00000001800bd980 f   GuBV4.obj
 0001:000bcbc0       ?refit@BV4Tree@Gu@physx@@QEAA_NAEAVPxBounds3@3@M@Z 00000001800bdbc0 f   GuBV4.obj
 0001:000bd310       ?refit@SourceMesh@Gu@physx@@UEAAXIAEAVPxBounds3@3@@Z 00000001800be310 f   GuBV4.obj
 0001:000bd4b0       ?refit@TetrahedronSourceMesh@Gu@physx@@UEAAXIAEAVPxBounds3@3@@Z 00000001800be4b0 f   GuBV4.obj
 0001:000bd6d0       ?remapTopology@SourceMesh@Gu@physx@@UEAAXPEBI@Z 00000001800be6d0 f   GuBV4.obj
 0001:000bd970       ?remapTopology@TetrahedronSourceMesh@Gu@physx@@UEAAXPEBI@Z 00000001800be970 f   GuBV4.obj
 0001:000bdc10       ??0BV4_AABBTree@Gu@physx@@QEAA@XZ 00000001800bec10 f   GuBV4Build.obj
 0001:000bdc20       ??0BVData@@QEAA@XZ         00000001800bec20 f   GuBV4Build.obj
 0001:000bdc50       ??0BuildStats@Gu@physx@@QEAA@XZ 00000001800bec50 f i GuBV4Build.obj
 0001:000bdc60       ??1BV4_AABBTree@Gu@physx@@QEAA@XZ 00000001800bec60 f   GuBV4Build.obj
 0001:000bdc70       ??4BuildStats@Gu@physx@@QEAAAEAU012@$$QEAU012@@Z 00000001800bec70 f i GuBV4Build.obj
 0001:000bdc80       ??4BuildStats@Gu@physx@@QEAAAEAU012@AEBU012@@Z 00000001800bec80 f i GuBV4Build.obj
 0001:000bdc90       ?BuildBV4Ex@Gu@physx@@YA_NAEAVBV4Tree@12@AEAVSourceMeshBase@12@MI_NW4BV4_BuildStrategy@12@@Z 00000001800bec90 f   GuBV4Build.obj
 0001:000bebe0       ?allocateNode@BV4BuildParams@@QEAAPEAUBV4Node@@XZ 00000001800bfbe0 f   GuBV4Build.obj
 0001:000bf060       ?buildFromMesh@BV4_AABBTree@Gu@physx@@QEAA_NAEAVSourceMeshBase@23@IW4BV4_BuildStrategy@23@@Z 00000001800c0060 f   GuBV4Build.obj
 0001:000c0110       ?increaseCount@BuildStats@Gu@physx@@QEAAXI@Z 00000001800c1110 f i GuBV4Build.obj
 0001:000c0ba0       ?release@BV4_AABBTree@Gu@physx@@QEAAXXZ 00000001800c1ba0 f   GuBV4Build.obj
 0001:000c0c40       ?releaseNodes@BV4BuildParams@@QEAAXXZ 00000001800c1c40 f   GuBV4Build.obj
 0001:000c0cb0       ?reset@BuildStats@Gu@physx@@QEAAXXZ 00000001800c1cb0 f i GuBV4Build.obj
 0001:000c0cc0       ?setCount@BuildStats@Gu@physx@@QEAAXI@Z 00000001800c1cc0 f i GuBV4Build.obj
 0001:000c1340       ?walk@BV4_AABBTree@Gu@physx@@QEBAIP6A_NPEBVAABBTreeNode@23@IPEAX@Z1@Z 00000001800c2340 f   GuBV4Build.obj
 0001:000c1400       ?walkDistance@BV4_AABBTree@Gu@physx@@QEBAIP6A_NPEBVAABBTreeNode@23@IPEAX@ZP6A_N01@Z1@Z 00000001800c2400 f   GuBV4Build.obj
 0001:000c5460       ?GenericSweep_AABB_CB@@YAXAEBVBox@Gu@physx@@AEBV?$PxVec3T@M@3@MAEBVBV4Tree@23@P6A_NPEAX111IAEAM@Z3I@Z 00000001800c6460 f   GuBV4_AABBSweep.obj
 0001:000c55c0       ?Sweep_AABB_BV4@@YAHAEBVBox@Gu@physx@@AEBV?$PxVec3T@M@3@MAEBVBV4Tree@23@PEIAVSweepHit@23@I@Z 00000001800c65c0 f   GuBV4_AABBSweep.obj
 0001:000ce140       ?BV4_OverlapBoxAll@@YAIAEBVBox@Gu@physx@@AEBVBV4Tree@23@PEIBV?$PxMat44T@M@3@PEAIIAEA_N@Z 00000001800cf140 f   GuBV4_BoxOverlap.obj
 0001:000ce960       ?BV4_OverlapBoxAny@@YAHAEBVBox@Gu@physx@@AEBVBV4Tree@23@PEIBV?$PxMat44T@M@3@@Z 00000001800cf960 f   GuBV4_BoxOverlap.obj
 0001:000cf120       ?BV4_OverlapBoxCB@@YAXAEBVBox@Gu@physx@@AEBVBV4Tree@23@P6A_NPEAXAEBV?$PxVec3T@M@3@333IPEBI@Z2@Z 00000001800d0120 f   GuBV4_BoxOverlap.obj
 0001:000cf7e0       ?BV4_OverlapBoxCB@@YAXAEBVBox@Gu@physx@@AEBVBV4Tree@23@P6A_NPEAXAEBV?$PxVec3T@M@3@33IPEBI@Z2@Z 00000001800d07e0 f   GuBV4_BoxOverlap.obj
 0001:000cfc90       ?BV4_OverlapCapsuleAll@@YAIAEBVCapsule@Gu@physx@@AEBVBV4Tree@23@PEIBV?$PxMat44T@M@3@PEAIIAEA_N@Z 00000001800d0c90 f   GuBV4_BoxOverlap.obj
 0001:000d03b0       ?BV4_OverlapCapsuleAny@@YAHAEBVCapsule@Gu@physx@@AEBVBV4Tree@23@PEIBV?$PxMat44T@M@3@@Z 00000001800d13b0 f   GuBV4_BoxOverlap.obj
 0001:000d3190       ?BV4_CapsuleSweepSingle@@YAHAEBVCapsule@Gu@physx@@AEBV?$PxVec3T@M@3@MAEBVBV4Tree@23@PEIAVSweepHit@23@I@Z 00000001800d4190 f   GuBV4_CapsuleSweep.obj
 0001:000d72b0       ?BV4_CapsuleSweepSingleAA@@YAHAEBVCapsule@Gu@physx@@AEBV?$PxVec3T@M@3@MAEBVBV4Tree@23@PEIAVSweepHit@23@I@Z 00000001800d82b0 f   GuBV4_CapsuleSweepAA.obj
 0001:000e73b0       ?BV4_OverlapMeshVsMesh@@YA_NAEAV?$PxReportCallback@UPxGeomIndexPair@physx@@@physx@@AEBVBV4Tree@Gu@2@1PEBV?$PxMat44T@M@2@2AEBV?$PxTransformT@M@2@3AEBVPxMeshScale@2@4V?$PxFlags@W4Enum@PxMeshMeshQueryFlag@physx@@I@2@@Z 00000001800e83b0 f   GuBV4_MeshMeshOverlap.obj
 0001:000e75d0       ?BV4_OverlapMeshVsMesh@@YA_NAEAV?$PxReportCallback@UPxGeomIndexPair@physx@@@physx@@AEBVBV4Tree@Gu@2@1PEBV?$PxMat44T@M@2@2V?$PxFlags@W4Enum@PxMeshMeshQueryFlag@physx@@I@2@@Z 00000001800e85d0 f   GuBV4_MeshMeshOverlap.obj
 0001:000ee860       ??D?$PxMat33T@M@physx@@QEBA?BV?$PxVec3T@M@1@AEBV21@@Z 00000001800ef860 f i GuBV4_OBBSweep.obj
 0001:000ee8f0       ?BV4_BoxSweepSingle@@YAHAEBVBox@Gu@physx@@AEBV?$PxVec3T@M@3@MAEBVBV4Tree@23@PEIBV?$PxMat44T@M@3@PEIAVSweepHit@23@I@Z 00000001800ef8f0 f   GuBV4_OBBSweep.obj
 0001:000ef020       ?BV4_GenericSweepCB@@YAXAEBVBox@Gu@physx@@AEBV?$PxVec3T@M@3@MAEBVBV4Tree@23@P6A_NPEAX111IAEAM@Z3_N@Z 00000001800f0020 f   GuBV4_OBBSweep.obj
 0001:000ef240       ?Sweep_OBB_BV4@@YAHAEBVBox@Gu@physx@@AEBV?$PxVec3T@M@3@MAEBVBV4Tree@23@PEIAVSweepHit@23@I@Z 00000001800f0240 f   GuBV4_OBBSweep.obj
 0001:000f1db0       ?BV4_RaycastCB@@YAXAEBV?$PxVec3T@M@physx@@0AEBVBV4Tree@Gu@2@PEIBV?$PxMat44T@M@2@MMIP6A?AW4HitCode@42@PEAX000IMMM@Z3@Z 00000001800f2db0 f   GuBV4_Raycast.obj
 0001:000f21f0       ?BV4_RaycastSingle@@YAHAEBV?$PxVec3T@M@physx@@0AEBVBV4Tree@Gu@2@PEIBV?$PxMat44T@M@2@PEIAUPxGeomRaycastHit@2@MMIV?$PxFlags@W4Enum@PxHitFlag@physx@@G@2@@Z 00000001800f31f0 f   GuBV4_Raycast.obj
 0001:000f4720       ?BV4_OverlapSphereAll@@YAIAEBVSphere@Gu@physx@@AEBVBV4Tree@23@PEIBV?$PxMat44T@M@3@PEAIIAEA_N@Z 00000001800f5720 f   GuBV4_SphereOverlap.obj
 0001:000f4a40       ?BV4_OverlapSphereAny@@YAHAEBVSphere@Gu@physx@@AEBVBV4Tree@23@PEIBV?$PxMat44T@M@3@@Z 00000001800f5a40 f   GuBV4_SphereOverlap.obj
 0001:000f4d20       ?BV4_PointDistance@@YAXAEBV?$PxVec3T@M@physx@@AEBVBV4Tree@Gu@2@MAEAIAEAMAEAV12@@Z 00000001800f5d20 f   GuBV4_SphereOverlap.obj
 0001:000fb6d0       ?BV4_GenericSweepCB_Old@@YAXAEBV?$PxVec3T@M@physx@@00MAEBVBV4Tree@Gu@2@PEIBV?$PxMat44T@M@2@P6A_NPEAX000IAEAM@Z3@Z 00000001800fc6d0 f   GuBV4_SphereSweep.obj
 0001:000fbae0       ?BV4_SphereSweepSingle@@YAHAEBVSphere@Gu@physx@@AEBV?$PxVec3T@M@3@MAEBVBV4Tree@23@PEIBV?$PxMat44T@M@3@PEIAVSweepHit@23@I@Z 00000001800fcae0 f   GuBV4_SphereSweep.obj
 0001:000fcdf0       ?computeSweepData@physx@@YAMAEBVPxTriangleMeshGeometry@1@AEAV?$PxVec3T@M@1@11M@Z 00000001800fddf0 f i GuMidphaseBV4.obj
 0001:000fe230       ?intersectBoxVsMesh_BV4@Gu@physx@@YA_NAEBVBox@12@AEBVTriangleMesh@12@AEBV?$PxTransformT@M@2@AEBVPxMeshScale@2@PEAULimitedResults@12@@Z 00000001800ff230 f   GuMidphaseBV4.obj
 0001:000fecd0       ?intersectCapsuleVsMesh_BV4@Gu@physx@@YA_NAEBVCapsule@12@AEBVTriangleMesh@12@AEBV?$PxTransformT@M@2@AEBVPxMeshScale@2@PEAULimitedResults@12@@Z 00000001800ffcd0 f   GuMidphaseBV4.obj
 0001:000ff4e0       ?intersectMeshVsMesh_BV4@Gu@physx@@YA_NAEAV?$PxReportCallback@UPxGeomIndexPair@physx@@@2@AEBVTriangleMesh@12@1AEBV?$PxTransformT@M@2@2AEBVPxMeshScale@2@3V?$PxFlags@W4Enum@PxMeshMeshQueryFlag@physx@@I@2@@Z 00000001801004e0 f   GuMidphaseBV4.obj
 0001:000ffdf0       ?intersectOBB_BV4@Gu@physx@@YAXPEBVTetrahedronMesh@12@AEBVBox@12@AEAU?$TetMeshHitCallback@UPxGeomRaycastHit@physx@@@12@@Z 0000000180100df0 f   GuMidphaseBV4.obj
 0001:000ffe10       ?intersectOBB_BV4@Gu@physx@@YAXPEBVTriangleMesh@12@AEBVBox@12@AEAU?$MeshHitCallback@UPxGeomRaycastHit@physx@@@12@_N3@Z 0000000180100e10 f   GuMidphaseBV4.obj
 0001:000ffe30       ?intersectSphereVsMesh_BV4@Gu@physx@@YA_NAEBVSphere@12@AEBVTriangleMesh@12@AEBV?$PxTransformT@M@2@AEBVPxMeshScale@2@PEAULimitedResults@12@@Z 0000000180100e30 f   GuMidphaseBV4.obj
 0001:00100530       ?pointMeshDistance_BV4@Gu@physx@@YAXPEBVTriangleMesh@12@AEBVPxTriangleMeshGeometry@2@AEBV?$PxTransformT@M@2@AEBV?$PxVec3T@M@2@MAEAIAEAMAEAV62@@Z 0000000180101530 f   GuMidphaseBV4.obj
 0001:00100be0       ?raycast_triangleMesh_BV4@Gu@physx@@YAIPEBVTriangleMesh@12@AEBVPxTriangleMeshGeometry@2@AEBV?$PxTransformT@M@2@AEBV?$PxVec3T@M@2@3MV?$PxFlags@W4Enum@PxHitFlag@physx@@G@2@IPEIAUPxGeomRaycastHit@2@I@Z 0000000180101be0 f   GuMidphaseBV4.obj
 0001:001019f0       ?sweepBox_MeshGeom_BV4@Gu@physx@@YA_NPEBVTriangleMesh@12@AEBVPxTriangleMeshGeometry@2@AEBV?$PxTransformT@M@2@AEBVBox@12@AEBV?$PxVec3T@M@2@MAEAUPxGeomSweepHit@2@V?$PxFlags@W4Enum@PxHitFlag@physx@@G@2@M@Z 00000001801029f0 f   GuMidphaseBV4.obj
 0001:00103150       ?sweepCapsule_MeshGeom_BV4@Gu@physx@@YA_NPEBVTriangleMesh@12@AEBVPxTriangleMeshGeometry@2@AEBV?$PxTransformT@M@2@AEBVCapsule@12@AEBV?$PxVec3T@M@2@MAEAUPxGeomSweepHit@2@V?$PxFlags@W4Enum@PxHitFlag@physx@@G@2@M@Z 0000000180104150 f   GuMidphaseBV4.obj
 0001:00103c50       ?sweepConvex_MeshGeom_BV4@Gu@physx@@YAXPEBVTriangleMesh@12@AEBVBox@12@AEBV?$PxVec3T@M@2@MAEAUSweepConvexMeshHitCallback@12@_N@Z 0000000180104c50 f   GuMidphaseBV4.obj
 0001:00103c90       ?transform@PxMeshScale@physx@@QEBA?AV?$PxVec3T@M@2@AEBV32@@Z 0000000180104c90 f i GuMidphaseBV4.obj
 0001:00103ed0       ?findOverlapHeightField@PxMeshQuery@physx@@SAIAEBVPxGeometry@2@AEBV?$PxTransformT@M@2@AEBVPxHeightFieldGeometry@2@1PEAIIIAEA_NV?$PxFlags@W4Enum@PxGeometryQueryFlag@physx@@I@2@@Z 0000000180104ed0 f   GuMeshQuery.obj
 0001:00104620       ?findOverlapTriangleMesh@PxMeshQuery@physx@@SAIAEBVPxGeometry@2@AEBV?$PxTransformT@M@2@AEBVPxTriangleMeshGeometry@2@1PEAIIIAEA_NV?$PxFlags@W4Enum@PxGeometryQueryFlag@physx@@I@2@@Z 0000000180105620 f   GuMeshQuery.obj
 0001:00104970       ?findOverlapTriangleMesh@PxMeshQuery@physx@@SA_NAEAV?$PxReportCallback@UPxGeomIndexPair@physx@@@2@AEBVPxTriangleMeshGeometry@2@AEBV?$PxTransformT@M@2@12V?$PxFlags@W4Enum@PxGeometryQueryFlag@physx@@I@2@V?$PxFlags@W4Enum@PxMeshMeshQueryFlag@physx@@I@2@@Z 0000000180105970 f   GuMeshQuery.obj
 0001:00104a80       ?getTriangle@PxMeshQuery@physx@@SAXAEBVPxHeightFieldGeometry@2@AEBV?$PxTransformT@M@2@IAEAVPxTriangle@2@PEAI3@Z 0000000180105a80 f   GuMeshQuery.obj
 0001:00104b00       ?getTriangle@PxMeshQuery@physx@@SAXAEBVPxTriangleMeshGeometry@2@AEBV?$PxTransformT@M@2@IAEAVPxTriangle@2@PEAI3@Z 0000000180105b00 f   GuMeshQuery.obj
 0001:00105060       ?sweep@PxMeshQuery@physx@@SA_NAEBV?$PxVec3T@M@2@MAEBVPxGeometry@2@AEBV?$PxTransformT@M@2@IPEBVPxTriangle@2@AEAUPxGeomSweepHit@2@V?$PxFlags@W4Enum@PxHitFlag@physx@@G@2@PEBIM_NV?$PxFlags@W4Enum@PxGeometryQueryFlag@physx@@I@2@@Z 0000000180106060 f   GuMeshQuery.obj
 0001:001054c0       ??$collide@$00$00@MeshRayCollider@@SAXAEBV?$PxVec3T@M@physx@@0M_NPEBVRTreeTriangleMesh@Gu@2@AEAU?$MeshHitCallback@UPxGeomRaycastHit@physx@@@42@PEBV12@@Z 00000001801064c0 f i GuMidphaseRTree.obj
 0001:00105830       ??$collide@$00$0A@@MeshRayCollider@@SAXAEBV?$PxVec3T@M@physx@@0M_NPEBVRTreeTriangleMesh@Gu@2@AEAU?$MeshHitCallback@UPxGeomRaycastHit@physx@@@42@PEBV12@@Z 0000000180106830 f i GuMidphaseRTree.obj
 0001:00105a70       ??$collide@$0A@$00@MeshRayCollider@@SAXAEBV?$PxVec3T@M@physx@@0M_NPEBVRTreeTriangleMesh@Gu@2@AEAU?$MeshHitCallback@UPxGeomRaycastHit@physx@@@42@PEBV12@@Z 0000000180106a70 f i GuMidphaseRTree.obj
 0001:00107dc0       ??0?$RayRTreeCallback@$00$0A@@@QEAA@MAEAU?$MeshHitCallback@UPxGeomRaycastHit@physx@@@Gu@physx@@HPEBXPEBV?$PxVec3T@M@3@AEBV43@3M_N2@Z 0000000180108dc0 f i GuMidphaseRTree.obj
 0001:00107ee0       ??1?$RayRTreeCallback@$00$00@@UEAA@XZ 0000000180108ee0 f i GuMidphaseRTree.obj
 0001:00107f70       ??1?$RayRTreeCallback@$0A@$0A@@@UEAA@XZ 0000000180108f70 f i GuMidphaseRTree.obj
 0001:00107f70       ??1?$RayRTreeCallback@$00$0A@@@UEAA@XZ 0000000180108f70 f i GuMidphaseRTree.obj
 0001:00108000       ??1?$RayRTreeCallback@$0A@$00@@UEAA@XZ 0000000180109000 f i GuMidphaseRTree.obj
 0001:00108088       ??_E?$RayRTreeCallback@$00$00@@W7EAAPEAXI@Z 0000000180109088 f i GuMidphaseRTree.obj
 0001:00108094       ??_E?$RayRTreeCallback@$00$0A@@@W7EAAPEAXI@Z 0000000180109094 f i GuMidphaseRTree.obj
 0001:00108094       ??_E?$RayRTreeCallback@$0A@$0A@@@W7EAAPEAXI@Z 0000000180109094 f i GuMidphaseRTree.obj
 0001:001080a0       ??_E?$RayRTreeCallback@$0A@$00@@W7EAAPEAXI@Z 00000001801090a0 f i GuMidphaseRTree.obj
 0001:00108110       ??_G?$RayRTreeCallback@$00$00@@UEAAPEAXI@Z 0000000180109110 f i GuMidphaseRTree.obj
 0001:00108110       ??_E?$RayRTreeCallback@$00$00@@UEAAPEAXI@Z 0000000180109110 f i GuMidphaseRTree.obj
 0001:00108150       ??_E?$RayRTreeCallback@$0A@$0A@@@UEAAPEAXI@Z 0000000180109150 f i GuMidphaseRTree.obj
 0001:00108150       ??_G?$RayRTreeCallback@$0A@$0A@@@UEAAPEAXI@Z 0000000180109150 f i GuMidphaseRTree.obj
 0001:00108150       ??_G?$RayRTreeCallback@$00$0A@@@UEAAPEAXI@Z 0000000180109150 f i GuMidphaseRTree.obj
 0001:00108150       ??_E?$RayRTreeCallback@$00$0A@@@UEAAPEAXI@Z 0000000180109150 f i GuMidphaseRTree.obj
 0001:00108190       ??_G?$RayRTreeCallback@$0A@$00@@UEAAPEAXI@Z 0000000180109190 f i GuMidphaseRTree.obj
 0001:00108190       ??_E?$RayRTreeCallback@$0A@$00@@UEAAPEAXI@Z 0000000180109190 f i GuMidphaseRTree.obj
 0001:001081d0       ??_GCallback@RTree@Gu@physx@@UEAAPEAXI@Z 00000001801091d0 f i GuMidphaseRTree.obj
 0001:001081d0       ??_ECallback@RTree@Gu@physx@@UEAAPEAXI@Z 00000001801091d0 f i GuMidphaseRTree.obj
 0001:00108200       ??_ESweepCapsuleMeshHitCallback@Gu@physx@@UEAAPEAXI@Z 0000000180109200 f i GuSweepsMesh.obj
 0001:00108200       ??_GRayMeshColliderCallback@@UEAAPEAXI@Z 0000000180109200 f i GuMidphaseRTree.obj
 0001:00108200       ??_ERayMeshColliderCallback@@UEAAPEAXI@Z 0000000180109200 f i GuMidphaseRTree.obj
 0001:00108200       ??_GSweepCapsuleMeshHitCallback@Gu@physx@@UEAAPEAXI@Z 0000000180109200 f i GuSweepsMesh.obj
 0001:00108230       ?collideOBB@MeshRayCollider@@SAXAEBVBox@Gu@physx@@_NPEBVRTreeTriangleMesh@34@AEAU?$MeshHitCallback@UPxGeomRaycastHit@physx@@@34@1@Z 0000000180109230 f   GuMidphaseRTree.obj
 0001:00108700       ?intersectBoxVsMesh_RTREE@Gu@physx@@YA_NAEBVBox@12@AEBVTriangleMesh@12@AEBV?$PxTransformT@M@2@AEBVPxMeshScale@2@PEAULimitedResults@12@@Z 0000000180109700 f   GuMidphaseRTree.obj
 0001:00108770       ?intersectCapsuleVsMesh_RTREE@Gu@physx@@YA_NAEBVCapsule@12@AEBVTriangleMesh@12@AEBV?$PxTransformT@M@2@AEBVPxMeshScale@2@PEAULimitedResults@12@@Z 0000000180109770 f   GuMidphaseRTree.obj
 0001:001087f0       ?intersectOBB_RTREE@Gu@physx@@YAXPEBVTriangleMesh@12@AEBVBox@12@AEAU?$MeshHitCallback@UPxGeomRaycastHit@physx@@@12@_N3@Z 00000001801097f0 f   GuMidphaseRTree.obj
 0001:00108820       ?intersectSphereVsMesh_RTREE@Gu@physx@@YA_NAEBVSphere@12@AEBVTriangleMesh@12@AEBV?$PxTransformT@M@2@AEBVPxMeshScale@2@PEAULimitedResults@12@@Z 0000000180109820 f   GuMidphaseRTree.obj
 0001:00108850       ?pointMeshDistance_RTREE@Gu@physx@@YAXPEBVTriangleMesh@12@AEBVPxTriangleMeshGeometry@2@AEBV?$PxTransformT@M@2@AEBV?$PxVec3T@M@2@MAEAIAEAMAEAV62@@Z 0000000180109850 f   GuMidphaseRTree.obj
 0001:00109650       ?processHit@RayMeshColliderCallback@@UEAA_NAEBUPxGeomRaycastHit@physx@@AEBV?$PxVec3T@M@3@11AEAMPEBI@Z 000000018010a650 f i GuMidphaseRTree.obj
 0001:00109e00       ?processResults@?$RayRTreeCallback@$00$00@@UEAA_NIPEAI@Z 000000018010ae00 f i GuMidphaseRTree.obj
 0001:0010a170       ?processResults@?$RayRTreeCallback@$00$00@@UEAA_NIPEAIAEAM@Z 000000018010b170 f i GuMidphaseRTree.obj
 0001:0010a4e0       ?processResults@?$RayRTreeCallback@$00$0A@@@UEAA_NIPEAI@Z 000000018010b4e0 f i GuMidphaseRTree.obj
 0001:0010a4e0       ?processResults@?$RayRTreeCallback@$0A@$0A@@@UEAA_NIPEAI@Z 000000018010b4e0 f i GuMidphaseRTree.obj
 0001:0010a750       ?processResults@?$RayRTreeCallback@$00$0A@@@UEAA_NIPEAIAEAM@Z 000000018010b750 f i GuMidphaseRTree.obj
 0001:0010a750       ?processResults@?$RayRTreeCallback@$0A@$0A@@@UEAA_NIPEAIAEAM@Z 000000018010b750 f i GuMidphaseRTree.obj
 0001:0010a9c0       ?processResults@?$RayRTreeCallback@$0A@$00@@UEAA_NIPEAI@Z 000000018010b9c0 f i GuMidphaseRTree.obj
 0001:0010aff0       ?processResults@?$RayRTreeCallback@$0A@$00@@UEAA_NIPEAIAEAM@Z 000000018010bff0 f i GuMidphaseRTree.obj
 0001:0010b640       ?raycast_triangleMesh_RTREE@Gu@physx@@YAIPEBVTriangleMesh@12@AEBVPxTriangleMeshGeometry@2@AEBV?$PxTransformT@M@2@AEBV?$PxVec3T@M@2@3MV?$PxFlags@W4Enum@PxHitFlag@physx@@G@2@IPEIAUPxGeomRaycastHit@2@I@Z 000000018010c640 f   GuMidphaseRTree.obj
 0001:0010bdc0       ?sweepBox_MeshGeom_RTREE@Gu@physx@@YA_NPEBVTriangleMesh@12@AEBVPxTriangleMeshGeometry@2@AEBV?$PxTransformT@M@2@AEBVBox@12@AEBV?$PxVec3T@M@2@MAEAUPxGeomSweepHit@2@V?$PxFlags@W4Enum@PxHitFlag@physx@@G@2@M@Z 000000018010cdc0 f   GuMidphaseRTree.obj
 0001:0010d2a0       ?sweepCapsule_MeshGeom_RTREE@Gu@physx@@YA_NPEBVTriangleMesh@12@AEBVPxTriangleMeshGeometry@2@AEBV?$PxTransformT@M@2@AEBVCapsule@12@AEBV?$PxVec3T@M@2@MAEAUPxGeomSweepHit@2@V?$PxFlags@W4Enum@PxHitFlag@physx@@G@2@M@Z 000000018010e2a0 f   GuMidphaseRTree.obj
 0001:0010da50       ?sweepConvex_MeshGeom_RTREE@Gu@physx@@YAXPEBVTriangleMesh@12@AEBVBox@12@AEBV?$PxVec3T@M@2@MAEAUSweepConvexMeshHitCallback@12@_N@Z 000000018010ea50 f   GuMidphaseRTree.obj
 0001:0010e3d0       ??_G?$PxReportCallback@UPxGeomIndexPair@physx@@@physx@@UEAAPEAXI@Z 000000018010f3d0 f i GuOverlapTestsMesh.obj
 0001:0010e3d0       ??_E?$PxReportCallback@UPxGeomIndexPair@physx@@@physx@@UEAAPEAXI@Z 000000018010f3d0 f i GuOverlapTestsMesh.obj
 0001:0010e460       ?GeomOverlapCallback_BoxMesh@@YA_NAEBVPxGeometry@physx@@AEBV?$PxTransformT@M@2@01PEAUTriggerCache@Gu@2@PEAUPxQueryThreadContext@2@@Z 000000018010f460 f   GuOverlapTestsMesh.obj
 0001:0010e570       ?GeomOverlapCallback_CapsuleMesh@@YA_NAEBVPxGeometry@physx@@AEBV?$PxTransformT@M@2@01PEAUTriggerCache@Gu@2@PEAUPxQueryThreadContext@2@@Z 000000018010f570 f   GuOverlapTestsMesh.obj
 0001:0010e680       ?GeomOverlapCallback_ConvexMesh@@YA_NAEBVPxGeometry@physx@@AEBV?$PxTransformT@M@2@01PEAUTriggerCache@Gu@2@PEAUPxQueryThreadContext@2@@Z 000000018010f680 f   GuOverlapTestsMesh.obj
 0001:0010eb80       ?GeomOverlapCallback_MeshMesh@@YA_NAEBVPxGeometry@physx@@AEBV?$PxTransformT@M@2@01PEAUTriggerCache@Gu@2@PEAUPxQueryThreadContext@2@@Z 000000018010fb80 f   GuOverlapTestsMesh.obj
 0001:0010ec40       ?GeomOverlapCallback_SphereMesh@@YA_NAEBVPxGeometry@physx@@AEBV?$PxTransformT@M@2@01PEAUTriggerCache@Gu@2@PEAUPxQueryThreadContext@2@@Z 000000018010fc40 f   GuOverlapTestsMesh.obj
 0001:0010f030       ??0RTree@Gu@physx@@QEAA@W4PxEMPTY@2@@Z 0000000180110030 f   GuRTree.obj
 0001:0010f040       ?exportExtraData@RTree@Gu@physx@@QEAAXAEAVPxSerializationContext@3@@Z 0000000180110040 f   GuRTree.obj
 0001:0010f080       ?importExtraData@RTree@Gu@physx@@QEAAXAEAVPxDeserializationContext@3@@Z 0000000180110080 f   GuRTree.obj
 0001:0010f0b0       ?load@RTree@Gu@physx@@QEAA_NAEAVPxInputStream@3@I_N@Z 00000001801100b0 f   GuRTree.obj
 0001:0010f3c0       ?refitAllStaticTree@RTree@Gu@physx@@QEAAXAEAUCallbackRefit@123@PEAVPxBounds3@3@@Z 00000001801103c0 f   GuRTree.obj
 0001:0010f920       ?validate@RTree@Gu@physx@@QEAAXPEAUCallbackRefit@123@@Z 0000000180110920 f   GuRTree.obj
 0001:0010fa80       ?validateRecursive@RTree@Gu@physx@@IEAAXIURTreeNodeQ@23@PEAURTreePage@23@PEAUCallbackRefit@123@@Z 0000000180110a80 f   GuRTree.obj
 0001:0010fbb0       ??$traverseRay@$00@RTree@Gu@physx@@QEBAXAEBV?$PxVec3T@M@2@0IPEAIPEAUCallbackRaycast@012@PEBV32@M@Z 0000000180110bb0 f i GuRTreeQueries.obj
 0001:0010ff50       ??$traverseRay@$0A@@RTree@Gu@physx@@QEBAXAEBV?$PxVec3T@M@2@0IPEAIPEAUCallbackRaycast@012@PEBV32@M@Z 0000000180110f50 f i GuRTreeQueries.obj
 0001:001102a0       ?traverseAABB@RTree@Gu@physx@@QEBAXAEBV?$PxVec3T@M@3@0IPEAIPEAUCallback@123@@Z 00000001801112a0 f   GuRTreeQueries.obj
 0001:00110460       ?traverseOBB@RTree@Gu@physx@@QEBAXAEBVBox@23@IPEAIPEAUCallback@123@@Z 0000000180111460 f   GuRTreeQueries.obj
 0001:00110d40       ??0SweepBoxMeshHitCallback@Gu@physx@@QEAA@W4Enum@CallbackMode@12@AEBVPxMat34Padded@2@M_NAEBVBox@12@AEBV?$PxVec3T@M@2@44AEBV?$PxFlags@W4Enum@PxHitFlag@physx@@G@2@M2M@Z 0000000180111d40 f   GuSweepsMesh.obj
 0001:00110e50       ??0SweepCapsuleMeshHitCallback@Gu@physx@@QEAA@AEAUPxGeomSweepHit@2@AEBV?$PxMat34T@M@2@M_NAEBVCapsule@12@AEBV?$PxVec3T@M@2@AEBV?$PxFlags@W4Enum@PxHitFlag@physx@@G@2@2M@Z 0000000180111e50 f   GuSweepsMesh.obj
 0001:00110f20       ??0SweepConvexMeshHitCallback@Gu@physx@@QEAA@AEBUConvexHullData@12@AEBVPxMeshScale@2@AEBVFastVertex2ShapeScaling@Cm@2@AEBV?$PxTransformT@M@2@3AEBV?$PxVec3T@M@2@MV?$PxFlags@W4Enum@PxHitFlag@physx@@G@2@_NM6M@Z 0000000180111f20 f   GuSweepsMesh.obj
 0001:00111870       ??_GSweepBoxMeshHitCallback@Gu@physx@@UEAAPEAXI@Z 0000000180112870 f i GuSweepsMesh.obj
 0001:00111870       ??_ESweepBoxMeshHitCallback@Gu@physx@@UEAAPEAXI@Z 0000000180112870 f i GuSweepsMesh.obj
 0001:001118a0       ??_GSweepConvexMeshHitCallback@Gu@physx@@UEAAPEAXI@Z 00000001801128a0 f i GuSweepsMesh.obj
 0001:001118a0       ??_ESweepConvexMeshHitCallback@Gu@physx@@UEAAPEAXI@Z 00000001801128a0 f i GuSweepsMesh.obj
 0001:001118d0       ??_ESweepShapeMeshHitCallback@Gu@physx@@UEAAPEAXI@Z 00000001801128d0 f i GuSweepsMesh.obj
 0001:001118d0       ??_GSweepShapeMeshHitCallback@Gu@physx@@UEAAPEAXI@Z 00000001801128d0 f i GuSweepsMesh.obj
 0001:00111900       ?finalizeHit@SweepBoxMeshHitCallback@Gu@physx@@QEBA_NAEAUPxGeomSweepHit@3@AEBVPxTriangleMeshGeometry@3@AEBV?$PxTransformT@M@3@2AEBV?$PxVec3T@M@3@_N4@Z 0000000180112900 f   GuSweepsMesh.obj
 0001:00111fc0       ?finalizeHit@SweepCapsuleMeshHitCallback@Gu@physx@@QEBA_NAEAUPxGeomSweepHit@3@AEBVCapsule@23@AEBVPxTriangleMeshGeometry@3@AEBV?$PxTransformT@M@3@_N@Z 0000000180112fc0 f   GuSweepsMesh.obj
 0001:00112170       ?finalizeHit@SweepConvexMeshHitCallback@Gu@physx@@QEAA_NAEAUPxGeomSweepHit@3@AEBVPxTriangleMeshGeometry@3@AEBV?$PxTransformT@M@3@AEBVPxConvexMeshGeometry@3@2AEBV?$PxVec3T@M@3@M_N555@Z 0000000180113170 f   GuSweepsMesh.obj
 0001:00112650       ?processHit@SweepBoxMeshHitCallback@Gu@physx@@UEAA_NAEBUPxGeomRaycastHit@3@AEBV?$PxVec3T@M@3@11AEAMPEBI@Z 0000000180113650 f   GuSweepsMesh.obj
 0001:00112e50       ?processHit@SweepCapsuleMeshHitCallback@Gu@physx@@UEAA_NAEBUPxGeomRaycastHit@3@AEBV?$PxVec3T@M@3@11AEAMPEBI@Z 0000000180113e50 f   GuSweepsMesh.obj
 0001:001133b0       ?processHit@SweepConvexMeshHitCallback@Gu@physx@@UEAA_NAEBUPxGeomRaycastHit@3@AEBV?$PxVec3T@M@3@11AEAMPEBI@Z 00000001801143b0 f   GuSweepsMesh.obj
 0001:00113af0       ?sweepBox_MeshGeom@@YA_NAEBVPxGeometry@physx@@AEBV?$PxTransformT@M@2@AEBVPxBoxGeometry@2@1AEBVBox@Gu@2@AEBV?$PxVec3T@M@2@MAEAUPxGeomSweepHit@2@V?$PxFlags@W4Enum@PxHitFlag@physx@@G@2@MPEAUPxQueryThreadContext@2@@Z 0000000180114af0 f   GuSweepsMesh.obj
 0001:00113b80       ?sweepCapsule_MeshGeom@@YA_NAEBVPxGeometry@physx@@AEBV?$PxTransformT@M@2@AEBVPxCapsuleGeometry@2@1AEBVCapsule@Gu@2@AEBV?$PxVec3T@M@2@MAEAUPxGeomSweepHit@2@V?$PxFlags@W4Enum@PxHitFlag@physx@@G@2@MPEAUPxQueryThreadContext@2@@Z 0000000180114b80 f   GuSweepsMesh.obj
 0001:00113c10       ?sweepConvex_MeshGeom@@YA_NAEBVPxGeometry@physx@@AEBV?$PxTransformT@M@2@AEBVPxConvexMeshGeometry@2@1AEBV?$PxVec3T@M@2@MAEAUPxGeomSweepHit@2@V?$PxFlags@W4Enum@PxHitFlag@physx@@G@2@MPEAUPxQueryThreadContext@2@@Z 0000000180114c10 f   GuSweepsMesh.obj
 0001:00114750       ??0TriangleMesh@Gu@physx@@QEAA@AEBUPxTriangleMeshInternalData@2@@Z 0000000180115750 f   GuTriangleMesh.obj
 0001:00114830       ??0TriangleMesh@Gu@physx@@QEAA@PEAVMeshFactory@12@AEAVTriangleMeshData@12@@Z 0000000180115830 f   GuTriangleMesh.obj
 0001:00114bb0       ??1TriangleMesh@Gu@physx@@UEAA@XZ 0000000180115bb0 f   GuTriangleMesh.obj
 0001:00114e00       ??_ETriangleMesh@Gu@physx@@UEAAPEAXI@Z 0000000180115e00 f i GuTriangleMesh.obj
 0001:00114e00       ??_GTriangleMesh@Gu@physx@@UEAAPEAXI@Z 0000000180115e00 f i GuTriangleMesh.obj
 0001:00114e70       ?exportExtraData@TriangleMesh@Gu@physx@@UEAAXAEAVPxSerializationContext@3@@Z 0000000180115e70 f   GuTriangleMesh.obj
 0001:00115040       ?getLocalBounds@TriangleMesh@Gu@physx@@UEBA?AVPxBounds3@3@XZ 0000000180116040 f i GuTriangleMesh.obj
 0001:001150d0       ?getMassInformation@TriangleMesh@Gu@physx@@UEBAXAEAMAEAV?$PxMat33T@M@3@AEAV?$PxVec3T@M@3@@Z 00000001801160d0 f i GuTriangleMesh.obj
 0001:00115150       ?getNbTriangles@TriangleMesh@Gu@physx@@UEBAIXZ 0000000180116150 f i GuTriangleMesh.obj
 0001:00115160       ?getPreferSDFProjection@TriangleMesh@Gu@physx@@UEBA_NXZ 0000000180116160 f i GuTriangleMesh.obj
 0001:00115170       ?getSDF@TriangleMesh@Gu@physx@@UEBAPEBMXZ 0000000180116170 f i GuTriangleMesh.obj
 0001:00115180       ?getSDFDimensions@TriangleMesh@Gu@physx@@UEBAXAEAI00@Z 0000000180116180 f i GuTriangleMesh.obj
 0001:001151b0       ?getTriangleMaterialIndex@TriangleMesh@Gu@physx@@UEBAGI@Z 00000001801161b0 f i GuTriangleMesh.obj
 0001:001151d0       ?getTriangleMeshFlags@TriangleMesh@Gu@physx@@UEBA?AV?$PxFlags@W4Enum@PxTriangleMeshFlag@physx@@E@3@XZ 00000001801161d0 f i GuTriangleMesh.obj
 0001:001151e0       ?getTrianglesRemap@TriangleMesh@Gu@physx@@UEBAPEBIXZ 00000001801161e0 f i GuTriangleMesh.obj
 0001:001151f0       ?getVerticesForModification@TriangleMesh@Gu@physx@@UEAAPEAV?$PxVec3T@M@3@XZ 00000001801161f0 f   GuTriangleMesh.obj
 0001:00115230       ?importExtraData@TriangleMesh@Gu@physx@@QEAAXAEAVPxDeserializationContext@3@@Z 0000000180116230 f   GuTriangleMesh.obj
 0001:001153d0       ?isKindOf@PxTriangleMesh@physx@@MEBA_NPEBD@Z 00000001801163d0 f i GuTriangleMesh.obj
 0001:00115440       ?onRefCountZero@TriangleMesh@Gu@physx@@UEAAXXZ 0000000180116440 f   GuTriangleMesh.obj
 0001:00115510       ?refitBVH@TriangleMesh@Gu@physx@@UEAA?AVPxBounds3@3@XZ 0000000180116510 f   GuTriangleMesh.obj
 0001:001155e0       ?requestEdgeList@TriangleMesh@Gu@physx@@QEBAPEBVEdgeList@23@XZ 00000001801165e0 f   GuTriangleMesh.obj
 0001:001156d0       ?setAllEdgesActive@TriangleMesh@Gu@physx@@QEAAXXZ 00000001801166d0 f   GuTriangleMesh.obj
 0001:001157c0       ?setPreferSDFProjection@TriangleMesh@Gu@physx@@UEAAX_N@Z 00000001801167c0 f i GuTriangleMesh.obj
 0001:001157f0       ??0BV4TriangleMesh@Gu@physx@@QEAA@AEBUPxTriangleMeshInternalData@2@@Z 00000001801167f0 f   GuTriangleMeshBV4.obj
 0001:00115960       ??0BV4TriangleMesh@Gu@physx@@QEAA@PEAVMeshFactory@12@AEAVTriangleMeshData@12@@Z 0000000180116960 f   GuTriangleMeshBV4.obj
 0001:001159f0       ??_EBV4TriangleMesh@Gu@physx@@UEAAPEAXI@Z 00000001801169f0 f i GuTriangleMeshBV4.obj
 0001:001159f0       ??_GBV4TriangleMesh@Gu@physx@@UEAAPEAXI@Z 00000001801169f0 f i GuTriangleMeshBV4.obj
 0001:00115a80       ?createObject@BV4TriangleMesh@Gu@physx@@SAPEAVTriangleMesh@23@AEAPEAEAEAVPxDeserializationContext@3@@Z 0000000180116a80 f   GuTriangleMeshBV4.obj
 0001:00115b70       ?exportExtraData@BV4TriangleMesh@Gu@physx@@UEAAXAEAVPxSerializationContext@3@@Z 0000000180116b70 f   GuTriangleMeshBV4.obj
 0001:00115bb0       ?getConcreteTypeName@BV4TriangleMesh@Gu@physx@@UEBAPEBDXZ 0000000180116bb0 f i GuTriangleMeshBV4.obj
 0001:00115bc0       ?getInternalData@BV4TriangleMesh@Gu@physx@@UEBA_NAEAUPxTriangleMeshInternalData@3@_N@Z 0000000180116bc0 f   GuTriangleMeshBV4.obj
 0001:00115cb0       ?getMidphaseID@BV4TriangleMeshBuilder@physx@@UEBA?AW4Enum@PxMeshMidPhase@2@XZ 0000000180116cb0 f i GuCookingTriangleMesh.obj
 0001:00115cb0       ?raw_length@charNode@@UEBAHXZ 0000000180116cb0 f i libvcruntime:undname.obj
 0001:00115cb0       ?getMidphaseID@BV4TriangleMesh@Gu@physx@@UEBA?AW4Enum@PxMeshMidPhase@3@XZ 0000000180116cb0 f i GuTriangleMeshBV4.obj
 0001:00115cb0       _get_startup_argv_mode     0000000180116cb0 f i LIBCMT:argv_mode.obj
 0001:00115cb0       DllMain                    0000000180116cb0 f i LIBCMT:dll_dllmain_stub.obj
 0001:00115cb0       ?length@charNode@@UEBAHXZ  0000000180116cb0 f i libvcruntime:undname.obj
 0001:00115cc0       ?getVerticesForModification@BV4TriangleMesh@Gu@physx@@UEAAPEAV?$PxVec3T@M@3@XZ 0000000180116cc0 f   GuTriangleMeshBV4.obj
 0001:00115cc0       ?getVerticesForModification@RTreeTriangleMesh@Gu@physx@@UEAAPEAV?$PxVec3T@M@3@XZ 0000000180116cc0 f   GuTriangleMeshRTree.obj
 0001:00115cd0       ?refitBVH@BV4TriangleMesh@Gu@physx@@UEAA?AVPxBounds3@3@XZ 0000000180116cd0 f   GuTriangleMeshBV4.obj
 0001:00115e40       PxGetTriangleMeshInternalData 0000000180116e40 f   GuTriangleMeshBV4.obj
 0001:00115e60       ??0RTreeTriangleMesh@Gu@physx@@QEAA@PEAVMeshFactory@12@AEAVTriangleMeshData@12@@Z 0000000180116e60 f   GuTriangleMeshRTree.obj
 0001:00115fd0       ??_E?$RefitCallback@G@physx@@UEAAPEAXI@Z 0000000180116fd0 f i GuTriangleMeshRTree.obj
 0001:00115fd0       ??_E?$RefitCallback@I@physx@@UEAAPEAXI@Z 0000000180116fd0 f i GuTriangleMeshRTree.obj
 0001:00115fd0       ??_G?$RefitCallback@G@physx@@UEAAPEAXI@Z 0000000180116fd0 f i GuTriangleMeshRTree.obj
 0001:00115fd0       ??_G?$RefitCallback@I@physx@@UEAAPEAXI@Z 0000000180116fd0 f i GuTriangleMeshRTree.obj
 0001:00116000       ??_GRTreeTriangleMesh@Gu@physx@@UEAAPEAXI@Z 0000000180117000 f i GuTriangleMeshRTree.obj
 0001:00116000       ??_ERTreeTriangleMesh@Gu@physx@@UEAAPEAXI@Z 0000000180117000 f i GuTriangleMeshRTree.obj
 0001:001160b0       ?createObject@RTreeTriangleMesh@Gu@physx@@SAPEAVTriangleMesh@23@AEAPEAEAEAVPxDeserializationContext@3@@Z 00000001801170b0 f   GuTriangleMeshRTree.obj
 0001:00116150       ?exportExtraData@RTreeTriangleMesh@Gu@physx@@UEAAXAEAVPxSerializationContext@3@@Z 0000000180117150 f   GuTriangleMeshRTree.obj
 0001:00116190       ?getConcreteTypeName@RTreeTriangleMesh@Gu@physx@@UEBAPEBDXZ 0000000180117190 f i GuTriangleMeshRTree.obj
 0001:001161a0       ?recomputeBounds@?$RefitCallback@G@physx@@UEAAXIAEAT__m128@@0@Z 00000001801171a0 f i GuTriangleMeshRTree.obj
 0001:001164d0       ?recomputeBounds@?$RefitCallback@I@physx@@UEAAXIAEAT__m128@@0@Z 00000001801174d0 f i GuTriangleMeshRTree.obj
 0001:001167f0       ?refitBVH@RTreeTriangleMesh@Gu@physx@@UEAA?AVPxBounds3@3@XZ 00000001801177f0 f   GuTriangleMeshRTree.obj
 0001:00116910       ??0BV32Tree@Gu@physx@@QEAA@XZ 0000000180117910 f   GuBV32.obj
 0001:00116940       ??1BV32Tree@Gu@physx@@QEAA@XZ 0000000180117940 f   GuBV32.obj
 0001:00116950       ?calculateLeafNode@BV32Tree@Gu@physx@@QEAAXAEAUBV32Data@23@@Z 0000000180117950 f   GuBV32.obj
 0001:00116b90       ?createSOAformatNode@BV32Tree@Gu@physx@@QEAAXAEAUBV32DataPacked@23@AEBUBV32Data@23@IAEAI2@Z 0000000180117b90 f   GuBV32.obj
 0001:00116ff0       ?load@BV32Tree@Gu@physx@@QEAA_NAEAVPxInputStream@3@_N@Z 0000000180117ff0 f   GuBV32.obj
 0001:00117340       ?release@BV32Tree@Gu@physx@@QEAAXXZ 0000000180118340 f   GuBV32.obj
 0001:00117400       ??0BV32Node@@QEAA@XZ       0000000180118400 f i GuBV32Build.obj
 0001:00117880       ?BuildBV32Ex@Gu@physx@@YA_NAEAVBV32Tree@12@AEAVSourceMeshBase@12@MI@Z 0000000180118880 f   GuBV32Build.obj
 0001:00118820       ??0BVTetrahedronMesh@Gu@physx@@QEAA@AEAVTetrahedronMeshData@12@AEAVSoftBodyCollisionData@12@PEAVMeshFactory@12@@Z 0000000180119820 f   GuTetrahedronMesh.obj
 0001:00118a80       ??0SoftBodyMesh@Gu@physx@@QEAA@PEAVMeshFactory@12@AEAVSoftBodyMeshData@12@@Z 0000000180119a80 f   GuTetrahedronMesh.obj
 0001:00118e50       ??0TetrahedronMesh@Gu@physx@@QEAA@PEAVMeshFactory@12@AEAVTetrahedronMeshData@12@@Z 0000000180119e50 f   GuTetrahedronMesh.obj
 0001:00118f40       ??1SoftBodyAuxData@Gu@physx@@UEAA@XZ 0000000180119f40 f   GuTetrahedronMesh.obj
 0001:001191a0       ??1TetrahedronMesh@Gu@physx@@UEAA@XZ 000000018011a1a0 f   GuTetrahedronMesh.obj
 0001:00119240       ??_EBVTetrahedronMesh@Gu@physx@@UEAAPEAXI@Z 000000018011a240 f i GuTetrahedronMesh.obj
 0001:00119240       ??_GBVTetrahedronMesh@Gu@physx@@UEAAPEAXI@Z 000000018011a240 f i GuTetrahedronMesh.obj
 0001:001193c0       ??_GSoftBodyAuxData@Gu@physx@@UEAAPEAXI@Z 000000018011a3c0 f i GuTetrahedronMesh.obj
 0001:001193c0       ??_ESoftBodyAuxData@Gu@physx@@UEAAPEAXI@Z 000000018011a3c0 f i GuTetrahedronMesh.obj
 0001:00119430       ??_ESoftBodyMesh@Gu@physx@@UEAAPEAXI@Z 000000018011a430 f i GuTetrahedronMesh.obj
 0001:00119430       ??_GSoftBodyMesh@Gu@physx@@UEAAPEAXI@Z 000000018011a430 f i GuTetrahedronMesh.obj
 0001:00119500       ??_GTetrahedronMesh@Gu@physx@@UEAAPEAXI@Z 000000018011a500 f i GuTetrahedronMesh.obj
 0001:00119500       ??_ETetrahedronMesh@Gu@physx@@UEAAPEAXI@Z 000000018011a500 f i GuTetrahedronMesh.obj
 0001:00119570       ?exportExtraData@SoftBodyMesh@Gu@physx@@UEAAXAEAVPxSerializationContext@3@@Z 000000018011a570 f   GuTetrahedronMesh.obj
 0001:00119660       ?getConcreteTypeName@SoftBodyAuxData@Gu@physx@@UEBAPEBDXZ 000000018011a660 f i GuTetrahedronMesh.obj
 0001:00119670       ?getConcreteTypeName@SoftBodyMesh@Gu@physx@@UEBAPEBDXZ 000000018011a670 f i GuTetrahedronMesh.obj
 0001:00119680       ?getConcreteTypeName@TetrahedronMesh@Gu@physx@@UEBAPEBDXZ 000000018011a680 f i GuTetrahedronMesh.obj
 0001:00119690       ?getLocalBounds@TetrahedronMesh@Gu@physx@@UEBA?AVPxBounds3@3@XZ 000000018011a690 f i GuTetrahedronMesh.obj
 0001:00119720       ?getNbTetrahedrons@TetrahedronMesh@Gu@physx@@UEBAIXZ 000000018011a720 f i GuTetrahedronMesh.obj
 0001:00119730       ?getBounds@BVH@Gu@physx@@UEBAPEBVPxBounds3@3@XZ 000000018011a730 f i GuBVH.obj
 0001:00119730       ?getTetrahedraRemap@BVTetrahedronMesh@Gu@physx@@UEBAPEBIXZ 000000018011a730 f i GuTetrahedronMesh.obj
 0001:00119740       ?getTetrahedronMeshFlags@TetrahedronMesh@Gu@physx@@UEBA?AV?$PxFlags@W4Enum@PxTetrahedronMeshFlag@physx@@E@3@XZ 000000018011a740 f i GuTetrahedronMesh.obj
 0001:00119750       ?getTetrahedrons@TetrahedronMesh@Gu@physx@@UEBAPEBXXZ 000000018011a750 f i GuTetrahedronMesh.obj
 0001:00119760       ?isKindOf@PxSoftBodyAuxData@physx@@MEBA_NPEBD@Z 000000018011a760 f i GuTetrahedronMesh.obj
 0001:001197d0       ?isKindOf@PxSoftBodyMesh@physx@@MEBA_NPEBD@Z 000000018011a7d0 f i GuTetrahedronMesh.obj
 0001:00119840       ?isKindOf@PxTetrahedronMesh@physx@@MEBA_NPEBD@Z 000000018011a840 f i GuTetrahedronMesh.obj
 0001:001198b0       ?release@SimulationTetrahedronMeshData@Gu@physx@@UEAAXXZ 000000018011a8b0 f i GuCookingTetrahedronMesh.obj
 0001:001198b0       ?onRefCountZero@SoftBodyAuxData@Gu@physx@@UEAAXXZ 000000018011a8b0 f i GuTetrahedronMesh.obj
 0001:001198d0       ?onRefCountZero@SoftBodyMesh@Gu@physx@@UEAAXXZ 000000018011a8d0 f   GuTetrahedronMesh.obj
 0001:00119970       ?onRefCountZero@TetrahedronMesh@Gu@physx@@UEAAXXZ 000000018011a970 f   GuTetrahedronMesh.obj
 0001:0011bfc0       ?pcmContactBoxBox@Gu@physx@@YA_NAEBVPxGeometry@2@0AEBV?$PxTransformT@M@2@1AEBUNarrowPhaseParams@12@AEAUCache@12@AEAVPxContactBuffer@2@PEAVPxRenderOutput@2@@Z 000000018011cfc0 f   GuPCMContactBoxBox.obj
 0001:0011ce70       ??$gjkPenetration@U?$RelativeConvex@VBoxV@Gu@physx@@@Gu@physx@@U?$LocalConvex@VConvexHullNoScaleV@Gu@physx@@@23@@Gu@physx@@YA?AW4GjkStatus@01@AEBU?$RelativeConvex@VBoxV@Gu@physx@@@01@AEBU?$LocalConvex@VConvexHullNoScaleV@Gu@physx@@@01@AEBT__m128@@2_NPEIAE4AEAEAEAUGjkOutput@01@@Z 000000018011de70 f i GuPCMContactBoxConvex.obj
 0001:0011cee0       ??$gjkPenetration@U?$RelativeConvex@VBoxV@Gu@physx@@@Gu@physx@@U?$LocalConvex@VConvexHullNoScaleV@Gu@physx@@@23@@Gu@physx@@YA?AW4GjkStatus@01@AEBU?$RelativeConvex@VBoxV@Gu@physx@@@01@AEBU?$LocalConvex@VConvexHullNoScaleV@Gu@physx@@@01@AEBT__m128@@2_NPEIAE4PEIAT5@5AEAEAEAUGjkOutput@01@@Z 000000018011dee0 f i GuPCMContactBoxConvex.obj
 0001:0011eab0       ?pcmContactBoxConvex@Gu@physx@@YA_NAEBVPxGeometry@2@0AEBV?$PxTransformT@M@2@1AEBUNarrowPhaseParams@12@AEAUCache@12@AEAVPxContactBuffer@2@PEAVPxRenderOutput@2@@Z 000000018011fab0 f   GuPCMContactBoxConvex.obj
 0001:0011f910       ?support@?$LocalConvex@VConvexHullNoScaleV@Gu@physx@@@Gu@physx@@UEBA?AT__m128@@AEBT4@@Z 0000000180120910 f i GuPCMContactBoxConvex.obj
 0001:0011f960       ?support@?$LocalConvex@VConvexHullNoScaleV@Gu@physx@@@Gu@physx@@UEBA?AT__m128@@AEBT4@AEAH@Z 0000000180120960 f i GuPCMContactBoxConvex.obj
 0001:0011f9c0       ?supportPoint@?$LocalConvex@VConvexHullNoScaleV@Gu@physx@@@Gu@physx@@UEBA?AT__m128@@H@Z 00000001801209c0 f i GuPCMContactBoxConvex.obj
 0001:0011f9f0       ?pcmContactCapsuleBox@Gu@physx@@YA_NAEBVPxGeometry@2@0AEBV?$PxTransformT@M@2@1AEBUNarrowPhaseParams@12@AEAUCache@12@AEAVPxContactBuffer@2@PEAVPxRenderOutput@2@@Z 00000001801209f0 f   GuPCMContactCapsuleBox.obj
 0001:00120950       ?pcmContactCapsuleCapsule@Gu@physx@@YA_NAEBVPxGeometry@2@0AEBV?$PxTransformT@M@2@1AEBUNarrowPhaseParams@12@AEAUCache@12@AEAVPxContactBuffer@2@PEAVPxRenderOutput@2@@Z 0000000180121950 f   GuPCMContactCapsuleCapsule.obj
 0001:001211e0       ??$gjkPenetration@U?$LocalConvex@VCapsuleV@Gu@physx@@@Gu@physx@@U?$LocalConvex@VConvexHullNoScaleV@Gu@physx@@@23@@Gu@physx@@YA?AW4GjkStatus@01@AEBU?$LocalConvex@VCapsuleV@Gu@physx@@@01@AEBU?$LocalConvex@VConvexHullNoScaleV@Gu@physx@@@01@AEBT__m128@@2_NPEIAE4AEAEAEAUGjkOutput@01@@Z 00000001801221e0 f i GuPCMContactCapsuleConvex.obj
 0001:00121250       ??$gjkPenetration@U?$LocalConvex@VCapsuleV@Gu@physx@@@Gu@physx@@U?$LocalConvex@VConvexHullNoScaleV@Gu@physx@@@23@@Gu@physx@@YA?AW4GjkStatus@01@AEBU?$LocalConvex@VCapsuleV@Gu@physx@@@01@AEBU?$LocalConvex@VConvexHullNoScaleV@Gu@physx@@@01@AEBT__m128@@2_NPEIAE4PEIAT5@5AEAEAEAUGjkOutput@01@@Z 0000000180122250 f i GuPCMContactCapsuleConvex.obj
 0001:00122920       ?pcmContactCapsuleConvex@Gu@physx@@YA_NAEBVPxGeometry@2@0AEBV?$PxTransformT@M@2@1AEBUNarrowPhaseParams@12@AEAUCache@12@AEAVPxContactBuffer@2@PEAVPxRenderOutput@2@@Z 0000000180123920 f   GuPCMContactCapsuleConvex.obj
 0001:00123b10       ??_GPCMCapsuleVsHeightfieldContactGenerationCallback@@UEAAPEAXI@Z 0000000180124b10 f i GuPCMContactCapsuleHeightField.obj
 0001:00123b10       ??_EPCMConvexVsHeightfieldContactGenerationCallback@physx@@UEAAPEAXI@Z 0000000180124b10 f i GuPCMContactConvexHeightField.obj
 0001:00123b10       ??_GPCMConvexVsHeightfieldContactGenerationCallback@physx@@UEAAPEAXI@Z 0000000180124b10 f i GuPCMContactConvexHeightField.obj
 0001:00123b10       ??_EPCMCapsuleVsHeightfieldContactGenerationCallback@@UEAAPEAXI@Z 0000000180124b10 f i GuPCMContactCapsuleHeightField.obj
 0001:00123b40       ?pcmContactCapsuleHeightField@Gu@physx@@YA_NAEBVPxGeometry@2@0AEBV?$PxTransformT@M@2@1AEBUNarrowPhaseParams@12@AEAUCache@12@AEAVPxContactBuffer@2@PEAVPxRenderOutput@2@@Z 0000000180124b40 f   GuPCMContactCapsuleHeightField.obj
 0001:00124a30       ?reportTouchedTris@?$PCMHeightfieldContactGenerationCallback@UPCMCapsuleVsHeightfieldContactGenerationCallback@@@Gu@physx@@UEAA_NIPEBI@Z 0000000180125a30 f i GuPCMContactCapsuleHeightField.obj
 0001:001250b0       ?generateContacts@PCMCapsuleVsMeshContactGeneration@Gu@physx@@SAXAEBT__m128@@0000I000PEAVMeshPersistentContact@23@AEAI@Z 00000001801260b0 f   GuPCMContactCapsuleMesh.obj
 0001:00125520       ?generateEE@PCMCapsuleVsMeshContactGeneration@Gu@physx@@QEAAXAEBT__m128@@000I00PEAVMeshPersistentContact@23@AEAI@Z 0000000180126520 f   GuPCMContactCapsuleMesh.obj
 0001:00125790       ?generateEEMTD@PCMCapsuleVsMeshContactGeneration@Gu@physx@@SAXAEBT__m128@@000I00PEAVMeshPersistentContact@23@AEAI@Z 0000000180126790 f   GuPCMContactCapsuleMesh.obj
 0001:001259c0       ?pcmContactCapsuleMesh@Gu@physx@@YA_NAEBVPxGeometry@2@0AEBV?$PxTransformT@M@2@1AEBUNarrowPhaseParams@12@AEAUCache@12@AEAVPxContactBuffer@2@PEAVPxRenderOutput@2@@Z 00000001801269c0 f   GuPCMContactCapsuleMesh.obj
 0001:00127620       ?processTriangle@PCMCapsuleVsMeshContactGeneration@Gu@physx@@QEAA_NPEBV?$PxVec3T@M@3@IEPEBI@Z 0000000180128620 f   GuPCMContactCapsuleMesh.obj
 0001:001281d0       ?processTriangle@PCMCapsuleVsMeshContactGeneration@Gu@physx@@SA_NAEBVTriangleV@23@IAEBVCapsuleV@23@AEBT__m128@@EPEAVMeshPersistentContact@23@AEAI@Z 00000001801291d0 f   GuPCMContactCapsuleMesh.obj
 0001:00128500       ?addContactsToPatch@PCMConvexVsMeshContactGeneration@Gu@physx@@QEAAXAEBT__m128@@I@Z 0000000180129500 f   GuPCMContactConvexCommon.obj
 0001:00128e20       ?doSupport@?$SupportLocalImpl@VTriangleV@Gu@physx@@@Gu@physx@@UEBA?AT__m128@@AEBT4@@Z 0000000180129e20 f i GuPCMContactConvexCommon.obj
 0001:00128eb0       ?doSupport@?$SupportLocalImpl@VTriangleV@Gu@physx@@@Gu@physx@@UEBAXAEBT__m128@@AEAT4@1@Z 0000000180129eb0 f i GuPCMContactConvexCommon.obj
 0001:00128f20       ?generateLastContacts@PCMConvexVsMeshContactGeneration@Gu@physx@@QEAAXXZ 0000000180129f20 f   GuPCMContactConvexCommon.obj
 0001:00129460       ?populateVerts@?$SupportLocalImpl@VTriangleV@Gu@physx@@@Gu@physx@@UEBAXPEBEIPEBV?$PxVec3T@M@3@PEAT__m128@@@Z 000000018012a460 f i GuPCMContactConvexCommon.obj
 0001:001295a0       ?processTriangle@PCMConvexVsMeshContactGeneration@Gu@physx@@QEAA_NPEBV?$PxVec3T@M@3@IEPEBI@Z 000000018012a5a0 f   GuPCMContactConvexCommon.obj
 0001:00129b10       ?processTriangle@PCMConvexVsMeshContactGeneration@Gu@physx@@SA_NAEBUPolygonalData@23@PEAVSupportLocal@23@PEBV?$PxVec3T@M@3@IEAEBT__m128@@_NAEBVPxTransformV@aos@3@AEBVPxMatTransformV@93@PEAVMeshPersistentContact@23@AEAI@Z 000000018012ab10 f   GuPCMContactConvexCommon.obj
 0001:00129d90       ??$gjkPenetration@U?$RelativeConvex@VConvexHullNoScaleV@Gu@physx@@@Gu@physx@@U?$LocalConvex@VConvexHullNoScaleV@Gu@physx@@@23@@Gu@physx@@YA?AW4GjkStatus@01@AEBU?$RelativeConvex@VConvexHullNoScaleV@Gu@physx@@@01@AEBU?$LocalConvex@VConvexHullNoScaleV@Gu@physx@@@01@AEBT__m128@@2_NPEIAE4AEAEAEAUGjkOutput@01@@Z 000000018012ad90 f i GuPCMContactConvexConvex.obj
 0001:00129e00       ??$gjkPenetration@U?$RelativeConvex@VConvexHullNoScaleV@Gu@physx@@@Gu@physx@@U?$LocalConvex@VConvexHullNoScaleV@Gu@physx@@@23@@Gu@physx@@YA?AW4GjkStatus@01@AEBU?$RelativeConvex@VConvexHullNoScaleV@Gu@physx@@@01@AEBU?$LocalConvex@VConvexHullNoScaleV@Gu@physx@@@01@AEBT__m128@@2_NPEIAE4PEIAT5@5AEAEAEAUGjkOutput@01@@Z 000000018012ae00 f i GuPCMContactConvexConvex.obj
 0001:0012b300       ??$gjkPenetration@U?$RelativeConvex@VConvexHullNoScaleV@Gu@physx@@@Gu@physx@@U?$LocalConvex@VConvexHullV@Gu@physx@@@23@@Gu@physx@@YA?AW4GjkStatus@01@AEBU?$RelativeConvex@VConvexHullNoScaleV@Gu@physx@@@01@AEBU?$LocalConvex@VConvexHullV@Gu@physx@@@01@AEBT__m128@@2_NPEIAE4AEAEAEAUGjkOutput@01@@Z 000000018012c300 f i GuPCMContactConvexConvex.obj
 0001:0012b370       ??$gjkPenetration@U?$RelativeConvex@VConvexHullNoScaleV@Gu@physx@@@Gu@physx@@U?$LocalConvex@VConvexHullV@Gu@physx@@@23@@Gu@physx@@YA?AW4GjkStatus@01@AEBU?$RelativeConvex@VConvexHullNoScaleV@Gu@physx@@@01@AEBU?$LocalConvex@VConvexHullV@Gu@physx@@@01@AEBT__m128@@2_NPEIAE4PEIAT5@5AEAEAEAUGjkOutput@01@@Z 000000018012c370 f i GuPCMContactConvexConvex.obj
 0001:0012c900       ??$gjkPenetration@U?$RelativeConvex@VConvexHullV@Gu@physx@@@Gu@physx@@U?$LocalConvex@VConvexHullNoScaleV@Gu@physx@@@23@@Gu@physx@@YA?AW4GjkStatus@01@AEBU?$RelativeConvex@VConvexHullV@Gu@physx@@@01@AEBU?$LocalConvex@VConvexHullNoScaleV@Gu@physx@@@01@AEBT__m128@@2_NPEIAE4AEAEAEAUGjkOutput@01@@Z 000000018012d900 f i GuPCMContactConvexConvex.obj
 0001:0012c970       ??$gjkPenetration@U?$RelativeConvex@VConvexHullV@Gu@physx@@@Gu@physx@@U?$LocalConvex@VConvexHullNoScaleV@Gu@physx@@@23@@Gu@physx@@YA?AW4GjkStatus@01@AEBU?$RelativeConvex@VConvexHullV@Gu@physx@@@01@AEBU?$LocalConvex@VConvexHullNoScaleV@Gu@physx@@@01@AEBT__m128@@2_NPEIAE4PEIAT5@5AEAEAEAUGjkOutput@01@@Z 000000018012d970 f i GuPCMContactConvexConvex.obj
 0001:0012e960       ?pcmContactConvexConvex@Gu@physx@@YA_NAEBVPxGeometry@2@0AEBV?$PxTransformT@M@2@1AEBUNarrowPhaseParams@12@AEAUCache@12@AEAVPxContactBuffer@2@PEAVPxRenderOutput@2@@Z 000000018012f960 f   GuPCMContactConvexConvex.obj
 0001:0012fa70       ?support@?$RelativeConvex@VConvexHullNoScaleV@Gu@physx@@@Gu@physx@@UEBA?AT__m128@@AEBT4@@Z 0000000180130a70 f i GuPCMContactConvexConvex.obj
 0001:0012fb20       ?support@?$RelativeConvex@VConvexHullNoScaleV@Gu@physx@@@Gu@physx@@UEBA?AT__m128@@AEBT4@AEAH@Z 0000000180130b20 f i GuPCMContactConvexConvex.obj
 0001:0012fbe0       ?supportPoint@?$RelativeConvex@VConvexHullNoScaleV@Gu@physx@@@Gu@physx@@UEBA?AT__m128@@H@Z 0000000180130be0 f i GuPCMContactConvexConvex.obj
 0001:0012fc40       ?PCMContactConvexHeightfield@Gu@physx@@YA_NAEBUPolygonalData@12@PEAVSupportLocal@12@AEBT__m128@@AEBVPxBounds3@2@AEBVPxHeightFieldGeometry@2@AEBV?$PxTransformT@M@2@5MAEAVPxContactBuffer@2@AEBVFastVertex2ShapeScaling@Cm@2@_NAEAVMultiplePersistentContactManifold@12@PEAVPxRenderOutput@2@@Z 0000000180130c40 f   GuPCMContactConvexHeightField.obj
 0001:00130ab0       ?pcmContactBoxHeightField@Gu@physx@@YA_NAEBVPxGeometry@2@0AEBV?$PxTransformT@M@2@1AEBUNarrowPhaseParams@12@AEAUCache@12@AEAVPxContactBuffer@2@PEAVPxRenderOutput@2@@Z 0000000180131ab0 f   GuPCMContactConvexHeightField.obj
 0001:00130d50       ?pcmContactConvexHeightField@Gu@physx@@YA_NAEBVPxGeometry@2@0AEBV?$PxTransformT@M@2@1AEBUNarrowPhaseParams@12@AEAUCache@12@AEAVPxContactBuffer@2@PEAVPxRenderOutput@2@@Z 0000000180131d50 f   GuPCMContactConvexHeightField.obj
 0001:00131410       ?reportTouchedTris@?$PCMHeightfieldContactGenerationCallback@UPCMConvexVsHeightfieldContactGenerationCallback@physx@@@Gu@physx@@UEAA_NIPEBI@Z 0000000180132410 f i GuPCMContactConvexHeightField.obj
 0001:001319d0       ??$processTriangleCache@$0BA@@PCMConvexVsMeshContactGenerationCallback@physx@@QEAAXAEAU?$TriangleCache@$0BA@@Gu@1@@Z 00000001801329d0 f i GuPCMContactConvexMesh.obj
 0001:00131a60       ??_EPCMConvexVsMeshContactGenerationCallback@physx@@UEAAPEAXI@Z 0000000180132a60 f i GuPCMContactConvexMesh.obj
 0001:00131a60       ??_GPCMConvexVsMeshContactGenerationCallback@physx@@UEAAPEAXI@Z 0000000180132a60 f i GuPCMContactConvexMesh.obj
 0001:00131a90       ?PCMContactConvexMesh@Gu@physx@@YA_NAEBUPolygonalData@12@PEAVSupportLocal@12@AEBT__m128@@AEBVPxBounds3@2@AEBVPxTriangleMeshGeometry@2@AEBV?$PxTransformT@M@2@5MAEAVPxContactBuffer@2@AEBVFastVertex2ShapeScaling@Cm@2@7_N8AEAVMultiplePersistentContactManifold@12@PEAVPxRenderOutput@2@@Z 0000000180132a90 f   GuPCMContactConvexMesh.obj
 0001:00132560       ?pcmContactBoxMesh@Gu@physx@@YA_NAEBVPxGeometry@2@0AEBV?$PxTransformT@M@2@1AEBUNarrowPhaseParams@12@AEAUCache@12@AEAVPxContactBuffer@2@PEAVPxRenderOutput@2@@Z 0000000180133560 f   GuPCMContactConvexMesh.obj
 0001:001328b0       ?pcmContactConvexMesh@Gu@physx@@YA_NAEBVPxGeometry@2@0AEBV?$PxTransformT@M@2@1AEBUNarrowPhaseParams@12@AEAUCache@12@AEAVPxContactBuffer@2@PEAVPxRenderOutput@2@@Z 00000001801338b0 f   GuPCMContactConvexMesh.obj
 0001:00133080       ?processHit@?$PCMMeshContactGenerationCallback@UPCMConvexVsMeshContactGenerationCallback@physx@@@Gu@physx@@UEAA_NAEBUPxGeomRaycastHit@3@AEBV?$PxVec3T@M@3@11AEAMPEBI@Z 0000000180134080 f i GuPCMContactConvexMesh.obj
 0001:00133550       ?addGJKEPAContacts@Gu@physx@@YA_NPEBUGjkConvex@12@0AEBVPxMatTransformV@aos@2@W4GjkStatus@12@PEAVPersistentContact@12@T__m128@@4AEAUGjkOutput@12@AEAVPersistentContactManifold@12@@Z 0000000180134550 f   GuPCMContactGenBoxConvex.obj
 0001:00133750       ?buildPartialHull@Gu@physx@@YAXAEBUPolygonalData@12@PEAVSupportLocal@12@AEAVSeparatingAxes@12@AEBT__m128@@3@Z 0000000180134750 f   GuPCMContactGenBoxConvex.obj
 0001:00133a00       ?computeMTD@Gu@physx@@YA_NAEAUPolygonalData@12@0PEAVSupportLocal@12@1AEAT__m128@@2@Z 0000000180134a00 f   GuPCMContactGenBoxConvex.obj
 0001:00134020       ?generateFullContactManifold@Gu@physx@@YA_NAEAUPolygonalData@12@0PEAVSupportLocal@12@1PEAVPersistentContact@12@AEAIAEBT__m128@@444MM_NPEAVPxRenderOutput@2@M@Z 0000000180135020 f   GuPCMContactGenBoxConvex.obj
 0001:00134b20       ?generatedContacts@Gu@physx@@YAXAEAUPolygonalData@12@0AEBUHullPolygonData@12@1PEAVSupportLocal@12@2AEBVPxMatTransformV@aos@2@PEAVPersistentContact@12@AEAIAEBT__m128@@PEAVPxRenderOutput@2@@Z 0000000180135b20 f   GuPCMContactGenBoxConvex.obj
 0001:00135f60       ?computeMTD@Gu@physx@@YA_NAEBVCapsuleV@12@AEAUPolygonalData@12@PEAVSupportLocal@12@AEAT__m128@@3@Z 0000000180136f60 f   GuPCMContactGenSphereCapsule.obj
 0001:00136050       ?generateCapsuleBoxFullContactManifold@Gu@physx@@YA_NAEBVCapsuleV@12@AEAUPolygonalData@12@PEAVSupportLocal@12@AEBVPxMatTransformV@aos@2@PEAVPersistentContact@12@AEAIAEBT__m128@@AEAT9@6M_NMPEAVPxRenderOutput@2@@Z 0000000180137050 f   GuPCMContactGenSphereCapsule.obj
 0001:001361f0       ?generateFullContactManifold@Gu@physx@@YA_NAEBVCapsuleV@12@AEAUPolygonalData@12@PEAVSupportLocal@12@AEBVPxMatTransformV@aos@2@PEAVPersistentContact@12@AEAIAEBT__m128@@AEAT9@6M_NM@Z 00000001801371f0 f   GuPCMContactGenSphereCapsule.obj
 0001:001363e0       ?generateSphereFullContactManifold@Gu@physx@@YA_NAEBVCapsuleV@12@AEAUPolygonalData@12@PEAVSupportLocal@12@PEAVPersistentContact@12@AEAIAEBT__m128@@AEAT7@_N@Z 00000001801373e0 f   GuPCMContactGenSphereCapsule.obj
 0001:00137890       ?pcmContactPlaneBox@Gu@physx@@YA_NAEBVPxGeometry@2@0AEBV?$PxTransformT@M@2@1AEBUNarrowPhaseParams@12@AEAUCache@12@AEAVPxContactBuffer@2@PEAVPxRenderOutput@2@@Z 0000000180138890 f   GuPCMContactPlaneBox.obj
 0001:00138430       ?pcmContactPlaneCapsule@Gu@physx@@YA_NAEBVPxGeometry@2@0AEBV?$PxTransformT@M@2@1AEBUNarrowPhaseParams@12@AEAUCache@12@AEAVPxContactBuffer@2@PEAVPxRenderOutput@2@@Z 0000000180139430 f   GuPCMContactPlaneCapsule.obj
 0001:00138bb0       ?pcmContactPlaneConvex@Gu@physx@@YA_NAEBVPxGeometry@2@0AEBV?$PxTransformT@M@2@1AEBUNarrowPhaseParams@12@AEAUCache@12@AEAVPxContactBuffer@2@PEAVPxRenderOutput@2@@Z 0000000180139bb0 f   GuPCMContactPlaneConvex.obj
 0001:001397f0       ?pcmContactSphereBox@Gu@physx@@YA_NAEBVPxGeometry@2@0AEBV?$PxTransformT@M@2@1AEBUNarrowPhaseParams@12@AEAUCache@12@AEAVPxContactBuffer@2@PEAVPxRenderOutput@2@@Z 000000018013a7f0 f   GuPCMContactSphereBox.obj
 0001:00139c50       ?pcmContactSphereCapsule@Gu@physx@@YA_NAEBVPxGeometry@2@0AEBV?$PxTransformT@M@2@1AEBUNarrowPhaseParams@12@AEAUCache@12@AEAVPxContactBuffer@2@PEAVPxRenderOutput@2@@Z 000000018013ac50 f   GuPCMContactSphereCapsule.obj
 0001:0013a0d0       ?pcmContactSphereConvex@Gu@physx@@YA_NAEBVPxGeometry@2@0AEBV?$PxTransformT@M@2@1AEBUNarrowPhaseParams@12@AEAUCache@12@AEAVPxContactBuffer@2@PEAVPxRenderOutput@2@@Z 000000018013b0d0 f   GuPCMContactSphereConvex.obj
 0001:0013ada0       ??1?$PxArray@USortedTriangle@Gu@physx@@V?$PxInlineAllocator@$0IAA@V?$PxReflectionAllocator@USortedTriangle@Gu@physx@@@physx@@@3@@physx@@QEAA@XZ 000000018013bda0 f i GuPCMContactSphereHeightField.obj
 0001:0013ae10       ??_EPCMSphereVsHeightfieldContactGenerationCallback@physx@@UEAAPEAXI@Z 000000018013be10 f i GuPCMContactSphereHeightField.obj
 0001:0013ae10       ??_GPCMSphereVsHeightfieldContactGenerationCallback@physx@@UEAAPEAXI@Z 000000018013be10 f i GuPCMContactSphereHeightField.obj
 0001:0013ae60       ?pcmContactSphereHeightField@Gu@physx@@YA_NAEBVPxGeometry@2@0AEBV?$PxTransformT@M@2@1AEBUNarrowPhaseParams@12@AEAUCache@12@AEAVPxContactBuffer@2@PEAVPxRenderOutput@2@@Z 000000018013be60 f   GuPCMContactSphereHeightField.obj
 0001:0013b920       ?reportTouchedTris@?$PCMHeightfieldContactGenerationCallback@UPCMSphereVsHeightfieldContactGenerationCallback@physx@@@Gu@physx@@UEAA_NIPEBI@Z 000000018013c920 f i GuPCMContactSphereHeightField.obj
 0001:0013bee0       ??$PxSort@USortedTriangle@Gu@physx@@U?$PxLess@USortedTriangle@Gu@physx@@@3@V?$PxReflectionAllocator@USortedTriangle@Gu@physx@@@3@@physx@@YAXPEAUSortedTriangle@Gu@0@IAEBU?$PxLess@USortedTriangle@Gu@physx@@@0@AEBV?$PxReflectionAllocator@USortedTriangle@Gu@physx@@@0@I@Z 000000018013cee0 f i GuPCMContactSphereMesh.obj
 0001:0013c410       ??$processTriangleCache@$0BA@VPCMSphereVsMeshContactGeneration@Gu@physx@@@PCMMeshContactGeneration@Gu@physx@@QEAA_NAEAU?$TriangleCache@$0BA@@12@@Z 000000018013d410 f i GuPCMContactSphereMesh.obj
 0001:0013ca30       ?addToPatch@PCMSphereVsMeshContactGeneration@Gu@physx@@QEAAXAEBT__m128@@0T4@I@Z 000000018013da30 f   GuPCMContactSphereMesh.obj
 0001:0013d0d0       ?allocate@?$PxArray@IV?$PxInlineAllocator@$0PAA@V?$PxReflectionAllocator@I@physx@@@physx@@@physx@@IEAAPEAII@Z 000000018013e0d0 f i GuPCMContactSphereMesh.obj
 0001:0013d1a0       ?allocate@?$PxArray@USortedTriangle@Gu@physx@@V?$PxInlineAllocator@$0IAA@V?$PxReflectionAllocator@USortedTriangle@Gu@physx@@@physx@@@3@@physx@@IEAAPEAUSortedTriangle@Gu@2@I@Z 000000018013e1a0 f i GuPCMContactSphereMesh.obj
 0001:0013d260       ?generateLastContacts@PCMSphereVsMeshContactGeneration@Gu@physx@@QEAAXXZ 000000018013e260 f   GuPCMContactSphereMesh.obj
 0001:0013d8a0       ?growAndPushBack@?$PxArray@USortedTriangle@Gu@physx@@V?$PxInlineAllocator@$0IAA@V?$PxReflectionAllocator@USortedTriangle@Gu@physx@@@physx@@@3@@physx@@IEAAAEAUSortedTriangle@Gu@2@AEBU342@@Z 000000018013e8a0 f i GuPCMContactSphereMesh.obj
 0001:0013d9b0       ?pcmContactSphereMesh@Gu@physx@@YA_NAEBVPxGeometry@2@0AEBV?$PxTransformT@M@2@1AEBUNarrowPhaseParams@12@AEAUCache@12@AEAVPxContactBuffer@2@PEAVPxRenderOutput@2@@Z 000000018013e9b0 f   GuPCMContactSphereMesh.obj
 0001:0013f480       ?processTriangle@PCMSphereVsMeshContactGeneration@Gu@physx@@QEAA_NPEBV?$PxVec3T@M@3@IEPEBI@Z 0000000180140480 f   GuPCMContactSphereMesh.obj
 0001:0013f880       ?recreate@?$PxArray@IV?$PxInlineAllocator@$0PAA@V?$PxReflectionAllocator@I@physx@@@physx@@@physx@@IEAAXI@Z 0000000180140880 f i GuPCMContactSphereMesh.obj
 0001:0013f930       ?pcmContactSpherePlane@Gu@physx@@YA_NAEBVPxGeometry@2@0AEBV?$PxTransformT@M@2@1AEBUNarrowPhaseParams@12@AEAUCache@12@AEAVPxContactBuffer@2@PEAVPxRenderOutput@2@@Z 0000000180140930 f   GuPCMContactSpherePlane.obj
 0001:0013fab0       ?pcmContactSphereSphere@Gu@physx@@YA_NAEBVPxGeometry@2@0AEBV?$PxTransformT@M@2@1AEBUNarrowPhaseParams@12@AEAUCache@12@AEAVPxContactBuffer@2@PEAVPxRenderOutput@2@@Z 0000000180140ab0 f   GuPCMContactSphereSphere.obj
 0001:00140370       ?pcmContactGeometryCustomGeometry@Gu@physx@@YA_NAEBVPxGeometry@2@0AEBV?$PxTransformT@M@2@1AEBUNarrowPhaseParams@12@AEAUCache@12@AEAVPxContactBuffer@2@PEAVPxRenderOutput@2@@Z 0000000180141370 f   GuPCMContactCustomGeometry.obj
 0001:00140420       ?getPCMConvexData@Gu@physx@@YAXAEBVConvexHullV@12@_NAEAUPolygonalData@12@@Z 0000000180141420 f   GuPCMShapeConvex.obj
 0001:00140460       ?getPCMConvexData@Gu@physx@@YA_NAEBVPxConvexMeshGeometry@2@AEAVFastVertex2ShapeScaling@Cm@2@AEAVPxBounds3@2@AEAUPolygonalData@12@@Z 0000000180141460 f   GuPCMShapeConvex.obj
 0001:001409b0       ?getPolygonalData@PCMPolygonalBox@Gu@physx@@QEBAXPEIAUPolygonalData@23@@Z 00000001801419b0 f   GuPCMShapeConvex.obj
 0001:00140a30       ?generatePolyDataContactManifold@PCMConvexVsMeshContactGeneration@Gu@physx@@QEAA_NAEAVTriangleV@23@IIEPEAVMeshPersistentContact@23@AEAIAEBT__m128@@AEAT6@@Z 0000000180141a30 f   GuPCMTriangleContactGen.obj
 0001:00140b50       ?generateTriangleFullContactManifold@PCMConvexVsMeshContactGeneration@Gu@physx@@QEAA_NAEAVTriangleV@23@IPEBIEAEBUPolygonalData@23@PEAV?$SupportLocalImpl@VTriangleV@Gu@physx@@@23@PEAVSupportLocal@23@PEAVMeshPersistentContact@23@AEAIAEBT__m128@@AEAT9@@Z 0000000180141b50 f   GuPCMTriangleContactGen.obj
 0001:00141090       ?generateTriangleFullContactManifold@PCMConvexVsMeshContactGeneration@Gu@physx@@SA_NAEAVTriangleV@23@IEAEBUPolygonalData@23@PEAV?$SupportLocalImpl@VTriangleV@Gu@physx@@@23@PEAVSupportLocal@23@PEAVMeshPersistentContact@23@AEAIAEBT__m128@@AEAT9@PEAVPxRenderOutput@3@@Z 0000000180142090 f   GuPCMTriangleContactGen.obj
 0001:00143110       ?addBatchManifoldContacts2@PersistentContactManifold@Gu@physx@@QEAAXPEBVPersistentContact@23@I@Z 0000000180144110 f   GuPersistentContactManifold.obj
 0001:00143180       ?addBatchManifoldContacts@PersistentContactManifold@Gu@physx@@QEAAXPEBVPersistentContact@23@IM@Z 0000000180144180 f   GuPersistentContactManifold.obj
 0001:00143200       ?addBatchManifoldContactsCluster@PersistentContactManifold@Gu@physx@@QEAAXPEBVPersistentContact@23@I@Z 0000000180144200 f   GuPersistentContactManifold.obj
 0001:00143480       ?addManifoldContactPoints@MultiplePersistentContactManifold@Gu@physx@@QEAAXPEAVMeshPersistentContact@23@IPEAPEAUPCMContactPatch@23@IAEBT__m128@@2E@Z 0000000180144480 f   GuPersistentContactManifold.obj
 0001:00143890       ?addManifoldContactsToContactBuffer@MultiplePersistentContactManifold@Gu@physx@@QEAA_NAEAVPxContactBuffer@3@AEBVPxTransformV@aos@3@1AEBT__m128@@@Z 0000000180144890 f   GuPersistentContactManifold.obj
 0001:00143b40       ?addManifoldContactsToContactBuffer@MultiplePersistentContactManifold@Gu@physx@@QEAA_NAEAVPxContactBuffer@3@AEBVPxTransformV@aos@3@@Z 0000000180144b40 f   GuPersistentContactManifold.obj
 0001:00143dd0       ?addManifoldContactsToContactBuffer@PersistentContactManifold@Gu@physx@@QEAAXAEAVPxContactBuffer@3@AEBT__m128@@1AEBVPxTransformV@aos@3@11@Z 0000000180144dd0 f   GuPersistentContactManifold.obj
 0001:00143f60       ?addManifoldContactsToContactBuffer@PersistentContactManifold@Gu@physx@@QEAAXAEAVPxContactBuffer@3@AEBT__m128@@AEBVPxMatTransformV@aos@3@@Z 0000000180144f60 f   GuPersistentContactManifold.obj
 0001:00144010       ?addManifoldContactsToContactBuffer@PersistentContactManifold@Gu@physx@@QEAAXAEAVPxContactBuffer@3@AEBT__m128@@AEBVPxTransformV@aos@3@1@Z 0000000180145010 f   GuPersistentContactManifold.obj
 0001:00144160       ?addManifoldPoint2@PersistentContactManifold@Gu@physx@@QEAAIAEBT__m128@@000@Z 0000000180145160 f   GuPersistentContactManifold.obj
 0001:00144290       ?addManifoldPoint@Gu@physx@@YAXPEAVPersistentContact@12@AEAVPersistentContactManifold@12@AEAUGjkOutput@12@AEBVPxMatTransformV@aos@2@T__m128@@@Z 0000000180145290 f   GuPersistentContactManifold.obj
 0001:00144440       ?addManifoldPoint@PersistentContactManifold@Gu@physx@@QEAAIAEBT__m128@@000@Z 0000000180145440 f   GuPersistentContactManifold.obj
 0001:00144880       ?drawLine@MultiplePersistentContactManifold@Gu@physx@@SAXAEAVPxRenderOutput@3@AEBT__m128@@1I@Z 0000000180145880 f   GuPersistentContactManifold.obj
 0001:00144930       ?drawLine@MultiplePersistentContactManifold@Gu@physx@@SAXAEAVPxRenderOutput@3@V?$PxVec3T@M@3@1I@Z 0000000180145930 f   GuPersistentContactManifold.obj
 0001:001449a0       ?drawManifold@MultiplePersistentContactManifold@Gu@physx@@QEAAXAEAVPxRenderOutput@3@AEBVPxTransformV@aos@3@1@Z 00000001801459a0 f   GuPersistentContactManifold.obj
 0001:00145030       ?drawPoint@MultiplePersistentContactManifold@Gu@physx@@SAXAEAVPxRenderOutput@3@AEBT__m128@@MI@Z 0000000180146030 f   GuPersistentContactManifold.obj
 0001:00145240       ?drawPolygon@MultiplePersistentContactManifold@Gu@physx@@SAXAEAVPxRenderOutput@3@AEBVPxTransformV@aos@3@PEAT__m128@@II@Z 0000000180146240 f   GuPersistentContactManifold.obj
 0001:00145480       ?findRotationMatrixFromZAxis@Gu@physx@@YA?AUMat33V@aos@2@AEBT__m128@@@Z 0000000180146480 f   GuPersistentContactManifold.obj
 0001:00145700       ?fromBuffer@MultiplePersistentContactManifold@Gu@physx@@QEAAXPEIAE@Z 0000000180146700 f   GuPersistentContactManifold.obj
 0001:00145850       ?reduceBatchContacts2@PersistentContactManifold@Gu@physx@@QEAAXPEBVPersistentContact@23@I@Z 0000000180146850 f   GuPersistentContactManifold.obj
 0001:00145a50       ?reduceBatchContacts@PersistentContactManifold@Gu@physx@@QEAAXPEBVPersistentContact@23@IM@Z 0000000180146a50 f   GuPersistentContactManifold.obj
 0001:00145f00       ?reduceBatchContactsCapsule@SinglePersistentContactManifold@Gu@physx@@QEAA?AT__m128@@PEBVMeshPersistentContact@23@IAEAUPCMContactPatch@23@@Z 0000000180146f00 f   GuPersistentContactManifold.obj
 0001:00146190       ?reduceBatchContactsCluster@PersistentContactManifold@Gu@physx@@QEAAXPEBVPersistentContact@23@I@Z 0000000180147190 f   GuPersistentContactManifold.obj
 0001:00146620       ?reduceBatchContactsConvex@SinglePersistentContactManifold@Gu@physx@@QEAA?AT__m128@@PEBVMeshPersistentContact@23@IAEAUPCMContactPatch@23@@Z 0000000180147620 f   GuPersistentContactManifold.obj
 0001:00146c10       ?reduceContacts@SinglePersistentContactManifold@Gu@physx@@SAIPEAVMeshPersistentContact@23@I@Z 0000000180147c10 f   GuPersistentContactManifold.obj
 0001:001471a0       ?reduceContactsForPCM@PersistentContactManifold@Gu@physx@@QEAAIAEBT__m128@@00@Z 00000001801481a0 f   GuPersistentContactManifold.obj
 0001:00147740       ?refreshContactPoints@SinglePersistentContactManifold@Gu@physx@@QEAA?AT__m128@@AEBVPxMatTransformV@aos@3@AEBT4@1@Z 0000000180148740 f   GuPersistentContactManifold.obj
 0001:00147890       ?replaceManifoldPoint@PersistentContactManifold@Gu@physx@@QEAA_NAEBT__m128@@000@Z 0000000180148890 f   GuPersistentContactManifold.obj
 0001:00147960       ?contains@Gu@physx@@YA_NPEAT__m128@@IAEBT3@11@Z 0000000180148960 f   GuPCMContactGenUtil.obj
 0001:00147b20       ?getPolygonIndex@Gu@physx@@YAHAEBUPolygonalData@12@PEAVSupportLocal@12@AEBT__m128@@AEAH@Z 0000000180148b20 f   GuPCMContactGenUtil.obj
 0001:00147d60       ?getWitnessPolygonIndex@Gu@physx@@YAIAEBUPolygonalData@12@PEAVSupportLocal@12@AEBT__m128@@2M@Z 0000000180148d60 f   GuPCMContactGenUtil.obj
 0001:001482a0       ?sweepBoxBox@Gu@physx@@YA_NAEBVBox@12@0AEBV?$PxVec3T@M@2@MV?$PxFlags@W4Enum@PxHitFlag@physx@@G@2@AEAUPxGeomSweepHit@2@@Z 00000001801492a0 f   GuSweepBoxBox.obj
 0001:001498a0       ?sweepBoxSphere@Gu@physx@@YA_NAEBVBox@12@MAEBV?$PxVec3T@M@2@1MAEAMAEAV42@V?$PxFlags@W4Enum@PxHitFlag@physx@@G@2@@Z 000000018014a8a0 f   GuSweepBoxSphere.obj
 0001:0014a4e0       ?sweepBoxTriangle@Gu@physx@@YA_NAEBVPxTriangle@2@AEBVPxBounds3@2@AEBV?$PxVec3T@M@2@2AEAV52@3AEAM_N@Z 000000018014b4e0 f   GuSweepBoxTriangle_FeatureBased.obj
 0001:0014bb80       ?triBoxSweepTestBoxSpace@Gu@physx@@YAHAEBVPxTriangle@2@AEBV?$PxVec3T@M@2@11MAEAM_N@Z 000000018014cb80 f   GuSweepBoxTriangle_SAT.obj
 0001:0014d490       ?sweepCapsuleBox@Gu@physx@@YA_NAEBVCapsule@12@AEBV?$PxTransformT@M@2@AEBV?$PxVec3T@M@2@2MAEAV52@AEAM3V?$PxFlags@W4Enum@PxHitFlag@physx@@G@2@@Z 000000018014e490 f   GuSweepCapsuleBox.obj
 0001:0014d7e0       ?distancePointSegmentSquared@Gu@physx@@YAMAEBVSegment@12@AEBV?$PxVec3T@M@2@PEAM@Z 000000018014e7e0 f i GuSweepCapsuleCapsule.obj
 0001:0014db60       ?sweepCapsuleCapsule@Gu@physx@@YA_NAEBVCapsule@12@0AEBV?$PxVec3T@M@2@MAEAMAEAV42@3IAEAG@Z 000000018014eb60 f   GuSweepCapsuleCapsule.obj
 0001:0014e930       ?sweepCapsuleTriangles_Precise@Gu@physx@@YA_NIPEIBVPxTriangle@2@AEBVCapsule@12@AEBV?$PxVec3T@M@2@MPEIBIAEAUPxGeomSweepHit@2@AEAV52@V?$PxFlags@W4Enum@PxHitFlag@physx@@G@2@_NPEBVBoxPadded@12@@Z 000000018014f930 f   GuSweepCapsuleTriangle.obj
 0001:00150a50       ?sweepSphereCapsule@Gu@physx@@YA_NAEBVSphere@12@AEBVCapsule@12@AEBV?$PxVec3T@M@2@MAEAMAEAV52@4V?$PxFlags@W4Enum@PxHitFlag@physx@@G@2@@Z 0000000180151a50 f   GuSweepSphereCapsule.obj
 0001:001510f0       ?sweepSphereSphere@Gu@physx@@YA_NAEBV?$PxVec3T@M@2@M0M0AEAMAEAV32@@Z 00000001801520f0 f   GuSweepSphereSphere.obj
 0001:00151380       ?sweepSphereTriangles@Gu@physx@@YA_NIPEIBVPxTriangle@2@AEBV?$PxVec3T@M@2@M1MPEIBIAEAUPxGeomSweepHit@2@AEAV42@_N555@Z 0000000180152380 f   GuSweepSphereTriangle.obj
 0001:00151c70       ?sweepSphereVSQuad@Gu@physx@@YA_NPEIBV?$PxVec3T@M@2@AEBV32@1M1AEAM@Z 0000000180152c70 f   GuSweepSphereTriangle.obj
 0001:00152ca0       ?sweepSphereVSTri@Gu@physx@@YA_NPEIBV?$PxVec3T@M@2@AEBV32@1M1AEAMAEA_N_N@Z 0000000180153ca0 f   GuSweepSphereTriangle.obj
 0001:00153950       ??$gjk@U?$LocalConvex@VTriangleV@Gu@physx@@@Gu@physx@@U?$LocalConvex@VBoxV@Gu@physx@@@23@@Gu@physx@@YA?AW4GjkStatus@01@AEBU?$LocalConvex@VTriangleV@Gu@physx@@@01@AEBU?$LocalConvex@VBoxV@Gu@physx@@@01@AEBT__m128@@2AEAT5@333@Z 0000000180154950 f i GuSweepTriangleUtils.obj
 0001:00154630       ?computeBoxTriImpactData@Gu@physx@@YAXAEAV?$PxVec3T@M@2@0AEBV32@1AEBVPxTriangle@2@M@Z 0000000180155630 f   GuSweepTriangleUtils.obj
 0001:001548c0       ?computeEdgeEdgeNormal@Gu@physx@@YAXAEAV?$PxVec3T@M@2@AEBV32@1111M@Z 00000001801558c0 f   GuSweepTriangleUtils.obj
 0001:00154b80       ?computeSphereTriImpactData@Gu@physx@@YAXAEAV?$PxVec3T@M@2@0AEBV32@1MAEBVPxTriangle@2@@Z 0000000180155b80 f   GuSweepTriangleUtils.obj
 0001:00155060       ??0ShapeData@Gu@physx@@QEAA@AEBVPxGeometry@2@AEBV?$PxTransformT@M@2@M@Z 0000000180156060 f   GuBounds.obj
 0001:001555c0       ?computeBounds@Gu@physx@@YAXAEAVPxBounds3@2@AEBVPxGeometry@2@AEBV?$PxTransformT@M@2@MM@Z 00000001801565c0 f   GuBounds.obj
 0001:00156330       ?computeBoundsAroundVertices@Gu@physx@@YAXAEAVPxBounds3@2@IPEIBV?$PxVec3T@M@2@@Z 0000000180157330 f   GuBounds.obj
 0001:001563e0       ?computeGlobalBox@Gu@physx@@YAXAEAVPxBounds3@2@IPEIBV32@PEIBI@Z 00000001801573e0 f   GuBounds.obj
 0001:00156470       ?computeLocalBoundsAndGeomEpsilon@Gu@physx@@YAXPEBV?$PxVec3T@M@2@IAEAVPxBounds3@2@AEAM@Z 0000000180157470 f   GuBounds.obj
 0001:00157550       ??$?_UV?$PxReflectionAllocator@UBVHNode@Gu@physx@@@physx@@@PxUserAllocated@physx@@SAPEAX_KV?$PxReflectionAllocator@UBVHNode@Gu@physx@@@1@PEBDH@Z 0000000180158550 f i GuAABBTree.obj
 0001:001575f0       ??$?_UV?$PxReflectionAllocator@VAABBTreeBuildNode@Gu@physx@@@physx@@@PxUserAllocated@physx@@SAPEAX_KV?$PxReflectionAllocator@VAABBTreeBuildNode@Gu@physx@@@1@PEBDH@Z 00000001801585f0 f i GuAABBTree.obj
 0001:00157820       ??0AABBTree@Gu@physx@@QEAA@XZ 0000000180158820 f   GuAABBTree.obj
 0001:00157850       ??0BVHPartialRefitData@Gu@physx@@QEAA@XZ 0000000180158850 f   GuAABBTree.obj
 0001:00157880       ??0NodeAllocator@Gu@physx@@QEAA@XZ 0000000180158880 f   GuAABBTree.obj
 0001:001578a0       ??1AABBTree@Gu@physx@@QEAA@XZ 00000001801588a0 f   GuAABBTree.obj
 0001:001578c0       ??1BVHPartialRefitData@Gu@physx@@QEAA@XZ 00000001801588c0 f   GuAABBTree.obj
 0001:00157960       ??1NodeAllocator@Gu@physx@@QEAA@XZ 0000000180158960 f   GuAABBTree.obj
 0001:001579b0       ?_buildHierarchy@AABBTreeBuildNode@Gu@physx@@QEAAXAEBVAABBTreeBuildParams@23@AEAUBuildStats@23@AEAVNodeAllocator@23@QEAI@Z 00000001801589b0 f   GuAABBTree.obj
 0001:00157a40       ?_buildHierarchySAH@AABBTreeBuildNode@Gu@physx@@QEAAXAEBVAABBTreeBuildParams@23@AEAUSAH_Buffers@23@AEAUBuildStats@23@AEAVNodeAllocator@23@QEAI@Z 0000000180158a40 f   GuAABBTree.obj
 0001:00157af0       ?addRuntimeChilds@AABBTree@Gu@physx@@AEAAXAEAIAEBVAABBTreeMergeData@23@@Z 0000000180158af0 f   GuAABBTree.obj
 0001:00157bf0       ?build@AABBTree@Gu@physx@@QEAA_NAEBVAABBTreeBuildParams@23@AEAVNodeAllocator@23@@Z 0000000180158bf0 f   GuAABBTree.obj
 0001:00157e10       ?buildAABBTree@Gu@physx@@YAPEAIAEBVAABBTreeBuildParams@12@AEAVNodeAllocator@12@AEAUBuildStats@12@@Z 0000000180158e10 f   GuAABBTree.obj
 0001:00157eb0       ?buildAABBTree@Gu@physx@@YAXIAEBVAABBTreeBounds@12@AEAV?$PxArray@UBVHNode@Gu@physx@@V?$PxReflectionAllocator@UBVHNode@Gu@physx@@@3@@2@@Z 0000000180158eb0 f   GuAABBTree.obj
 0001:00158280       ?buildEnd@AABBTree@Gu@physx@@AEAAXAEBVAABBTreeBuildParams@23@AEAVNodeAllocator@23@AEBUBuildStats@23@@Z 0000000180159280 f   GuAABBTree.obj
 0001:00158460       ?createUpdateMap@BVHPartialRefitData@Gu@physx@@QEAAXI@Z 0000000180159460 f   GuAABBTree.obj
 0001:00158580       ?flattenTree@Gu@physx@@YAXAEBVNodeAllocator@12@PEAUBVHNode@12@PEBI@Z 0000000180159580 f   GuAABBTree.obj
 0001:00158730       ?fullRefit@BVHCoreData@Gu@physx@@QEAAXPEBVPxBounds3@3@@Z 0000000180159730 f   GuAABBTree.obj
 0001:001588f0       ?getBiNode@NodeAllocator@Gu@physx@@QEAAPEAVAABBTreeBuildNode@23@XZ 00000001801598f0 f   GuAABBTree.obj
 0001:00158a20       ?getParentIndices@BVHPartialRefitData@Gu@physx@@IEAAPEAIXZ 0000000180159a20 f   GuAABBTree.obj
 0001:00158ab0       ?growAndPushBack@?$PxArray@PEAVAABBTreeBuildNode@Gu@physx@@V?$PxReflectionAllocator@PEAVAABBTreeBuildNode@Gu@physx@@@3@@physx@@IEAAAEAPEAVAABBTreeBuildNode@Gu@2@AEBQEAV342@@Z 0000000180159ab0 f i GuAABBTree.obj
 0001:00158bf0       ?growAndPushBack@?$PxArray@USlab@NodeAllocator@Gu@physx@@V?$PxReflectionAllocator@USlab@NodeAllocator@Gu@physx@@@4@@physx@@IEAAAEAUSlab@NodeAllocator@Gu@2@AEBU3452@@Z 0000000180159bf0 f i GuAABBTree.obj
 0001:00158cb0       ?init@AABBTreeBounds@Gu@physx@@QEAAXIPEBVPxBounds3@3@@Z 0000000180159cb0 f   GuAABBTree.obj
 0001:00158d70       ?init@NodeAllocator@Gu@physx@@QEAAXII@Z 0000000180159d70 f   GuAABBTree.obj
 0001:00159060       ?initTree@AABBTree@Gu@physx@@QEAAXAEBVAABBTreeMergeData@23@@Z 000000018015a060 f   GuAABBTree.obj
 0001:00159150       ?markNodeForRefit@BVHPartialRefitData@Gu@physx@@QEAAXI@Z 000000018015a150 f   GuAABBTree.obj
 0001:00159260       ?mergeRuntimeLeaf@AABBTree@Gu@physx@@AEAAXAEAUBVHNode@23@AEBVAABBTreeMergeData@23@I@Z 000000018015a260 f   GuAABBTree.obj
 0001:00159480       ?mergeRuntimeNode@AABBTree@Gu@physx@@AEAAXAEAUBVHNode@23@AEBVAABBTreeMergeData@23@I@Z 000000018015a480 f   GuAABBTree.obj
 0001:00159760       ?mergeTree@AABBTree@Gu@physx@@QEAAXAEBVAABBTreeMergeData@23@@Z 000000018015a760 f   GuAABBTree.obj
 0001:001599f0       ?progressiveBuild@AABBTree@Gu@physx@@QEAAIAEBVAABBTreeBuildParams@23@AEAVNodeAllocator@23@AEAUBuildStats@23@II@Z 000000018015a9f0 f   GuAABBTree.obj
 0001:00159ca0       ?recreate@?$PxArray@UBVHNode@Gu@physx@@V?$PxReflectionAllocator@UBVHNode@Gu@physx@@@3@@physx@@IEAAXI@Z 000000018015aca0 f i GuAABBTree.obj
 0001:00159f10       ?refitMarkedNodes@BVHPartialRefitData@Gu@physx@@QEAAXPEBVPxBounds3@3@@Z 000000018015af10 f   GuAABBTree.obj
 0001:0015a080       ?release@AABBTree@Gu@physx@@QEAAX_N@Z 000000018015b080 f   GuAABBTree.obj
 0001:0015a160       ?release@AABBTreeBounds@Gu@physx@@QEAAXXZ 000000018015b160 f   GuAABBTree.obj
 0001:0015a1b0       ?release@NodeAllocator@Gu@physx@@QEAAXXZ 000000018015b1b0 f   GuAABBTree.obj
 0001:0015a260       ?releasePartialRefitData@BVHPartialRefitData@Gu@physx@@QEAAX_N@Z 000000018015b260 f   GuAABBTree.obj
 0001:0015a2f0       ?reshuffle@Gu@physx@@YAIIQEIAIPEIBV?$PxVec3T@M@2@MI@Z 000000018015b2f0 f   GuAABBTree.obj
 0001:0015a430       ?resize@?$PxArray@UBVHNode@Gu@physx@@V?$PxReflectionAllocator@UBVHNode@Gu@physx@@@3@@physx@@QEAAXIAEBUBVHNode@Gu@2@@Z 000000018015b430 f i GuAABBTree.obj
 0001:0015a5b0       ?resize@?$PxArray@USlab@NodeAllocator@Gu@physx@@V?$PxReflectionAllocator@USlab@NodeAllocator@Gu@physx@@@4@@physx@@QEAAXIAEBUSlab@NodeAllocator@Gu@2@@Z 000000018015b5b0 f i GuAABBTree.obj
 0001:0015a630       ?resize@AABBTreeBounds@Gu@physx@@QEAAXII@Z 000000018015b630 f   GuAABBTree.obj
 0001:0015a6e0       ?shiftIndices@AABBTree@Gu@physx@@QEAAXI@Z 000000018015b6e0 f   GuAABBTree.obj
 0001:0015a700       ?shiftOrigin@AABBTree@Gu@physx@@QEAAXAEBV?$PxVec3T@M@3@@Z 000000018015b700 f   GuAABBTree.obj
 0001:0015a980       ?subdivide@AABBTreeBuildNode@Gu@physx@@QEAAXAEBVAABBTreeBuildParams@23@AEAUBuildStats@23@AEAVNodeAllocator@23@QEAI@Z 000000018015b980 f   GuAABBTree.obj
 0001:0015ab60       ?subdivideSAH@AABBTreeBuildNode@Gu@physx@@QEAAXAEBVAABBTreeBuildParams@23@AEAUSAH_Buffers@23@AEAUBuildStats@23@AEAVNodeAllocator@23@QEAI@Z 000000018015bb60 f   GuAABBTree.obj
 0001:0015ac50       ?traverseRuntimeNode@AABBTree@Gu@physx@@AEAAXAEAUBVHNode@23@AEBVAABBTreeMergeData@23@I@Z 000000018015bc50 f   GuAABBTree.obj
 0001:0015ad40       ?initMap@AABBTreeUpdateMap@Gu@physx@@QEAAXIAEBVAABBTree@23@@Z 000000018015bd40 f   GuAABBTreeUpdateMap.obj
 0001:0015ae80       ?invalidate@AABBTreeUpdateMap@Gu@physx@@QEAAXIIAEAVAABBTree@23@@Z 000000018015be80 f   GuAABBTreeUpdateMap.obj
 0001:0015b120       ?visualizeTree@@YAXAEAVPxRenderOutput@physx@@IPEBVAABBTree@Gu@2@@Z 000000018015c120 f   GuSqInternal.obj
 0001:0015b190       ?visualizeTree@@YAXAEAVPxRenderOutput@physx@@IPEBVBVH@Gu@2@@Z 000000018015c190 f   GuSqInternal.obj
 0001:0015b200       ?visualizeTree@@YAXAEAVPxRenderOutput@physx@@IPEBVIncrementalAABBTree@Gu@2@PEAVDebugVizCallback@2@@Z 000000018015c200 f   GuSqInternal.obj
 0001:0015b280       ??$PxSort@PEAXU?$PxLess@PEAX@physx@@V?$PxReflectionAllocator@UAABBTreeIndices@Gu@physx@@@2@@physx@@YAXPEAPEAXIAEBU?$PxLess@PEAX@0@AEBV?$PxReflectionAllocator@UAABBTreeIndices@Gu@physx@@@0@I@Z 000000018015c280 f i GuIncrementalAABBTree.obj
 0001:0015b6e0       ??$PxSort@PEAXU?$PxLess@PEAX@physx@@V?$PxReflectionAllocator@UIncrementalAABBTreeNodePair@Gu@physx@@@2@@physx@@YAXPEAPEAXIAEBU?$PxLess@PEAX@0@AEBV?$PxReflectionAllocator@UIncrementalAABBTreeNodePair@Gu@physx@@@0@I@Z 000000018015c6e0 f i GuIncrementalAABBTree.obj
 0001:0015bb40       ??0IncrementalAABBTree@Gu@physx@@QEAA@XZ 000000018015cb40 f   GuIncrementalAABBTree.obj
 0001:0015bbc0       ??1?$PxPoolBase@UAABBTreeIndices@Gu@physx@@V?$PxReflectionAllocator@UAABBTreeIndices@Gu@physx@@@3@@physx@@QEAA@XZ 000000018015cbc0 f i GuIncrementalAABBTree.obj
 0001:0015bd20       ??1?$PxPoolBase@UIncrementalAABBTreeNodePair@Gu@physx@@V?$PxReflectionAllocator@UIncrementalAABBTreeNodePair@Gu@physx@@@3@@physx@@QEAA@XZ 000000018015cd20 f i GuIncrementalAABBTree.obj
 0001:0015be80       ??1IncrementalAABBTree@Gu@physx@@QEAA@XZ 000000018015ce80 f   GuIncrementalAABBTree.obj
 0001:0015bec0       ?allocate@?$PxArray@PEAXV?$PxReflectionAllocator@UAABBTreeIndices@Gu@physx@@@physx@@@physx@@IEAAPEAPEAXI@Z 000000018015cec0 f i GuIncrementalAABBTree.obj
 0001:0015bf70       ?allocate@?$PxArray@PEAXV?$PxReflectionAllocator@UIncrementalAABBTreeNodePair@Gu@physx@@@physx@@@physx@@IEAAPEAPEAXI@Z 000000018015cf70 f i GuIncrementalAABBTree.obj
 0001:0015c020       ?allocate@?$PxPoolBase@UAABBTreeIndices@Gu@physx@@V?$PxReflectionAllocator@UAABBTreeIndices@Gu@physx@@@3@@physx@@QEAAPEAUAABBTreeIndices@Gu@2@XZ 000000018015d020 f i GuIncrementalAABBTree.obj
 0001:0015c130       ?allocate@?$PxPoolBase@UIncrementalAABBTreeNodePair@Gu@physx@@V?$PxReflectionAllocator@UIncrementalAABBTreeNodePair@Gu@physx@@@3@@physx@@QEAAPEAUIncrementalAABBTreeNodePair@Gu@2@XZ 000000018015d130 f i GuIncrementalAABBTree.obj
 0001:0015c260       ?build@IncrementalAABBTree@Gu@physx@@QEAA_NAEBVAABBTreeBuildParams@23@AEAV?$PxArray@PEAVIncrementalAABBTreeNode@Gu@physx@@V?$PxReflectionAllocator@PEAVIncrementalAABBTreeNode@Gu@physx@@@3@@3@@Z 000000018015d260 f   GuIncrementalAABBTree.obj
 0001:0015c440       ?clone@IncrementalAABBTree@Gu@physx@@AEAAXAEAV?$PxArray@PEAVIncrementalAABBTreeNode@Gu@physx@@V?$PxReflectionAllocator@PEAVIncrementalAABBTreeNode@Gu@physx@@@3@@3@PEBIPEAPEAVIncrementalAABBTreeNode@23@@Z 000000018015d440 f   GuIncrementalAABBTree.obj
 0001:0015c960       ?copy@IncrementalAABBTree@Gu@physx@@QEAAXAEBVBVH@23@AEAV?$PxArray@PEAVIncrementalAABBTreeNode@Gu@physx@@V?$PxReflectionAllocator@PEAVIncrementalAABBTreeNode@Gu@physx@@@3@@3@@Z 000000018015d960 f   GuIncrementalAABBTree.obj
 0001:0015ca10       ?copyNode@IncrementalAABBTree@Gu@physx@@AEAAXAEAVIncrementalAABBTreeNode@23@AEBUBVHNode@23@PEBU523@PEAV423@PEBIAEAV?$PxArray@PEAVIncrementalAABBTreeNode@Gu@physx@@V?$PxReflectionAllocator@PEAVIncrementalAABBTreeNode@Gu@physx@@@3@@3@@Z 000000018015da10 f   GuIncrementalAABBTree.obj
 0001:0015cbd0       ?fixupTreeIndices@IncrementalAABBTree@Gu@physx@@QEAAXPEAVIncrementalAABBTreeNode@23@II@Z 000000018015dbd0 f   GuIncrementalAABBTree.obj
 0001:0015cc00       ?getTreeLeafDepth@IncrementalAABBTree@Gu@physx@@QEAAIPEAVIncrementalAABBTreeNode@23@@Z 000000018015dc00 f   GuIncrementalAABBTree.obj
 0001:0015cc20       ?growAndPushBack@?$PxArray@PEAVIncrementalAABBTreeNode@Gu@physx@@V?$PxReflectionAllocator@PEAVIncrementalAABBTreeNode@Gu@physx@@@3@@physx@@IEAAAEAPEAVIncrementalAABBTreeNode@Gu@2@AEBQEAV342@@Z 000000018015dc20 f i GuIncrementalAABBTree.obj
 0001:0015cd60       ?growAndPushBack@?$PxArray@PEAXV?$PxReflectionAllocator@UAABBTreeIndices@Gu@physx@@@physx@@@physx@@IEAAAEAPEAXAEBQEAX@Z 000000018015dd60 f i GuIncrementalAABBTree.obj
 0001:0015ce20       ?growAndPushBack@?$PxArray@PEAXV?$PxReflectionAllocator@UIncrementalAABBTreeNodePair@Gu@physx@@@physx@@@physx@@IEAAAEAPEAXAEBQEAX@Z 000000018015de20 f i GuIncrementalAABBTree.obj
 0001:0015cee0       ?hierarchyCheck@IncrementalAABBTree@Gu@physx@@QEAAXIPEBVPxBounds3@3@@Z 000000018015dee0 f   GuIncrementalAABBTree.obj
 0001:0015d040       ?hierarchyCheck@IncrementalAABBTree@Gu@physx@@QEAAXPEBVPxBounds3@3@@Z 000000018015e040 f   GuIncrementalAABBTree.obj
 0001:0015d1a0       ?insert@IncrementalAABBTree@Gu@physx@@QEAAPEAVIncrementalAABBTreeNode@23@IPEBVPxBounds3@3@AEAV?$PxArray@PEAVIncrementalAABBTreeNode@Gu@physx@@V?$PxReflectionAllocator@PEAVIncrementalAABBTreeNode@Gu@physx@@@3@@3@@Z 000000018015e1a0 f   GuIncrementalAABBTree.obj
 0001:0015d890       ?recreate@?$PxArray@PEAXV?$PxReflectionAllocator@UAABBTreeIndices@Gu@physx@@@physx@@@physx@@IEAAXI@Z 000000018015e890 f i GuIncrementalAABBTree.obj
 0001:0015d930       ?recreate@?$PxArray@PEAXV?$PxReflectionAllocator@UIncrementalAABBTreeNodePair@Gu@physx@@@physx@@@physx@@IEAAXI@Z 000000018015e930 f i GuIncrementalAABBTree.obj
 0001:0015d9d0       ?release@IncrementalAABBTree@Gu@physx@@QEAAXXZ 000000018015e9d0 f   GuIncrementalAABBTree.obj
 0001:0015da00       ?releaseNode@IncrementalAABBTree@Gu@physx@@AEAAXPEAVIncrementalAABBTreeNode@23@@Z 000000018015ea00 f   GuIncrementalAABBTree.obj
 0001:0015da90       ?remove@IncrementalAABBTree@Gu@physx@@QEAAPEAVIncrementalAABBTreeNode@23@PEAV423@IPEBVPxBounds3@3@@Z 000000018015ea90 f   GuIncrementalAABBTree.obj
 0001:0015dd90       ?rotateTree@IncrementalAABBTree@Gu@physx@@AEAAXPEAVIncrementalAABBTreeNode@23@AEAV?$PxArray@PEAVIncrementalAABBTreeNode@Gu@physx@@V?$PxReflectionAllocator@PEAVIncrementalAABBTreeNode@Gu@physx@@@3@@3@IPEBVPxBounds3@3@_N@Z 000000018015ed90 f   GuIncrementalAABBTree.obj
 0001:0015e640       ?shiftOrigin@IncrementalAABBTree@Gu@physx@@QEAAXAEBV?$PxVec3T@M@3@@Z 000000018015f640 f   GuIncrementalAABBTree.obj
 0001:0015e6a0       ?splitLeafNode@IncrementalAABBTree@Gu@physx@@AEAAPEAVIncrementalAABBTreeNode@23@PEAV423@IAEBT__m128@@1PEBVPxBounds3@3@@Z 000000018015f6a0 f   GuIncrementalAABBTree.obj
 0001:0015e9a0       ?update@IncrementalAABBTree@Gu@physx@@QEAAPEAVIncrementalAABBTreeNode@23@PEAV423@IPEBVPxBounds3@3@AEAV?$PxArray@PEAVIncrementalAABBTreeNode@Gu@physx@@V?$PxReflectionAllocator@PEAVIncrementalAABBTreeNode@Gu@physx@@@3@@3@@Z 000000018015f9a0 f   GuIncrementalAABBTree.obj
 0001:0015ea60       ?updateFast@IncrementalAABBTree@Gu@physx@@QEAAPEAVIncrementalAABBTreeNode@23@PEAV423@IPEBVPxBounds3@3@AEAV?$PxArray@PEAVIncrementalAABBTreeNode@Gu@physx@@V?$PxReflectionAllocator@PEAVIncrementalAABBTreeNode@Gu@physx@@@3@@3@@Z 000000018015fa60 f   GuIncrementalAABBTree.obj
 0001:0015ec60       ??0SAH_Buffers@Gu@physx@@QEAA@I@Z 000000018015fc60 f   GuSAH.obj
 0001:0015ed70       ??1SAH_Buffers@Gu@physx@@QEAA@XZ 000000018015fd70 f   GuSAH.obj
 0001:0015ee30       ?split@SAH_Buffers@Gu@physx@@QEAA_NAEAIIPEIBIPEIBVPxBounds3@3@PEIBV?$PxVec3T@M@3@@Z 000000018015fe30 f   GuSAH.obj
 0001:0015f530       ??0BVH@Gu@physx@@QEAA@AEBUPxBVHInternalData@2@@Z 0000000180160530 f   GuBVH.obj
 0001:0015f5f0       ??0BVH@Gu@physx@@QEAA@PEAVMeshFactory@12@@Z 00000001801605f0 f   GuBVH.obj
 0001:0015f660       ??0BVH@Gu@physx@@QEAA@PEAVMeshFactory@12@AEAVBVHData@12@@Z 0000000180160660 f   GuBVH.obj
 0001:0015f710       ??1BVHData@Gu@physx@@QEAA@XZ 0000000180160710 f i GuBVH.obj
 0001:00164d60       ??_EBVH@Gu@physx@@WBA@EAAPEAXI@Z 0000000180165d60 f i GuBVH.obj
 0001:00164d70       ??_GBVH@Gu@physx@@UEAAPEAXI@Z 0000000180165d70 f i GuBVH.obj
 0001:00164d70       ??_EBVH@Gu@physx@@UEAAPEAXI@Z 0000000180165d70 f i GuBVH.obj
 0001:00164e00       ??_ERefCountable@Cm@physx@@UEAAPEAXI@Z 0000000180165e00 f i GuBVH.obj
 0001:00164e00       ??_GRefCountable@Cm@physx@@UEAAPEAXI@Z 0000000180165e00 f i GuBVH.obj
 0001:00165030       ?allocate@?$PxArray@PEBUBVHNode@Gu@physx@@V?$PxInlineAllocator@$0IAA@V?$PxReflectionAllocator@PEBUBVHNode@Gu@physx@@@physx@@@3@@physx@@IEAAPEAPEBUBVHNode@Gu@2@I@Z 0000000180166030 f i GuBVH.obj
 0001:00165100       ?build@BVHData@Gu@physx@@QEAA_NIPEBXIMIW4BVHBuildStrategy@23@@Z 0000000180166100 f   GuBVH.obj
 0001:001654f0       ?cull@BVH@Gu@physx@@UEBA_NIPEBVPxPlane@3@AEAUOverlapCallback@PxBVH@3@V?$PxFlags@W4Enum@PxGeometryQueryFlag@physx@@I@3@@Z 00000001801664f0 f   GuBVH.obj
 0001:00165e20       ?getConcreteTypeName@PxBVH@physx@@UEBAPEBDXZ 0000000180166e20 f i GuBVH.obj
 0001:00165e30       ?init@BVH@Gu@physx@@QEAA_NIPEAVAABBTreeBounds@23@PEBXIW4BVHBuildStrategy@23@IM@Z 0000000180166e30 f   GuBVH.obj
 0001:00166230       ?isKindOf@PxBVH@physx@@MEBA_NPEBD@Z 0000000180167230 f i GuBVH.obj
 0001:00166280       ?load@BVH@Gu@physx@@QEAA_NAEAVPxInputStream@3@@Z 0000000180167280 f   GuBVH.obj
 0001:00166410       ?onRefCountZero@BVH@Gu@physx@@UEAAXXZ 0000000180167410 f   GuBVH.obj
 0001:001664f0       ?onRefCountZero@RefCountable@Cm@physx@@UEAAXXZ 00000001801674f0 f i GuBVH.obj
 0001:00166510       ?overlap@BVH@Gu@physx@@QEBA_NAEBVShapeData@23@AEAUOverlapCallback@PxBVH@3@V?$PxFlags@W4Enum@PxGeometryQueryFlag@physx@@I@3@@Z 0000000180167510 f   GuBVH.obj
 0001:00166d50       ?overlap@BVH@Gu@physx@@UEBAIAEBVPxBounds3@3@IPEIAI@Z 0000000180167d50 f   GuBVH.obj
 0001:00166e70       ?overlap@BVH@Gu@physx@@UEBA_NAEBVPxGeometry@3@AEBV?$PxTransformT@M@3@AEAUOverlapCallback@PxBVH@3@V?$PxFlags@W4Enum@PxGeometryQueryFlag@physx@@I@3@@Z 0000000180167e70 f   GuBVH.obj
 0001:00166ed0       ?partialRefit@BVH@Gu@physx@@UEAAXXZ 0000000180167ed0 f   GuBVH.obj
 0001:00166ee0       ?raycast@BVH@Gu@physx@@UEBAIAEBV?$PxVec3T@M@3@0MIPEIAI@Z 0000000180167ee0 f   GuBVH.obj
 0001:00166f80       ?raycast@BVH@Gu@physx@@UEBA_NAEBV?$PxVec3T@M@3@0MAEAURaycastCallback@PxBVH@3@V?$PxFlags@W4Enum@PxGeometryQueryFlag@physx@@I@3@@Z 0000000180167f80 f   GuBVH.obj
 0001:001670b0       ?recreate@?$PxArray@PEBUBVHNode@Gu@physx@@V?$PxInlineAllocator@$0IAA@V?$PxReflectionAllocator@PEBUBVHNode@Gu@physx@@@physx@@@3@@physx@@IEAAXI@Z 00000001801680b0 f i GuBVH.obj
 0001:00167160       ?refit@BVH@Gu@physx@@UEAAXXZ 0000000180168160 f   GuBVH.obj
 0001:00167170       ?release@BVH@Gu@physx@@UEAAXXZ 0000000180168170 f   GuBVH.obj
 0001:001671a0       ?resizeUninitialized@?$PxArray@PEBUBVHNode@Gu@physx@@V?$PxInlineAllocator@$0IAA@V?$PxReflectionAllocator@PEBUBVHNode@Gu@physx@@@physx@@@3@@physx@@QEAAXI@Z 00000001801681a0 f i GuBVH.obj
 0001:001671f0       ?save@BVHData@Gu@physx@@QEBA_NAEAVPxOutputStream@3@_N@Z 00000001801681f0 f   GuBVH.obj
 0001:00167360       ?sweep@BVH@Gu@physx@@QEBA_NAEBVShapeData@23@AEBV?$PxVec3T@M@3@MAEAURaycastCallback@PxBVH@3@V?$PxFlags@W4Enum@PxGeometryQueryFlag@physx@@I@3@@Z 0000000180168360 f   GuBVH.obj
 0001:00167520       ?sweep@BVH@Gu@physx@@UEBAIAEBVPxBounds3@3@AEBV?$PxVec3T@M@3@MIPEIAI@Z 0000000180168520 f   GuBVH.obj
 0001:00167690       ?sweep@BVH@Gu@physx@@UEBA_NAEBVPxGeometry@3@AEBV?$PxTransformT@M@3@AEBV?$PxVec3T@M@3@MAEAURaycastCallback@PxBVH@3@V?$PxFlags@W4Enum@PxGeometryQueryFlag@physx@@I@3@@Z 0000000180168690 f   GuBVH.obj
 0001:00167710       ?traverse@BVH@Gu@physx@@UEBA_NAEAUTraversalCallback@PxBVH@3@@Z 0000000180168710 f   GuBVH.obj
 0001:001678a0       ?updateBounds@BVH@Gu@physx@@UEAA_NIAEBVPxBounds3@3@@Z 00000001801688a0 f   GuBVH.obj
 0001:00167950       ?updateBoundsInternal@BVH@Gu@physx@@QEAA_NIAEBVPxBounds3@3@@Z 0000000180168950 f   GuBVH.obj
 0001:00167a00       PxFindOverlap              0000000180168a00 f   GuBVH.obj
 0001:00167af0       PxGetBVHInternalData       0000000180168af0 f   GuBVH.obj
 0001:00167b30       ??0IncrementalAABBPrunerCore@Gu@physx@@QEAA@PEBVPruningPool@12@@Z 0000000180168b30 f   GuIncrementalAABBPrunerCore.obj
 0001:00167c40       ??1IncrementalAABBPrunerCore@Gu@physx@@QEAA@XZ 0000000180168c40 f   GuIncrementalAABBPrunerCore.obj
 0001:00167db0       ??R?$AABBTreeOverlap@$00U?$OBBAABBTests@$00@Gu@physx@@VIncrementalAABBTree@23@VIncrementalAABBTreeNode@23@UOverlapCallbackAdapter@23@@Gu@physx@@QEAA_NAEBVAABBTreeBounds@12@AEBVIncrementalAABBTree@12@AEBU?$OBBAABBTests@$00@12@AEAUOverlapCallbackAdapter@12@@Z 0000000180168db0 f i GuIncrementalAABBPrunerCore.obj
 0001:00168360       ??R?$AABBTreeOverlap@$00UAABBAABBTest@Gu@physx@@VIncrementalAABBTree@23@VIncrementalAABBTreeNode@23@UOverlapCallbackAdapter@23@@Gu@physx@@QEAA_NAEBVAABBTreeBounds@12@AEBVIncrementalAABBTree@12@AEBUAABBAABBTest@12@AEAUOverlapCallbackAdapter@12@@Z 0000000180169360 f i GuIncrementalAABBPrunerCore.obj
 0001:001685e0       ??R?$AABBTreeOverlap@$00UCapsuleAABBTest@Gu@physx@@VIncrementalAABBTree@23@VIncrementalAABBTreeNode@23@UOverlapCallbackAdapter@23@@Gu@physx@@QEAA_NAEBVAABBTreeBounds@12@AEBVIncrementalAABBTree@12@AEBUCapsuleAABBTest@12@AEAUOverlapCallbackAdapter@12@@Z 00000001801695e0 f i GuIncrementalAABBPrunerCore.obj
 0001:00168940       ??R?$AABBTreeRaycast@$00$00VIncrementalAABBTree@Gu@physx@@VIncrementalAABBTreeNode@23@URaycastCallbackAdapter@23@@Gu@physx@@QEAA_NAEBVAABBTreeBounds@12@AEBVIncrementalAABBTree@12@AEBV?$PxVec3T@M@2@2AEAM2AEAURaycastCallbackAdapter@12@@Z 0000000180169940 f i GuIncrementalAABBPrunerCore.obj
 0001:00168fe0       ??R?$AABBTreeRaycast@$0A@$00VIncrementalAABBTree@Gu@physx@@VIncrementalAABBTreeNode@23@URaycastCallbackAdapter@23@@Gu@physx@@QEAA_NAEBVAABBTreeBounds@12@AEBVIncrementalAABBTree@12@AEBV?$PxVec3T@M@2@2AEAM2AEAURaycastCallbackAdapter@12@@Z 0000000180169fe0 f i GuIncrementalAABBPrunerCore.obj
 0001:00169630       ?addObject@IncrementalAABBPrunerCore@Gu@physx@@QEAA_NII@Z 000000018016a630 f   GuIncrementalAABBPrunerCore.obj
 0001:00169740       ?allocate@?$PxArray@PEBVIncrementalAABBTreeNode@Gu@physx@@V?$PxInlineAllocator@$0IAA@V?$PxReflectionAllocator@PEBVIncrementalAABBTreeNode@Gu@physx@@@physx@@@3@@physx@@IEAAPEAPEBVIncrementalAABBTreeNode@Gu@2@I@Z 000000018016a740 f i GuIncrementalAABBPrunerCore.obj
 0001:00169810       ?clear@?$PxHashMapBase@UPrunerPayload@Gu@physx@@UExtendedBucketPrunerData@23@UExtendedBucketPrunerHash@23@VPxAllocator@3@@physx@@QEAAXXZ 000000018016a810 f i GuExtendedBucketPruner.obj
 0001:00169810       ?clear@?$PxHashMapBase@IPEAVIncrementalAABBTreeNode@Gu@physx@@U?$PxHash@I@3@VPxAllocator@3@@physx@@QEAAXXZ 000000018016a810 f i GuIncrementalAABBPrunerCore.obj
 0001:001698a0       ?create@?$PxHashBase@V?$PxPair@$$CBIPEAVIncrementalAABBTreeNode@Gu@physx@@@physx@@IU?$PxHash@I@2@UGetKey@?$PxHashMapBase@IPEAVIncrementalAABBTreeNode@Gu@physx@@U?$PxHash@I@3@VPxAllocator@3@@2@VPxAllocator@2@$00@physx@@QEAAPEAV?$PxPair@$$CBIPEAVIncrementalAABBTreeNode@Gu@physx@@@2@AEBIAEA_N@Z 000000018016a8a0 f i GuIncrementalAABBPrunerCore.obj
 0001:001699f0       ?erase@?$PxHashBase@V?$PxPair@$$CBIPEAVIncrementalAABBTreeNode@Gu@physx@@@physx@@IU?$PxHash@I@2@UGetKey@?$PxHashMapBase@IPEAVIncrementalAABBTreeNode@Gu@physx@@U?$PxHash@I@3@VPxAllocator@3@@2@VPxAllocator@2@$00@physx@@QEAA_NAEBIAEAV?$PxPair@$$CBIPEAVIncrementalAABBTreeNode@Gu@physx@@@2@@Z 000000018016a9f0 f i GuIncrementalAABBPrunerCore.obj
 0001:00169b50       ?getMesh@SimulationTetrahedronMeshData@Gu@physx@@UEAAPEAVPxTetrahedronMeshData@3@XZ 000000018016ab50 f i GuCookingTetrahedronMesh.obj
 0001:00169b50       ?getMesh@CollisionTetrahedronMeshData@Gu@physx@@UEAAPEAVPxTetrahedronMeshData@3@XZ 000000018016ab50 f i GuCookingTetrahedronMesh.obj
 0001:00169b50       ?getCurrentWorldBoxes@PruningPool@Gu@physx@@QEAAPEAVPxBounds3@3@XZ 000000018016ab50 f i GuIncrementalAABBPrunerCore.obj
 0001:00169b50       ?getCurrentWorldBoxes@PruningPool@Gu@physx@@QEBAPEBVPxBounds3@3@XZ 000000018016ab50 f i GuIncrementalAABBPrunerCore.obj
 0001:00169b50       ?getMesh@CollisionTetrahedronMeshData@Gu@physx@@UEBAPEBVPxTetrahedronMeshData@3@XZ 000000018016ab50 f i GuCookingTetrahedronMesh.obj
 0001:00169b60       ?getGlobalBounds@IncrementalAABBPrunerCore@Gu@physx@@QEBAXAEAVPxBounds3@3@@Z 000000018016ab60 f   GuIncrementalAABBPrunerCore.obj
 0001:00169c80       ?getIndex@PruningPool@Gu@physx@@QEBAII@Z 000000018016ac80 f i GuIncrementalAABBPrunerCore.obj
 0001:00169c90       ?getPayloadData@PruningPool@Gu@physx@@QEBAAEBUPrunerPayload@23@IPEAUPrunerPayloadData@23@@Z 000000018016ac90 f i GuIncrementalAABBPrunerCore.obj
 0001:00169ce0       ?overlap@IncrementalAABBPrunerCore@Gu@physx@@QEBA_NAEBVShapeData@23@AEAUPrunerOverlapCallback@23@@Z 000000018016ace0 f   GuIncrementalAABBPrunerCore.obj
 0001:0016a6f0       ?raycast@IncrementalAABBPrunerCore@Gu@physx@@QEBA_NAEBV?$PxVec3T@M@3@0AEAMAEAUPrunerRaycastCallback@23@@Z 000000018016b6f0 f   GuIncrementalAABBPrunerCore.obj
 0001:0016a7d0       ?recreate@?$PxArray@PEAVIncrementalAABBTreeNode@Gu@physx@@V?$PxReflectionAllocator@PEAVIncrementalAABBTreeNode@Gu@physx@@@3@@physx@@IEAAXI@Z 000000018016b7d0 f i GuIncrementalAABBPrunerCore.obj
 0001:0016a900       ?recreate@?$PxArray@PEBVIncrementalAABBTreeNode@Gu@physx@@V?$PxInlineAllocator@$0IAA@V?$PxReflectionAllocator@PEBVIncrementalAABBTreeNode@Gu@physx@@@physx@@@3@@physx@@IEAAXI@Z 000000018016b900 f i GuIncrementalAABBPrunerCore.obj
 0001:0016a9b0       ?release@IncrementalAABBPrunerCore@Gu@physx@@QEAAXXZ 000000018016b9b0 f   GuIncrementalAABBPrunerCore.obj
 0001:0016aab0       ?removeMarkedObjects@IncrementalAABBPrunerCore@Gu@physx@@QEAAII@Z 000000018016bab0 f   GuIncrementalAABBPrunerCore.obj
 0001:0016ab10       ?removeObject@IncrementalAABBPrunerCore@Gu@physx@@QEAA_NIIAEAI@Z 000000018016bb10 f   GuIncrementalAABBPrunerCore.obj
 0001:0016ad10       ?reserveInternal@?$PxHashBase@V?$PxPair@$$CBIPEAVIncrementalAABBTreeNode@Gu@physx@@@physx@@IU?$PxHash@I@2@UGetKey@?$PxHashMapBase@IPEAVIncrementalAABBTreeNode@Gu@physx@@U?$PxHash@I@3@VPxAllocator@3@@2@VPxAllocator@2@$00@physx@@AEAAXI@Z 000000018016bd10 f i GuIncrementalAABBPrunerCore.obj
 0001:0016aed0       ?resizeUninitialized@?$PxArray@PEBVIncrementalAABBTreeNode@Gu@physx@@V?$PxInlineAllocator@$0IAA@V?$PxReflectionAllocator@PEBVIncrementalAABBTreeNode@Gu@physx@@@physx@@@3@@physx@@QEAAXI@Z 000000018016bed0 f i GuIncrementalAABBPrunerCore.obj
 0001:0016af20       ?setTransform@PruningPool@Gu@physx@@QEAA_NIAEBV?$PxTransformT@M@3@@Z 000000018016bf20 f i GuIncrementalAABBPrunerCore.obj
 0001:0016af80       ?shiftOrigin@IncrementalAABBPrunerCore@Gu@physx@@QEAAXAEBV?$PxVec3T@M@3@@Z 000000018016bf80 f   GuIncrementalAABBPrunerCore.obj
 0001:0016afd0       ?swapIndex@IncrementalAABBPrunerCore@Gu@physx@@QEAAXII@Z 000000018016bfd0 f   GuIncrementalAABBPrunerCore.obj
 0001:0016b0a0       ?sweep@IncrementalAABBPrunerCore@Gu@physx@@QEBA_NAEBVShapeData@23@AEBV?$PxVec3T@M@3@AEAMAEAUPrunerRaycastCallback@23@@Z 000000018016c0a0 f   GuIncrementalAABBPrunerCore.obj
 0001:0016b230       ?updateMapping@IncrementalAABBPrunerCore@Gu@physx@@AEAAXAEAV?$PxHashMap@IPEAVIncrementalAABBTreeNode@Gu@physx@@U?$PxHash@I@3@VPxAllocator@3@@3@IPEAVIncrementalAABBTreeNode@23@@Z 000000018016c230 f   GuIncrementalAABBPrunerCore.obj
 0001:0016b360       ?updateObject@IncrementalAABBPrunerCore@Gu@physx@@QEAA_NI@Z 000000018016c360 f   GuIncrementalAABBPrunerCore.obj
 0001:0016b500       ?visualize@IncrementalAABBPrunerCore@Gu@physx@@QEBAXAEAVPxRenderOutput@3@I@Z 000000018016c500 f   GuIncrementalAABBPrunerCore.obj
 0001:0016b560       ??0IncrementalAABBPruner@Gu@physx@@QEAA@I_K@Z 000000018016c560 f   GuIncrementalAABBPruner.obj
 0001:0016b610       ??R?$AABBTreeOverlap@$00USphereAABBTest@Gu@physx@@VIncrementalAABBTree@23@VIncrementalAABBTreeNode@23@UOverlapCallbackAdapter@23@@Gu@physx@@QEAA_NAEBVAABBTreeBounds@12@AEBVIncrementalAABBTree@12@AEBUSphereAABBTest@12@AEAUOverlapCallbackAdapter@12@@Z 000000018016c610 f i GuIncrementalAABBPruner.obj
 0001:0016b900       ??_EBasePruner@Gu@physx@@UEAAPEAXI@Z 000000018016c900 f i GuIncrementalAABBPruner.obj
 0001:0016b900       ??_GBasePruner@Gu@physx@@UEAAPEAXI@Z 000000018016c900 f i GuIncrementalAABBPruner.obj
 0001:0016b950       ??_GIncrementalAABBPruner@Gu@physx@@UEAAPEAXI@Z 000000018016c950 f i GuIncrementalAABBPruner.obj
 0001:0016b950       ??_EIncrementalAABBPruner@Gu@physx@@UEAAPEAXI@Z 000000018016c950 f i GuIncrementalAABBPruner.obj
 0001:0016ba60       ?addObjects@IncrementalAABBPruner@Gu@physx@@UEAA_NPEAIPEBVPxBounds3@3@PEBUPrunerPayload@23@PEBV?$PxTransformT@M@3@I_N@Z 000000018016ca60 f   GuIncrementalAABBPruner.obj
 0001:0016bbe0       ?commit@IncrementalAABBPruner@Gu@physx@@UEAAXXZ 000000018016cbe0 f   GuIncrementalAABBPruner.obj
 0001:0016bdb0       ?getGlobalBounds@IncrementalAABBPruner@Gu@physx@@UEBAXAEAVPxBounds3@3@@Z 000000018016cdb0 f   GuIncrementalAABBPruner.obj
 0001:0016be20       ?getPayloadData@IncrementalAABBPruner@Gu@physx@@UEBAAEBUPrunerPayload@23@IPEAUPrunerPayloadData@23@@Z 000000018016ce20 f i GuIncrementalAABBPruner.obj
 0001:0016be70       ?overlap@IncrementalAABBPruner@Gu@physx@@UEBA_NAEBVShapeData@23@AEAUPrunerOverlapCallback@23@@Z 000000018016ce70 f   GuIncrementalAABBPruner.obj
 0001:0016c410       ?preallocate@IncrementalAABBPruner@Gu@physx@@UEAAXI@Z 000000018016d410 f i GuIncrementalAABBPruner.obj
 0001:0016c420       ?purge@IncrementalAABBPruner@Gu@physx@@UEAAXXZ 000000018016d420 f   GuIncrementalAABBPruner.obj
 0001:0016c470       ?raycast@IncrementalAABBPruner@Gu@physx@@UEBA_NAEBV?$PxVec3T@M@3@0AEAMAEAUPrunerRaycastCallback@23@@Z 000000018016d470 f   GuIncrementalAABBPruner.obj
 0001:0016c4f0       ?removeObjects@IncrementalAABBPruner@Gu@physx@@UEAAXPEBIIPEAUPrunerPayloadRemovalCallback@23@@Z 000000018016d4f0 f   GuIncrementalAABBPruner.obj
 0001:0016c700       ?resize@?$PxArray@PEAVIncrementalAABBTreeNode@Gu@physx@@V?$PxReflectionAllocator@PEAVIncrementalAABBTreeNode@Gu@physx@@@3@@physx@@QEAAXIAEBQEAVIncrementalAABBTreeNode@Gu@2@@Z 000000018016d700 f i GuIncrementalAABBPruner.obj
 0001:0016c7c0       ?resizeUninitialized@?$PxArray@PEAVIncrementalAABBTreeNode@Gu@physx@@V?$PxReflectionAllocator@PEAVIncrementalAABBTreeNode@Gu@physx@@@3@@physx@@QEAAXI@Z 000000018016d7c0 f i GuIncrementalAABBPruner.obj
 0001:0016c800       ?setTransform@IncrementalAABBPruner@Gu@physx@@UEAA_NIAEBV?$PxTransformT@M@3@@Z 000000018016d800 f i GuIncrementalAABBPruner.obj
 0001:0016c860       ?shiftOrigin@IncrementalAABBPruner@Gu@physx@@UEAAXAEBV?$PxVec3T@M@3@@Z 000000018016d860 f   GuIncrementalAABBPruner.obj
 0001:0016c8a0       ?sweep@IncrementalAABBPruner@Gu@physx@@UEBA_NAEBVShapeData@23@AEBV?$PxVec3T@M@3@AEAMAEAUPrunerRaycastCallback@23@@Z 000000018016d8a0 f   GuIncrementalAABBPruner.obj
 0001:0016c9c0       ?updateMapping@IncrementalAABBPruner@Gu@physx@@AEAAXIPEAVIncrementalAABBTreeNode@23@@Z 000000018016d9c0 f   GuIncrementalAABBPruner.obj
 0001:0016cab0       ?updateObjects@IncrementalAABBPruner@Gu@physx@@UEAAXPEBIIM0PEBVPxBounds3@3@PEBUPxTransformPadded@3@@Z 000000018016dab0 f   GuIncrementalAABBPruner.obj
 0001:0016cc70       ?visualize@IncrementalAABBPruner@Gu@physx@@UEBAXAEAVPxRenderOutput@3@II@Z 000000018016dc70 f   GuIncrementalAABBPruner.obj
 0001:0016ce60       ??0PruningPool@Gu@physx@@QEAA@_KW4TransformCacheMode@12@@Z 000000018016de60 f   GuPruningPool.obj
 0001:0016ce90       ??1PruningPool@Gu@physx@@QEAA@XZ 000000018016de90 f   GuPruningPool.obj
 0001:0016cf50       ?addObjects@PruningPool@Gu@physx@@QEAAIPEAIPEBVPxBounds3@3@PEBUPrunerPayload@23@PEBV?$PxTransformT@M@3@I@Z 000000018016df50 f   GuPruningPool.obj
 0001:0016d1d0       ?preallocate@PruningPool@Gu@physx@@QEAAXI@Z 000000018016e1d0 f   GuPruningPool.obj
 0001:0016d1e0       ?removeObject@PruningPool@Gu@physx@@QEAAIIPEAUPrunerPayloadRemovalCallback@23@@Z 000000018016e1e0 f   GuPruningPool.obj
 0001:0016d3b0       ?resize@PruningPool@Gu@physx@@QEAA_NI@Z 000000018016e3b0 f   GuPruningPool.obj
 0001:0016d710       ?shiftOrigin@PruningPool@Gu@physx@@QEAAXAEBV?$PxVec3T@M@3@@Z 000000018016e710 f   GuPruningPool.obj
 0001:0016db60       ?updateAndInflateBounds@PruningPool@Gu@physx@@QEAAXPEBI0PEBVPxBounds3@3@PEBUPxTransformPadded@3@IM@Z 000000018016eb60 f   GuPruningPool.obj
 0001:0016f650       ??0BucketPruner@Gu@physx@@QEAA@_K@Z 0000000180170650 f   GuBucketPruner.obj
 0001:0016f6a0       ??0BucketPrunerCore@Gu@physx@@QEAA@_N@Z 00000001801706a0 f   GuBucketPruner.obj
 0001:0016fa20       ??1BucketPrunerCore@Gu@physx@@QEAA@XZ 0000000180170a20 f   GuBucketPruner.obj
 0001:0016fb60       ??R?$BucketPrunerOverlapTraversal@UBucketPrunerAABBAABBTest@@$00@@QEBA_NAEBVBucketPrunerCore@Gu@physx@@AEBUBucketPrunerAABBAABBTest@@AEAUPrunerOverlapCallback@23@AEBVPxBounds3@3@@Z 0000000180170b60 f i GuBucketPruner.obj
 0001:00170140       ??R?$BucketPrunerOverlapTraversal@UOBBAABBTest_SIMD@@$0A@@@QEBA_NAEBVBucketPrunerCore@Gu@physx@@AEBUOBBAABBTest_SIMD@@AEAUPrunerOverlapCallback@23@AEBVPxBounds3@3@@Z 0000000180171140 f i GuBucketPruner.obj
 0001:001709a0       ??R?$BucketPrunerOverlapTraversal@USphereAABBTest_SIMD@@$00@@QEBA_NAEBVBucketPrunerCore@Gu@physx@@AEBUSphereAABBTest_SIMD@@AEAUPrunerOverlapCallback@23@AEBVPxBounds3@3@@Z 00000001801719a0 f i GuBucketPruner.obj
 0001:00170f80       ??_FBucketPrunerCore@Gu@physx@@QEAAXXZ 0000000180171f80 f i GuBucketPruner.obj
 0001:00170f90       ??_EBucketPruner@Gu@physx@@UEAAPEAXI@Z 0000000180171f90 f i GuBucketPruner.obj
 0001:00170f90       ??_GBucketPruner@Gu@physx@@UEAAPEAXI@Z 0000000180171f90 f i GuBucketPruner.obj
 0001:00171010       ?addObject@BucketPrunerCore@Gu@physx@@QEAA_NAEBUPrunerPayload@23@AEBVPxBounds3@3@AEBV?$PxTransformT@M@3@I@Z 0000000180172010 f   GuBucketPruner.obj
 0001:00171330       ?addObjects@BucketPruner@Gu@physx@@UEAA_NPEAIPEBVPxBounds3@3@PEBUPrunerPayload@23@PEBV?$PxTransformT@M@3@I_N@Z 0000000180172330 f   GuBucketPruner.obj
 0001:001713c0       ?addPair@BucketPrunerMap@Gu@physx@@QEAAPEAUBucketPrunerPair@23@AEBUPrunerPayload@23@II@Z 00000001801723c0 f   GuBucketPruner.obj
 0001:001715b0       ?allocateSortedMemory@BucketPrunerCore@Gu@physx@@AEAAXI@Z 00000001801725b0 f   GuBucketPruner.obj
 0001:00171760       ?classifyBoxes@BucketPrunerCore@Gu@physx@@AEAAXXZ 0000000180172760 f   GuBucketPruner.obj
 0001:00171f40       ?classifyBoxes@BucketPrunerNode@Gu@physx@@QEAAXMMIPEIAUBucketBox@23@PEIBUPrunerPayload@23@PEIBV?$PxTransformT@M@3@0PEIAU523@PEIAV63@_NI@Z 0000000180172f40 f   GuBucketPruner.obj
 0001:00172830       ?build@CompanionPrunerBucket@@UEAAXXZ 0000000180173830 f   GuSecondaryPruner.obj
 0001:00172830       ?commit@BucketPruner@Gu@physx@@UEAAXXZ 0000000180173830 f   GuBucketPruner.obj
 0001:00172840       ?findPair@BucketPrunerMap@Gu@physx@@QEBAPEBUBucketPrunerPair@23@AEBUPrunerPayload@23@@Z 0000000180173840 f   GuBucketPruner.obj
 0001:00172c40       ?getGlobalBounds@BucketPruner@Gu@physx@@UEBAXAEAVPxBounds3@3@@Z 0000000180173c40 f   GuBucketPruner.obj
 0001:00172cc0       ?getGlobalBounds@BucketPrunerCore@Gu@physx@@QEBAXAEAVPxBounds3@3@@Z 0000000180173cc0 f   GuBucketPruner.obj
 0001:00172d40       ?getPayloadData@BucketPruner@Gu@physx@@UEBAAEBUPrunerPayload@23@IPEAUPrunerPayloadData@23@@Z 0000000180173d40 f i GuBucketPruner.obj
 0001:00172da0       ?overlap@BucketPruner@Gu@physx@@UEBA_NAEBVShapeData@23@AEAUPrunerOverlapCallback@23@@Z 0000000180173da0 f   GuBucketPruner.obj
 0001:00172dc0       ?overlap@BucketPrunerCore@Gu@physx@@QEBA_NAEBVShapeData@23@AEAUPrunerOverlapCallback@23@@Z 0000000180173dc0 f   GuBucketPruner.obj
 0001:001730a0       ?preallocate@BucketPruner@Gu@physx@@UEAAXI@Z 00000001801740a0 f i GuBucketPruner.obj
 0001:00173280       ?purge@BucketPrunerMap@Gu@physx@@QEAAXXZ 0000000180174280 f   GuBucketPruner.obj
 0001:00173310       ?raycast@BucketPruner@Gu@physx@@UEBA_NAEBV?$PxVec3T@M@3@0AEAMAEAUPrunerRaycastCallback@23@@Z 0000000180174310 f   GuBucketPruner.obj
 0001:00173360       ?raycast@BucketPrunerCore@Gu@physx@@QEBA_NAEBV?$PxVec3T@M@3@0AEAMAEAUPrunerRaycastCallback@23@@Z 0000000180174360 f   GuBucketPruner.obj
 0001:001733a0       ?reallocPairs@BucketPrunerMap@Gu@physx@@QEAAXXZ 00000001801743a0 f   GuBucketPruner.obj
 0001:001735d0       ?release@BucketPrunerCore@Gu@physx@@QEAAXXZ 00000001801745d0 f   GuBucketPruner.obj
 0001:00173700       ?removeMarkedObjects@BucketPrunerCore@Gu@physx@@QEAAII@Z 0000000180174700 f   GuBucketPruner.obj
 0001:00173ab0       ?removeObject@BucketPrunerCore@Gu@physx@@QEAA_NAEBUPrunerPayload@23@AEAI@Z 0000000180174ab0 f   GuBucketPruner.obj
 0001:00173d70       ?removeObjects@BucketPruner@Gu@physx@@UEAAXPEBIIPEAUPrunerPayloadRemovalCallback@23@@Z 0000000180174d70 f   GuBucketPruner.obj
 0001:00173e20       ?removePair@BucketPrunerMap@Gu@physx@@QEAA_NAEBUPrunerPayload@23@AEAI1@Z 0000000180174e20 f   GuBucketPruner.obj
 0001:00173fa0       ?removePairInternal@BucketPrunerMap@Gu@physx@@QEAAXAEBUPrunerPayload@23@II@Z 0000000180174fa0 f   GuBucketPruner.obj
 0001:00174110       ?resizeCore@BucketPrunerCore@Gu@physx@@AEAAXXZ 0000000180175110 f   GuBucketPruner.obj
 0001:00174350       ?setTransform@BucketPruner@Gu@physx@@UEAA_NIAEBV?$PxTransformT@M@3@@Z 0000000180175350 f i GuBucketPruner.obj
 0001:001743b0       ?shiftOrigin@CompanionPrunerBucket@@UEAAXAEBV?$PxVec3T@M@physx@@@Z 00000001801753b0 f   GuSecondaryPruner.obj
 0001:001743b0       ?shiftOrigin@BucketPruner@Gu@physx@@UEAAXAEBV?$PxVec3T@M@3@@Z 00000001801753b0 f   GuBucketPruner.obj
 0001:001743c0       ?shiftOrigin@BucketPrunerCore@Gu@physx@@QEAAXAEBV?$PxVec3T@M@3@@Z 00000001801753c0 f   GuBucketPruner.obj
 0001:00175300       ?sweep@BucketPruner@Gu@physx@@UEBA_NAEBVShapeData@23@AEBV?$PxVec3T@M@3@AEAMAEAUPrunerRaycastCallback@23@@Z 0000000180176300 f   GuBucketPruner.obj
 0001:00175320       ?sweep@BucketPrunerCore@Gu@physx@@QEBA_NAEBVShapeData@23@AEBV?$PxVec3T@M@3@AEAMAEAUPrunerRaycastCallback@23@@Z 0000000180176320 f   GuBucketPruner.obj
 0001:001753f0       ?updateObject@BucketPrunerCore@Gu@physx@@QEAA_NAEBVPxBounds3@3@AEBUPrunerPayload@23@AEBV?$PxTransformT@M@3@@Z 00000001801763f0 f   GuBucketPruner.obj
 0001:00175450       ?updateObjects@BucketPruner@Gu@physx@@UEAAXPEBIIM0PEBVPxBounds3@3@PEBUPxTransformPadded@3@@Z 0000000180176450 f   GuBucketPruner.obj
 0001:00175560       ?visualize@BucketPruner@Gu@physx@@UEBAXAEAVPxRenderOutput@3@II@Z 0000000180176560 f   GuBucketPruner.obj
 0001:00175560       ?visualize@CompanionPrunerBucket@@UEBAXAEAVPxRenderOutput@physx@@I@Z 0000000180176560 f   GuSecondaryPruner.obj
 0001:00175570       ?visualize@BucketPrunerCore@Gu@physx@@QEBAXAEAVPxRenderOutput@3@I@Z 0000000180176570 f   GuBucketPruner.obj
 0001:00175860       ?addObject@MaverickNode@Gu@physx@@QEAA_NAEBUPrunerPayload@23@IAEBVPxBounds3@3@AEBV?$PxTransformT@M@3@I@Z 0000000180176860 f   GuMaverickNode.obj
 0001:00175940       ?removeMarkedObjects@MaverickNode@Gu@physx@@QEAAII@Z 0000000180176940 f   GuMaverickNode.obj
 0001:00175ac0       ?removeObject@MaverickNode@Gu@physx@@QEAA_NIAEAI@Z 0000000180176ac0 f   GuMaverickNode.obj
 0001:00175c30       ?shiftOrigin@MaverickNode@Gu@physx@@QEAAXAEBV?$PxVec3T@M@3@@Z 0000000180176c30 f   GuMaverickNode.obj
 0001:00175d20       ?updateObject@MaverickNode@Gu@physx@@QEAA_NIAEBVPxBounds3@3@AEBV?$PxTransformT@M@3@@Z 0000000180176d20 f   GuMaverickNode.obj
 0001:00175e00       ??0ExtendedBucketPruner@Gu@physx@@QEAA@_KW4CompanionPrunerType@12@PEBVPruningPool@12@@Z 0000000180176e00 f   GuExtendedBucketPruner.obj
 0001:00176050       ??1ExtendedBucketPruner@Gu@physx@@QEAA@XZ 0000000180177050 f   GuExtendedBucketPruner.obj
 0001:001761b0       ??R?$AABBTreeOverlap@$00U?$OBBAABBTests@$00@Gu@physx@@VAABBTree@23@UBVHNode@23@U?$MainTreeOverlapPrunerCallback@U?$OBBAABBTests@$00@Gu@physx@@@@@Gu@physx@@QEAA_NAEBVAABBTreeBounds@12@AEBVAABBTree@12@AEBU?$OBBAABBTests@$00@12@AEAU?$MainTreeOverlapPrunerCallback@U?$OBBAABBTests@$00@Gu@physx@@@@@Z 00000001801771b0 f i GuExtendedBucketPruner.obj
 0001:001767b0       ??R?$AABBTreeOverlap@$00U?$OBBAABBTests@$00@Gu@physx@@VAABBTree@23@UBVHNode@23@UOverlapCallbackAdapter@23@@Gu@physx@@QEAA_NAEBVAABBTreeBounds@12@AEBVAABBTree@12@AEBU?$OBBAABBTests@$00@12@AEAUOverlapCallbackAdapter@12@@Z 00000001801777b0 f i GuExtendedBucketPruner.obj
 0001:00176d90       ??R?$AABBTreeOverlap@$00UAABBAABBTest@Gu@physx@@VAABBTree@23@UBVHNode@23@U?$MainTreeOverlapPrunerCallback@UAABBAABBTest@Gu@physx@@@@@Gu@physx@@QEAA_NAEBVAABBTreeBounds@12@AEBVAABBTree@12@AEBUAABBAABBTest@12@AEAU?$MainTreeOverlapPrunerCallback@UAABBAABBTest@Gu@physx@@@@@Z 0000000180177d90 f i GuExtendedBucketPruner.obj
 0001:00177050       ??R?$AABBTreeOverlap@$00UAABBAABBTest@Gu@physx@@VAABBTree@23@UBVHNode@23@UOverlapCallbackAdapter@23@@Gu@physx@@QEAA_NAEBVAABBTreeBounds@12@AEBVAABBTree@12@AEBUAABBAABBTest@12@AEAUOverlapCallbackAdapter@12@@Z 0000000180178050 f i GuExtendedBucketPruner.obj
 0001:001772f0       ??R?$AABBTreeOverlap@$00UCapsuleAABBTest@Gu@physx@@VAABBTree@23@UBVHNode@23@U?$MainTreeOverlapPrunerCallback@UCapsuleAABBTest@Gu@physx@@@@@Gu@physx@@QEAA_NAEBVAABBTreeBounds@12@AEBVAABBTree@12@AEBUCapsuleAABBTest@12@AEAU?$MainTreeOverlapPrunerCallback@UCapsuleAABBTest@Gu@physx@@@@@Z 00000001801782f0 f i GuExtendedBucketPruner.obj
 0001:001776b0       ??R?$AABBTreeOverlap@$00UCapsuleAABBTest@Gu@physx@@VAABBTree@23@UBVHNode@23@UOverlapCallbackAdapter@23@@Gu@physx@@QEAA_NAEBVAABBTreeBounds@12@AEBVAABBTree@12@AEBUCapsuleAABBTest@12@AEAUOverlapCallbackAdapter@12@@Z 00000001801786b0 f i GuExtendedBucketPruner.obj
 0001:00177a50       ??R?$AABBTreeOverlap@$00USphereAABBTest@Gu@physx@@VAABBTree@23@UBVHNode@23@U?$MainTreeOverlapPrunerCallback@USphereAABBTest@Gu@physx@@@@@Gu@physx@@QEAA_NAEBVAABBTreeBounds@12@AEBVAABBTree@12@AEBUSphereAABBTest@12@AEAU?$MainTreeOverlapPrunerCallback@USphereAABBTest@Gu@physx@@@@@Z 0000000180178a50 f i GuExtendedBucketPruner.obj
 0001:00177d70       ??R?$AABBTreeOverlap@$00USphereAABBTest@Gu@physx@@VAABBTree@23@UBVHNode@23@UOverlapCallbackAdapter@23@@Gu@physx@@QEAA_NAEBVAABBTreeBounds@12@AEBVAABBTree@12@AEBUSphereAABBTest@12@AEAUOverlapCallbackAdapter@12@@Z 0000000180178d70 f i GuExtendedBucketPruner.obj
 0001:00178070       ??R?$AABBTreeRaycast@$00$00VAABBTree@Gu@physx@@UBVHNode@23@U?$MainTreeRaycastPrunerCallback@$00@@@Gu@physx@@QEAA_NAEBVAABBTreeBounds@12@AEBVAABBTree@12@AEBV?$PxVec3T@M@2@2AEAM2AEAU?$MainTreeRaycastPrunerCallback@$00@@@Z 0000000180179070 f i GuExtendedBucketPruner.obj
 0001:00178770       ??R?$AABBTreeRaycast@$00$00VAABBTree@Gu@physx@@UBVHNode@23@URaycastCallbackAdapter@23@@Gu@physx@@QEAA_NAEBVAABBTreeBounds@12@AEBVAABBTree@12@AEBV?$PxVec3T@M@2@2AEAM2AEAURaycastCallbackAdapter@12@@Z 0000000180179770 f i GuExtendedBucketPruner.obj
 0001:00178e30       ??R?$AABBTreeRaycast@$0A@$00VAABBTree@Gu@physx@@UBVHNode@23@U?$MainTreeRaycastPrunerCallback@$0A@@@@Gu@physx@@QEAA_NAEBVAABBTreeBounds@12@AEBVAABBTree@12@AEBV?$PxVec3T@M@2@2AEAM2AEAU?$MainTreeRaycastPrunerCallback@$0A@@@@Z 0000000180179e30 f i GuExtendedBucketPruner.obj
 0001:001794e0       ??R?$AABBTreeRaycast@$0A@$00VAABBTree@Gu@physx@@UBVHNode@23@URaycastCallbackAdapter@23@@Gu@physx@@QEAA_NAEBVAABBTreeBounds@12@AEBVAABBTree@12@AEBV?$PxVec3T@M@2@2AEAM2AEAURaycastCallbackAdapter@12@@Z 000000018017a4e0 f i GuExtendedBucketPruner.obj
 0001:00179b50       ?addTree@ExtendedBucketPruner@Gu@physx@@QEAAXAEBVAABBTreeMergeData@23@I@Z 000000018017ab50 f   GuExtendedBucketPruner.obj
 0001:00179e10       ?buildMainAABBTree@ExtendedBucketPruner@Gu@physx@@AEAAXXZ 000000018017ae10 f   GuExtendedBucketPruner.obj
 0001:00179eb0       ?create@?$PxHashBase@V?$PxPair@$$CBUPrunerPayload@Gu@physx@@UExtendedBucketPrunerData@23@@physx@@UPrunerPayload@Gu@2@UExtendedBucketPrunerHash@42@UGetKey@?$PxHashMapBase@UPrunerPayload@Gu@physx@@UExtendedBucketPrunerData@23@UExtendedBucketPrunerHash@23@VPxAllocator@3@@2@VPxAllocator@2@$00@physx@@QEAAPEAV?$PxPair@$$CBUPrunerPayload@Gu@physx@@UExtendedBucketPrunerData@23@@2@AEBUPrunerPayload@Gu@2@AEA_N@Z 000000018017aeb0 f i GuExtendedBucketPruner.obj
 0001:0017a070       ?eraseCurrentGetNext@PxEraseIterator@?$PxHashBase@V?$PxPair@$$CBUPrunerPayload@Gu@physx@@UExtendedBucketPrunerData@23@@physx@@UPrunerPayload@Gu@2@UExtendedBucketPrunerHash@42@UGetKey@?$PxHashMapBase@UPrunerPayload@Gu@physx@@UExtendedBucketPrunerData@23@UExtendedBucketPrunerHash@23@VPxAllocator@3@@2@VPxAllocator@2@$00@physx@@QEAAPEAV?$PxPair@$$CBUPrunerPayload@Gu@physx@@UExtendedBucketPrunerData@23@@3@_N@Z 000000018017b070 f i GuExtendedBucketPruner.obj
 0001:0017a160       ?eraseInternal@?$PxHashBase@V?$PxPair@$$CBUPrunerPayload@Gu@physx@@UExtendedBucketPrunerData@23@@physx@@UPrunerPayload@Gu@2@UExtendedBucketPrunerHash@42@UGetKey@?$PxHashMapBase@UPrunerPayload@Gu@physx@@UExtendedBucketPrunerData@23@UExtendedBucketPrunerHash@23@VPxAllocator@3@@2@VPxAllocator@2@$00@physx@@AEAA_NPEAI@Z 000000018017b160 f i GuExtendedBucketPruner.obj
 0001:0017a280       ?find@?$PxHashMapBase@UPrunerPayload@Gu@physx@@UExtendedBucketPrunerData@23@UExtendedBucketPrunerHash@23@VPxAllocator@3@@physx@@QEBAPEBV?$PxPair@$$CBUPrunerPayload@Gu@physx@@UExtendedBucketPrunerData@23@@2@AEBUPrunerPayload@Gu@2@@Z 000000018017b280 f i GuExtendedBucketPruner.obj
 0001:0017a370       ?getGlobalBounds@ExtendedBucketPruner@Gu@physx@@QEBAXAEAVPxBounds3@3@@Z 000000018017b370 f   GuExtendedBucketPruner.obj
 0001:0017a440       ?overlap@ExtendedBucketPruner@Gu@physx@@QEBA_NAEBVShapeData@23@AEAUPrunerOverlapCallback@23@@Z 000000018017b440 f   GuExtendedBucketPruner.obj
 0001:0017ac30       ?raycast@ExtendedBucketPruner@Gu@physx@@QEBA_NAEBV?$PxVec3T@M@3@0AEAMAEAUPrunerRaycastCallback@23@@Z 000000018017bc30 f   GuExtendedBucketPruner.obj
 0001:0017ad10       ?refitMarkedNodes@ExtendedBucketPruner@Gu@physx@@QEAAXPEBVPxBounds3@3@@Z 000000018017bd10 f   GuExtendedBucketPruner.obj
 0001:0017b210       ?release@ExtendedBucketPruner@Gu@physx@@QEAAXXZ 000000018017c210 f   GuExtendedBucketPruner.obj
 0001:0017b2e0       ?removeMarkedObjects@ExtendedBucketPruner@Gu@physx@@QEAAII@Z 000000018017c2e0 f   GuExtendedBucketPruner.obj
 0001:0017b600       ?removeObject@ExtendedBucketPruner@Gu@physx@@QEAA_NAEBUPrunerPayload@23@II0I@Z 000000018017c600 f   GuExtendedBucketPruner.obj
 0001:0017b8d0       ?reserveInternal@?$PxHashBase@V?$PxPair@$$CBUPrunerPayload@Gu@physx@@UExtendedBucketPrunerData@23@@physx@@UPrunerPayload@Gu@2@UExtendedBucketPrunerHash@42@UGetKey@?$PxHashMapBase@UPrunerPayload@Gu@physx@@UExtendedBucketPrunerData@23@UExtendedBucketPrunerHash@23@VPxAllocator@3@@2@VPxAllocator@2@$00@physx@@AEAAXI@Z 000000018017c8d0 f i GuExtendedBucketPruner.obj
 0001:0017bad0       ?shiftOrigin@ExtendedBucketPruner@Gu@physx@@QEAAXAEBV?$PxVec3T@M@3@@Z 000000018017cad0 f   GuExtendedBucketPruner.obj
 0001:0017bb50       ?swapIndex@ExtendedBucketPruner@Gu@physx@@QEAAXIAEBUPrunerPayload@23@I_N@Z 000000018017cb50 f   GuExtendedBucketPruner.obj
 0001:0017bc20       ?sweep@ExtendedBucketPruner@Gu@physx@@QEBA_NAEBVShapeData@23@AEBV?$PxVec3T@M@3@AEAMAEAUPrunerRaycastCallback@23@@Z 000000018017cc20 f   GuExtendedBucketPruner.obj
 0001:0017bdb0       ?traverseHashEntries@PxEraseIterator@?$PxHashBase@V?$PxPair@$$CBUPrunerPayload@Gu@physx@@UExtendedBucketPrunerData@23@@physx@@UPrunerPayload@Gu@2@UExtendedBucketPrunerHash@42@UGetKey@?$PxHashMapBase@UPrunerPayload@Gu@physx@@UExtendedBucketPrunerData@23@UExtendedBucketPrunerHash@23@VPxAllocator@3@@2@VPxAllocator@2@$00@physx@@AEAAPEAV?$PxPair@$$CBUPrunerPayload@Gu@physx@@UExtendedBucketPrunerData@23@@3@XZ 000000018017cdb0 f i GuExtendedBucketPruner.obj
 0001:0017be00       ?updateObject@ExtendedBucketPruner@Gu@physx@@QEAA_NAEBVPxBounds3@3@AEBV?$PxTransformT@M@3@AEBUPrunerPayload@23@II@Z 000000018017ce00 f   GuExtendedBucketPruner.obj
 0001:0017bed0       ?visualize@ExtendedBucketPruner@Gu@physx@@QEBAXAEAVPxRenderOutput@3@I@Z 000000018017ced0 f   GuExtendedBucketPruner.obj
 0001:0017bf60       ??0?$OBBAABBTests@$00@Gu@physx@@QEAA@AEBV?$PxVec3T@M@2@AEBV?$PxMat33T@M@2@0@Z 000000018017cf60 f i GuSecondaryPruner.obj
 0001:0017df00       ??_GCompanionPruner@Gu@physx@@UEAAPEAXI@Z 000000018017ef00 f i GuSecondaryPruner.obj
 0001:0017df00       ??_ECompanionPruner@Gu@physx@@UEAAPEAXI@Z 000000018017ef00 f i GuSecondaryPruner.obj
 0001:0017df50       ??_GCompanionPrunerAABBTree@@UEAAPEAXI@Z 000000018017ef50 f i GuSecondaryPruner.obj
 0001:0017df50       ??_ECompanionPrunerAABBTree@@UEAAPEAXI@Z 000000018017ef50 f i GuSecondaryPruner.obj
 0001:0017e000       ??_ECompanionPrunerBucket@@UEAAPEAXI@Z 000000018017f000 f i GuSecondaryPruner.obj
 0001:0017e000       ??_GCompanionPrunerBucket@@UEAAPEAXI@Z 000000018017f000 f i GuSecondaryPruner.obj
 0001:0017e080       ??_ECompanionPrunerIncremental@@UEAAPEAXI@Z 000000018017f080 f i GuSecondaryPruner.obj
 0001:0017e080       ??_GCompanionPrunerIncremental@@UEAAPEAXI@Z 000000018017f080 f i GuSecondaryPruner.obj
 0001:0017e100       ?addObject@CompanionPrunerAABBTree@@UEAA_NAEBUPrunerPayload@Gu@physx@@IAEBVPxBounds3@4@AEBV?$PxTransformT@M@4@II@Z 000000018017f100 f   GuSecondaryPruner.obj
 0001:0017e340       ?addObject@CompanionPrunerBucket@@UEAA_NAEBUPrunerPayload@Gu@physx@@IAEBVPxBounds3@4@AEBV?$PxTransformT@M@4@II@Z 000000018017f340 f i GuSecondaryPruner.obj
 0001:0017e360       ?addObject@CompanionPrunerIncremental@@UEAA_NAEBUPrunerPayload@Gu@physx@@IAEBVPxBounds3@4@AEBV?$PxTransformT@M@4@II@Z 000000018017f360 f i GuSecondaryPruner.obj
 0001:0017e380       ?addObjectInternal@CompanionPrunerAABBTree@@QEAA_NII@Z 000000018017f380 f   GuSecondaryPruner.obj
 0001:0017e520       ?build@CompanionPrunerAABBTree@@UEAAXXZ 000000018017f520 f   GuSecondaryPruner.obj
 0001:0017e9f0       ?createCompanionPruner@Gu@physx@@YAPEAVCompanionPruner@12@_KW4CompanionPrunerType@12@PEBVPruningPool@12@@Z 000000018017f9f0 f   GuSecondaryPruner.obj
 0001:0017ec00       ?getGlobalBounds@CompanionPrunerAABBTree@@UEBAXAEAVPxBounds3@physx@@@Z 000000018017fc00 f   GuSecondaryPruner.obj
 0001:0017ed10       ?getGlobalBounds@CompanionPrunerBucket@@UEBAXAEAVPxBounds3@physx@@@Z 000000018017fd10 f i GuSecondaryPruner.obj
 0001:0017ed20       ?getGlobalBounds@CompanionPrunerIncremental@@UEBAXAEAVPxBounds3@physx@@@Z 000000018017fd20 f i GuSecondaryPruner.obj
 0001:0017ed30       ?getNbObjects@CompanionPrunerAABBTree@@UEBAIXZ 000000018017fd30 f   GuSecondaryPruner.obj
 0001:0017ed40       ?getNbObjects@CompanionPrunerBucket@@UEBAIXZ 000000018017fd40 f i GuSecondaryPruner.obj
 0001:0017ed50       ?getNbObjects@CompanionPrunerIncremental@@UEBAIXZ 000000018017fd50 f i GuSecondaryPruner.obj
 0001:0017ed60       ?growAndPushBack@?$PxArray@ULocalData@CompanionPrunerAABBTree@@V?$PxReflectionAllocator@ULocalData@CompanionPrunerAABBTree@@@physx@@@physx@@IEAAAEAULocalData@CompanionPrunerAABBTree@@AEBU34@@Z 000000018017fd60 f i GuSecondaryPruner.obj
 0001:0017eea0       ?overlap@CompanionPrunerAABBTree@@UEBA_NAEBVShapeData@Gu@physx@@AEAUPrunerOverlapCallback@34@@Z 000000018017fea0 f   GuSecondaryPruner.obj
 0001:00180000       ?overlap@CompanionPrunerBucket@@UEBA_NAEBVShapeData@Gu@physx@@AEAUPrunerOverlapCallback@34@@Z 0000000180181000 f i GuSecondaryPruner.obj
 0001:00180020       ?overlap@CompanionPrunerIncremental@@UEBA_NAEBVShapeData@Gu@physx@@AEAUPrunerOverlapCallback@34@@Z 0000000180181020 f i GuSecondaryPruner.obj
 0001:00180040       ?raycast@CompanionPrunerAABBTree@@UEBA_NAEBV?$PxVec3T@M@physx@@0AEAMAEAUPrunerRaycastCallback@Gu@3@@Z 0000000180181040 f   GuSecondaryPruner.obj
 0001:00180420       ?raycast@CompanionPrunerBucket@@UEBA_NAEBV?$PxVec3T@M@physx@@0AEAMAEAUPrunerRaycastCallback@Gu@3@@Z 0000000180181420 f i GuSecondaryPruner.obj
 0001:00180440       ?raycast@CompanionPrunerIncremental@@UEBA_NAEBV?$PxVec3T@M@physx@@0AEAMAEAUPrunerRaycastCallback@Gu@3@@Z 0000000180181440 f i GuSecondaryPruner.obj
 0001:00180460       ?release@CompanionPrunerAABBTree@@UEAAXXZ 0000000180181460 f   GuSecondaryPruner.obj
 0001:00180470       ?release@CompanionPrunerBucket@@UEAAXXZ 0000000180181470 f i GuSecondaryPruner.obj
 0001:00180480       ?release@CompanionPrunerIncremental@@UEAAXXZ 0000000180181480 f i GuSecondaryPruner.obj
 0001:00180490       ?releaseInternal@CompanionPrunerAABBTree@@QEAAXXZ 0000000180181490 f   GuSecondaryPruner.obj
 0001:00180510       ?removeMarkedObjects@CompanionPrunerAABBTree@@UEAAII@Z 0000000180181510 f   GuSecondaryPruner.obj
 0001:00180530       ?removeMarkedObjects@CompanionPrunerBucket@@UEAAII@Z 0000000180181530 f i GuSecondaryPruner.obj
 0001:00180540       ?removeMarkedObjects@CompanionPrunerIncremental@@UEAAII@Z 0000000180181540 f i GuSecondaryPruner.obj
 0001:00180550       ?removeObject@CompanionPrunerAABBTree@@UEAA_NAEBUPrunerPayload@Gu@physx@@III@Z 0000000180181550 f   GuSecondaryPruner.obj
 0001:001805f0       ?removeObject@CompanionPrunerBucket@@UEAA_NAEBUPrunerPayload@Gu@physx@@III@Z 00000001801815f0 f i GuSecondaryPruner.obj
 0001:00180610       ?removeObject@CompanionPrunerIncremental@@UEAA_NAEBUPrunerPayload@Gu@physx@@III@Z 0000000180181610 f i GuSecondaryPruner.obj
 0001:00180630       ?shiftOrigin@CompanionPrunerAABBTree@@UEAAXAEBV?$PxVec3T@M@physx@@@Z 0000000180181630 f   GuSecondaryPruner.obj
 0001:00180760       ?shiftOrigin@CompanionPrunerIncremental@@UEAAXAEBV?$PxVec3T@M@physx@@@Z 0000000180181760 f i GuSecondaryPruner.obj
 0001:00180770       ?swapIndex@CompanionPrunerIncremental@@UEAAXII@Z 0000000180181770 f i GuSecondaryPruner.obj
 0001:00180780       ?sweep@CompanionPrunerAABBTree@@UEBA_NAEBVShapeData@Gu@physx@@AEBV?$PxVec3T@M@4@AEAMAEAUPrunerRaycastCallback@34@@Z 0000000180181780 f   GuSecondaryPruner.obj
 0001:00180cb0       ?sweep@CompanionPrunerBucket@@UEBA_NAEBVShapeData@Gu@physx@@AEBV?$PxVec3T@M@4@AEAMAEAUPrunerRaycastCallback@34@@Z 0000000180181cb0 f i GuSecondaryPruner.obj
 0001:00180cd0       ?sweep@CompanionPrunerIncremental@@UEBA_NAEBVShapeData@Gu@physx@@AEBV?$PxVec3T@M@4@AEAMAEAUPrunerRaycastCallback@34@@Z 0000000180181cd0 f i GuSecondaryPruner.obj
 0001:00180cf0       ?timeStampChange@CompanionPrunerIncremental@@UEAAXXZ 0000000180181cf0 f i GuSecondaryPruner.obj
 0001:00180d10       ?updateObject@CompanionPrunerAABBTree@@UEAA_NAEBUPrunerPayload@Gu@physx@@IAEBVPxBounds3@4@AEBV?$PxTransformT@M@4@I@Z 0000000180181d10 f   GuSecondaryPruner.obj
 0001:00180d90       ?updateObject@CompanionPrunerBucket@@UEAA_NAEBUPrunerPayload@Gu@physx@@IAEBVPxBounds3@4@AEBV?$PxTransformT@M@4@I@Z 0000000180181d90 f i GuSecondaryPruner.obj
 0001:00180db0       ?updateObject@CompanionPrunerIncremental@@UEAA_NAEBUPrunerPayload@Gu@physx@@IAEBVPxBounds3@4@AEBV?$PxTransformT@M@4@I@Z 0000000180181db0 f i GuSecondaryPruner.obj
 0001:00180dc0       ?visualize@CompanionPrunerAABBTree@@UEBAXAEAVPxRenderOutput@physx@@I@Z 0000000180181dc0 f   GuSecondaryPruner.obj
 0001:00180de0       ?visualize@CompanionPrunerIncremental@@UEBAXAEAVPxRenderOutput@physx@@I@Z 0000000180181de0 f i GuSecondaryPruner.obj
 0001:00180df0       ??0AABBPruner@Gu@physx@@QEAA@_N_KW4CompanionPrunerType@12@W4BVHBuildStrategy@12@I@Z 0000000180181df0 f   GuAABBPruner.obj
 0001:00180f20       ??1AABBPruner@Gu@physx@@UEAA@XZ 0000000180181f20 f   GuAABBPruner.obj
 0001:00181070       ??_GAABBPruner@Gu@physx@@UEAAPEAXI@Z 0000000180182070 f i GuAABBPruner.obj
 0001:00181070       ??_EAABBPruner@Gu@physx@@UEAAPEAXI@Z 0000000180182070 f i GuAABBPruner.obj
 0001:001810e0       ?addObjects@AABBPruner@Gu@physx@@UEAA_NPEAIPEBVPxBounds3@3@PEBUPrunerPayload@23@PEBV?$PxTransformT@M@3@I_N@Z 00000001801820e0 f   GuAABBPruner.obj
 0001:00181390       ?buildStep@AABBPruner@Gu@physx@@UEAA_N_N@Z 0000000180182390 f   GuAABBPruner.obj
 0001:00181790       ?commit@AABBPruner@Gu@physx@@UEAAXXZ 0000000180182790 f   GuAABBPruner.obj
 0001:00181ea0       ?fullRebuildAABBTree@AABBPruner@Gu@physx@@QEAA_NXZ 0000000180182ea0 f   GuAABBPruner.obj
 0001:001820a0       ?getGlobalBounds@AABBPruner@Gu@physx@@UEBAXAEAVPxBounds3@3@@Z 00000001801830a0 f   GuAABBPruner.obj
 0001:001821d0       ?getPayloadData@AABBPruner@Gu@physx@@UEBAAEBUPrunerPayload@23@IPEAUPrunerPayloadData@23@@Z 00000001801831d0 f i GuAABBPruner.obj
 0001:00182230       ?growAndPushBack@?$PxArray@UNewTreeFixup@AABBPruner@Gu@physx@@V?$PxReflectionAllocator@UNewTreeFixup@AABBPruner@Gu@physx@@@4@@physx@@IEAAAEAUNewTreeFixup@AABBPruner@Gu@2@AEBU3452@@Z 0000000180183230 f i GuAABBPruner.obj
 0001:00182370       ?isDynamic@AABBPruner@Gu@physx@@UEBA_NXZ 0000000180183370 f i GuAABBPruner.obj
 0001:00182380       ?merge@AABBPruner@Gu@physx@@UEAAXPEBX@Z 0000000180183380 f   GuAABBPruner.obj
 0001:00182400       ?overlap@AABBPruner@Gu@physx@@UEBA_NAEBVShapeData@23@AEAUPrunerOverlapCallback@23@@Z 0000000180183400 f   GuAABBPruner.obj
 0001:001829e0       ?preallocate@AABBPruner@Gu@physx@@UEAAXI@Z 00000001801839e0 f i GuAABBPruner.obj
 0001:001829f0       ?prepareBuild@AABBPruner@Gu@physx@@UEAA_NXZ 00000001801839f0 f   GuAABBPruner.obj
 0001:00182bf0       ?purge@AABBPruner@Gu@physx@@UEAAXXZ 0000000180183bf0 f   GuAABBPruner.obj
 0001:00182c10       ?raycast@AABBPruner@Gu@physx@@UEBA_NAEBV?$PxVec3T@M@3@0AEAMAEAUPrunerRaycastCallback@23@@Z 0000000180183c10 f   GuAABBPruner.obj
 0001:00182d00       ?refitUpdatedAndRemoved@AABBPruner@Gu@physx@@QEAAXXZ 0000000180183d00 f   GuAABBPruner.obj
 0001:00182dd0       ?release@AABBPruner@Gu@physx@@QEAAXXZ 0000000180183dd0 f   GuAABBPruner.obj
 0001:00182f00       ?removeObjects@AABBPruner@Gu@physx@@UEAAXPEBIIPEAUPrunerPayloadRemovalCallback@23@@Z 0000000180183f00 f   GuAABBPruner.obj
 0001:001831c0       ?setRebuildRateHint@AABBPruner@Gu@physx@@UEAAXI@Z 00000001801841c0 f   GuAABBPruner.obj
 0001:001831e0       ?setTransform@AABBPruner@Gu@physx@@UEAA_NIAEBV?$PxTransformT@M@3@@Z 00000001801841e0 f i GuAABBPruner.obj
 0001:00183240       ?shiftOrigin@AABBPruner@Gu@physx@@UEAAXAEBV?$PxVec3T@M@3@@Z 0000000180184240 f   GuAABBPruner.obj
 0001:001832b0       ?sweep@AABBPruner@Gu@physx@@UEBA_NAEBVShapeData@23@AEBV?$PxVec3T@M@3@AEAMAEAUPrunerRaycastCallback@23@@Z 00000001801842b0 f   GuAABBPruner.obj
 0001:00183440       ?updateObjects@AABBPruner@Gu@physx@@UEAAXPEBIIM0PEBVPxBounds3@3@PEBUPxTransformPadded@3@@Z 0000000180184440 f   GuAABBPruner.obj
 0001:001836e0       ?visualize@AABBPruner@Gu@physx@@UEBAXAEAVPxRenderOutput@3@II@Z 00000001801846e0 f   GuAABBPruner.obj
 0001:00183790       ??0ActorShapeMap@Gu@physx@@QEAA@XZ 0000000180184790 f   GuActorShapeMap.obj
 0001:001837f0       ??1ActorShapeMap@Gu@physx@@QEAA@XZ 00000001801847f0 f   GuActorShapeMap.obj
 0001:00183850       ?add@ActorShapeMap@Gu@physx@@QEAA_NIPEBX0_K@Z 0000000180184850 f   GuActorShapeMap.obj
 0001:001839e0       ?create@?$PxHashBase@V?$PxPair@$$CBUActorShape@ActorShapeMap@Gu@physx@@_K@physx@@UActorShape@ActorShapeMap@Gu@2@U?$PxHash@UActorShape@ActorShapeMap@Gu@physx@@@2@UGetKey@?$PxHashMapBase@UActorShape@ActorShapeMap@Gu@physx@@_KU?$PxHash@UActorShape@ActorShapeMap@Gu@physx@@@4@VPxAllocator@4@@2@VPxAllocator@2@$00@physx@@QEAAPEAV?$PxPair@$$CBUActorShape@ActorShapeMap@Gu@physx@@_K@2@AEBUActorShape@ActorShapeMap@Gu@2@AEA_N@Z 00000001801849e0 f i GuActorShapeMap.obj
 0001:00183bd0       ?erase@?$PxHashBase@V?$PxPair@$$CBUActorShape@ActorShapeMap@Gu@physx@@_K@physx@@UActorShape@ActorShapeMap@Gu@2@U?$PxHash@UActorShape@ActorShapeMap@Gu@physx@@@2@UGetKey@?$PxHashMapBase@UActorShape@ActorShapeMap@Gu@physx@@_KU?$PxHash@UActorShape@ActorShapeMap@Gu@physx@@@4@VPxAllocator@4@@2@VPxAllocator@2@$00@physx@@QEAA_NAEBUActorShape@ActorShapeMap@Gu@2@AEAV?$PxPair@$$CBUActorShape@ActorShapeMap@Gu@physx@@_K@2@@Z 0000000180184bd0 f i GuActorShapeMap.obj
 0001:00183de0       ?find@ActorShapeMap@Gu@physx@@QEBA_KIPEBX0@Z 0000000180184de0 f   GuActorShapeMap.obj
 0001:00183ed0       ?remove@ActorShapeMap@Gu@physx@@QEAA_NIPEBX0PEA_K@Z 0000000180184ed0 f   GuActorShapeMap.obj
 0001:00183f60       ?reserveInternal@?$PxHashBase@V?$PxPair@$$CBUActorShape@ActorShapeMap@Gu@physx@@_K@physx@@UActorShape@ActorShapeMap@Gu@2@U?$PxHash@UActorShape@ActorShapeMap@Gu@physx@@@2@UGetKey@?$PxHashMapBase@UActorShape@ActorShapeMap@Gu@physx@@_KU?$PxHash@UActorShape@ActorShapeMap@Gu@physx@@@4@VPxAllocator@4@@2@VPxAllocator@2@$00@physx@@AEAAXI@Z 0000000180184f60 f i GuActorShapeMap.obj
 0001:00184180       ??0QuerySystem@Gu@physx@@QEAA@_KMAEBVAdapter@12@_N@Z 0000000180185180 f   GuQuerySystem.obj
 0001:00184260       ??1QuerySystem@Gu@physx@@QEAA@XZ 0000000180185260 f   GuQuerySystem.obj
 0001:001844a0       ??_GPrunerExt@QuerySystem@Gu@physx@@QEAAPEAXI@Z 00000001801854a0 f i GuQuerySystem.obj
 0001:001845a0       ?addPruner@QuerySystem@Gu@physx@@QEAAIPEAVPruner@23@I@Z 00000001801855a0 f   GuQuerySystem.obj
 0001:001846d0       ?addPrunerShape@QuerySystem@Gu@physx@@QEAA_KAEBUPrunerPayload@23@I_NAEBV?$PxTransformT@M@3@PEBVPxBounds3@3@@Z 00000001801856d0 f   GuQuerySystem.obj
 0001:00184810       ?addToDirtyList@PrunerExt@QuerySystem@Gu@physx@@QEAAXIIAEBV?$PxTransformT@M@4@PEBVPxBounds3@4@@Z 0000000180185810 f   GuQuerySystem.obj
 0001:00184a50       ?commitUpdates@QuerySystem@Gu@physx@@QEAAXXZ 0000000180185a50 f   GuQuerySystem.obj
 0001:00184b70       ?createTreeOfPruners@QuerySystem@Gu@physx@@QEAAXXZ 0000000180185b70 f   GuQuerySystem.obj
 0001:00184d50       ?flushMemory@QuerySystem@Gu@physx@@QEAAXXZ 0000000180185d50 f   GuQuerySystem.obj
 0001:00184de0       ?getPayloadData@QuerySystem@Gu@physx@@QEBAAEBUPrunerPayload@23@_KPEAUPrunerPayloadData@23@@Z 0000000180185de0 f   GuQuerySystem.obj
 0001:00184e00       ?growAndPushBack@?$PxArray@PEAUPrunerExt@QuerySystem@Gu@physx@@V?$PxReflectionAllocator@PEAUPrunerExt@QuerySystem@Gu@physx@@@4@@physx@@IEAAAEAPEAUPrunerExt@QuerySystem@Gu@2@AEBQEAU3452@@Z 0000000180185e00 f i GuQuerySystem.obj
 0001:00184f40       ?overlap@QuerySystem@Gu@physx@@QEBAXAEBVShapeData@23@AEAUPrunerOverlapCallback@23@PEBVPrunerFilter@23@@Z 0000000180185f40 f   GuQuerySystem.obj
 0001:00185040       ?processDirtyList@PrunerExt@QuerySystem@Gu@physx@@QEAA_NAEBVAdapter@34@M@Z 0000000180186040 f   GuQuerySystem.obj
 0001:00185260       ?processDirtyLists@QuerySystem@Gu@physx@@AEAAXXZ 0000000180186260 f   GuQuerySystem.obj
 0001:001853c0       ?raycast@QuerySystem@Gu@physx@@QEBAXAEBV?$PxVec3T@M@3@0AEAMAEAUPrunerRaycastCallback@23@PEBVPrunerFilter@23@@Z 00000001801863c0 f   GuQuerySystem.obj
 0001:00185500       ?recreate@?$PxArray@UData@PrunerExt@QuerySystem@Gu@physx@@V?$PxReflectionAllocator@UData@PrunerExt@QuerySystem@Gu@physx@@@5@@physx@@IEAAXI@Z 0000000180186500 f i GuQuerySystem.obj
 0001:00185820       ?removePruner@QuerySystem@Gu@physx@@QEAAXI@Z 0000000180186820 f   GuQuerySystem.obj
 0001:00185900       ?removePrunerShape@QuerySystem@Gu@physx@@QEAAX_KPEAUPrunerPayloadRemovalCallback@23@@Z 0000000180186900 f   GuQuerySystem.obj
 0001:00185b20       ?sweep@QuerySystem@Gu@physx@@QEBAXAEBVShapeData@23@AEBV?$PxVec3T@M@3@AEAMAEAUPrunerRaycastCallback@23@PEBVPrunerFilter@23@@Z 0000000180186b20 f   GuQuerySystem.obj
 0001:00185c50       ?sync@QuerySystem@Gu@physx@@QEAAXIPEBI0PEBVPxBounds3@3@PEBUPxTransformPadded@3@I@Z 0000000180186c50 f   GuQuerySystem.obj
 0001:00185d00       ?update@QuerySystem@Gu@physx@@QEAAX_N0@Z 0000000180186d00 f   GuQuerySystem.obj
 0001:00185e70       ?updatePrunerShape@QuerySystem@Gu@physx@@QEAAX_K_NAEBV?$PxTransformT@M@3@PEBVPxBounds3@3@@Z 0000000180186e70 f   GuQuerySystem.obj
 0001:00186060       createAABBPruner           0000000180187060 f   GuFactory.obj
 0001:00186120       createBucketPruner         0000000180187120 f   GuFactory.obj
 0001:001861b0       createIncrementalPruner    00000001801871b0 f   GuFactory.obj
 0001:00186240       ??$PxSmallSort@I$$CBUSortBoundsPredicate@physx@@@physx@@YAXPEAIHHAEBUSortBoundsPredicate@0@@Z 0000000180187240 f i GuRTreeCooking.obj
 0001:00186510       ??$PxSort@IU?$PxLess@I@physx@@V?$PxReflectionAllocator@I@2@@physx@@YAXPEAIIAEBU?$PxLess@I@0@AEBV?$PxReflectionAllocator@I@0@I@Z 0000000180187510 f i GuRTreeCooking.obj
 0001:00186970       ??$PxSort@IUSortBoundsPredicate@physx@@V?$PxReflectionAllocator@I@2@@physx@@YAXPEAIIAEBUSortBoundsPredicate@0@AEBV?$PxReflectionAllocator@I@0@I@Z 0000000180187970 f i GuRTreeCooking.obj
 0001:00186e70       ??$quickSelectFirstK@UBoundsLTE@physx@@@quickSelect@physx@@YAXPEIAIIIIAEBUBoundsLTE@1@@Z 0000000180187e70 f i GuRTreeCooking.obj
 0001:00187050       ?allocate@?$PxArray@UInterval@physx@@V?$PxInlineAllocator@$0CAAA@V?$PxReflectionAllocator@UInterval@physx@@@physx@@@2@@physx@@IEAAPEAUInterval@2@I@Z 0000000180188050 f i GuRTreeCooking.obj
 0001:00187120       ?allocate@?$PxArray@UPxBounds3V@physx@@V?$PxReflectionAllocator@UPxBounds3V@physx@@@2@@physx@@IEAAPEAUPxBounds3V@2@I@Z 0000000180188120 f i GuRTreeCooking.obj
 0001:001871d0       ?allocate@?$PxArray@URTreeNodeNQ@physx@@V?$PxReflectionAllocator@URTreeNodeNQ@physx@@@2@@physx@@IEAAPEAURTreeNodeNQ@2@I@Z 00000001801881d0 f i GuRTreeCooking.obj
 0001:00187280       ?allocate@?$PxArray@URTreeNodeQ@Gu@physx@@V?$PxReflectionAllocator@URTreeNodeQ@Gu@physx@@@3@@physx@@IEAAPEAURTreeNodeQ@Gu@2@I@Z 0000000180188280 f i GuRTreeCooking.obj
 0001:00187f80       ?buildFromTriangles@RTreeCooker@physx@@SAXAEAURTree@Gu@2@PEBV?$PxVec3T@M@2@IPEBGPEBIIAEAV?$PxArray@IV?$PxReflectionAllocator@I@physx@@@2@PEAURemapCallback@12@MW4Enum@PxMeshCookingHint@2@@Z 0000000180188f80 f   GuRTreeCooking.obj
 0001:00188220       ?copy@?$PxArray@URTreeNodeNQ@physx@@V?$PxReflectionAllocator@URTreeNodeNQ@physx@@@2@@physx@@KAXPEAURTreeNodeNQ@2@0PEBU32@@Z 0000000180189220 f i GuRTreeCooking.obj
 0001:001883e0       ?growAndPushBack@?$PxArray@UInterval@physx@@V?$PxInlineAllocator@$0CAAA@V?$PxReflectionAllocator@UInterval@physx@@@physx@@@2@@physx@@IEAAAEAUInterval@2@AEBU32@@Z 00000001801893e0 f i GuRTreeCooking.obj
 0001:001884c0       ?growAndPushBack@?$PxArray@UPxBounds3V@physx@@V?$PxReflectionAllocator@UPxBounds3V@physx@@@2@@physx@@IEAAAEAUPxBounds3V@2@AEBU32@@Z 00000001801894c0 f i GuRTreeCooking.obj
 0001:00188590       ?growAndPushBack@?$PxArray@URTreeNodeNQ@physx@@V?$PxReflectionAllocator@URTreeNodeNQ@physx@@@2@@physx@@IEAAAEAURTreeNodeNQ@2@AEBU32@@Z 0000000180189590 f i GuRTreeCooking.obj
 0001:00188670       ?growAndPushBack@?$PxArray@URTreeNodeQ@Gu@physx@@V?$PxReflectionAllocator@URTreeNodeQ@Gu@physx@@@3@@physx@@IEAAAEAURTreeNodeQ@Gu@2@AEBU342@@Z 0000000180189670 f i GuRTreeCooking.obj
 0001:00188750       ?recreate@?$PxArray@UPxBounds3V@physx@@V?$PxReflectionAllocator@UPxBounds3V@physx@@@2@@physx@@IEAAXI@Z 0000000180189750 f i GuRTreeCooking.obj
 0001:00188800       ?recreate@?$PxArray@URTreeNodeNQ@physx@@V?$PxReflectionAllocator@URTreeNodeNQ@physx@@@2@@physx@@IEAAXI@Z 0000000180189800 f i GuRTreeCooking.obj
 0001:00188890       ?recreate@?$PxArray@URTreeNodeQ@Gu@physx@@V?$PxReflectionAllocator@URTreeNodeQ@Gu@physx@@@3@@physx@@IEAAXI@Z 0000000180189890 f i GuRTreeCooking.obj
 0001:00188950       ?resizeUninitialized@?$PxArray@URTreeNodeNQ@physx@@V?$PxReflectionAllocator@URTreeNodeNQ@physx@@@2@@physx@@QEAAXI@Z 0000000180189950 f i GuRTreeCooking.obj
 0001:00188990       ?sort4@SubSortQuick@physx@@QEAAXPEIAIIAEAV?$PxArray@URTreeNodeNQ@physx@@V?$PxReflectionAllocator@URTreeNodeNQ@physx@@@2@@2@AEAIAEAUPxBounds3V@2@I@Z 0000000180189990 f i GuRTreeCooking.obj
 0001:00188d20       ?sort4@SubSortSAH@physx@@QEAAXPEAIIAEAV?$PxArray@URTreeNodeNQ@physx@@V?$PxReflectionAllocator@URTreeNodeNQ@physx@@@2@@2@AEAIIPEAURTreeNodeNQ@2@@Z 0000000180189d20 f i GuRTreeCooking.obj
 0001:001895b0       ?split@SubSortSAH@physx@@QEAAIPEAII@Z 000000018018a5b0 f i GuRTreeCooking.obj
 0001:00189fb0       cookBVH                    000000018018afb0 f   GuCookingBVH.obj
 0001:0018a130       createBVH                  000000018018b130 f   GuCookingBVH.obj
 0001:0018a2b0       cookHeightField            000000018018b2b0 f   GuCookingHF.obj
 0001:0018a3a0       createHeightField          000000018018b3a0 f   GuCookingHF.obj
 0001:0018a960       computeHullPolygons        000000018018b960 f   GuCookingConvexMesh.obj
 0001:0018ab40       cookConvexMesh             000000018018bb40 f   GuCookingConvexMesh.obj
 0001:0018aca0       createConvexMesh           000000018018bca0 f   GuCookingConvexMesh.obj
 0001:0018ae40       validateConvexMesh         000000018018be40 f   GuCookingConvexMesh.obj
 0001:0018af60       ??1BV4TriangleMeshBuilder@physx@@UEAA@XZ 000000018018bf60 f   GuCookingTriangleMesh.obj
 0001:0018aff0       ??1RTreeTriangleMeshBuilder@physx@@UEAA@XZ 000000018018bff0 f   GuCookingTriangleMesh.obj
 0001:0018b060       ??_EBV4TriangleMeshBuilder@physx@@UEAAPEAXI@Z 000000018018c060 f i GuCookingTriangleMesh.obj
 0001:0018b060       ??_GBV4TriangleMeshBuilder@physx@@UEAAPEAXI@Z 000000018018c060 f i GuCookingTriangleMesh.obj
 0001:0018b0a0       ??_ERTreeTriangleMeshBuilder@physx@@UEAAPEAXI@Z 000000018018c0a0 f i GuCookingTriangleMesh.obj
 0001:0018b0a0       ??_GRTreeTriangleMeshBuilder@physx@@UEAAPEAXI@Z 000000018018c0a0 f i GuCookingTriangleMesh.obj
 0001:0018b0e0       ??_GTriangleMeshBuilder@physx@@UEAAPEAXI@Z 000000018018c0e0 f i GuCookingTriangleMesh.obj
 0001:0018b0e0       ??_ETriangleMeshBuilder@physx@@UEAAPEAXI@Z 000000018018c0e0 f i GuCookingTriangleMesh.obj
 0001:0018ba80       ?buildInertiaTensor@TriangleMeshBuilder@physx@@IEAAXXZ 000000018018ca80 f   GuCookingTriangleMesh.obj
 0001:0018bbd0       ?buildInertiaTensorFromSDF@TriangleMeshBuilder@physx@@IEAAXXZ 000000018018cbd0 f   GuCookingTriangleMesh.obj
 0001:0018bdf0       ?cleanMesh@TriangleMeshBuilder@physx@@QEAA_N_NPEAW4Enum@PxTriangleMeshCookingResult@2@@Z 000000018018cdf0 f   GuCookingTriangleMesh.obj
 0001:0018c280       ?createGRBMidPhaseAndData@TriangleMeshBuilder@physx@@QEAAXI@Z 000000018018d280 f   GuCookingTriangleMesh.obj
 0001:0018c430       ?createMidPhaseStructure@BV32TriangleMeshBuilder@physx@@SAXAEBUPxCookingParams@2@AEAVTriangleMeshData@Gu@2@AEAVBV32Tree@52@@Z 000000018018d430 f   GuCookingTriangleMesh.obj
 0001:0018c660       ?createMidPhaseStructure@BV4TriangleMeshBuilder@physx@@UEAAXXZ 000000018018d660 f   GuCookingTriangleMesh.obj
 0001:0018c920       ?createMidPhaseStructure@RTreeTriangleMeshBuilder@physx@@UEAAXXZ 000000018018d920 f   GuCookingTriangleMesh.obj
 0001:0018ca10       ?createSharedEdgeData@TriangleMeshBuilder@physx@@QEAAX_N0@Z 000000018018da10 f   GuCookingTriangleMesh.obj
 0001:0018d0b0       ?createVertMapping@TriangleMeshBuilder@physx@@QEAAXXZ 000000018018e0b0 f   GuCookingTriangleMesh.obj
 0001:0018d430       ?importMesh@TriangleMeshBuilder@physx@@IEAA_NAEBVPxTriangleMeshDesc@2@AEBUPxCookingParams@2@PEAW4Enum@PxTriangleMeshCookingResult@2@_N@Z 000000018018e430 f   GuCookingTriangleMesh.obj
 0001:0018da50       ?isValid@PxTriangleMeshDesc@physx@@QEBA_NXZ 000000018018ea50 f i GuCookingTriangleMesh.obj
 0001:0018db30       ?loadFromDescInternal@TriangleMeshBuilder@physx@@IEAA_NAEAVPxTriangleMeshDesc@2@PEAW4Enum@PxTriangleMeshCookingResult@2@_N@Z 000000018018eb30 f   GuCookingTriangleMesh.obj
 0001:0018dd50       ?onMeshIndexFormatChange@BV4TriangleMeshBuilder@physx@@UEAAXXZ 000000018018ed50 f   GuCookingTriangleMesh.obj
 0001:0018dd90       ?remap@RTreeCookerRemap@@UEAAXPEAIII@Z 000000018018ed90 f i GuCookingTriangleMesh.obj
 0001:0018ddb0       ?remapTopology@TriangleMeshBuilder@physx@@QEAAXPEBI@Z 000000018018edb0 f   GuCookingTriangleMesh.obj
 0001:0018e050       ?save@TriangleMeshBuilder@physx@@QEBA_NAEAVPxOutputStream@2@_NAEBUPxCookingParams@2@@Z 000000018018f050 f   GuCookingTriangleMesh.obj
 0001:0018e810       ?saveMidPhaseStructure@BV32TriangleMeshBuilder@physx@@SAXPEAVBV32Tree@Gu@2@AEAVPxOutputStream@2@_N@Z 000000018018f810 f   GuCookingTriangleMesh.obj
 0001:0018ea10       ?saveMidPhaseStructure@BV4TriangleMeshBuilder@physx@@UEBAXAEAVPxOutputStream@2@_N@Z 000000018018fa10 f   GuCookingTriangleMesh.obj
 0001:0018ebc0       ?saveMidPhaseStructure@RTreeTriangleMeshBuilder@physx@@UEBAXAEAVPxOutputStream@2@_N@Z 000000018018fbc0 f   GuCookingTriangleMesh.obj
 0001:0018ee00       cookTriangleMesh           000000018018fe00 f   GuCookingTriangleMesh.obj
 0001:0018f110       createTriangleMesh         0000000180190110 f   GuCookingTriangleMesh.obj
 0001:0018f320       validateTriangleMesh       0000000180190320 f   GuCookingTriangleMesh.obj
 0001:0018f5d0       ??0SoftBodyCollisionData@Gu@physx@@QEAA@XZ 00000001801905d0 f i GuCookingTetrahedronMesh.obj
 0001:0018f630       ??_ECollisionTetrahedronMeshData@Gu@physx@@UEAAPEAXI@Z 0000000180190630 f i GuCookingTetrahedronMesh.obj
 0001:0018f630       ??_GCollisionTetrahedronMeshData@Gu@physx@@UEAAPEAXI@Z 0000000180190630 f i GuCookingTetrahedronMesh.obj
 0001:0018f700       ??_EPxCollisionTetrahedronMeshData@physx@@UEAAPEAXI@Z 0000000180190700 f i GuCookingTetrahedronMesh.obj
 0001:0018f700       ??_GPxCollisionTetrahedronMeshData@physx@@UEAAPEAXI@Z 0000000180190700 f i GuCookingTetrahedronMesh.obj
 0001:0018f750       ??_EPxSimulationTetrahedronMeshData@physx@@UEAAPEAXI@Z 0000000180190750 f i GuCookingTetrahedronMesh.obj
 0001:0018f750       ??_GPxSimulationTetrahedronMeshData@physx@@UEAAPEAXI@Z 0000000180190750 f i GuCookingTetrahedronMesh.obj
 0001:0018f7a0       ??_ESimulationTetrahedronMeshData@Gu@physx@@UEAAPEAXI@Z 00000001801907a0 f i GuCookingTetrahedronMesh.obj
 0001:0018f7a0       ??_GSimulationTetrahedronMeshData@Gu@physx@@UEAAPEAXI@Z 00000001801907a0 f i GuCookingTetrahedronMesh.obj
 0001:0018f870       ?closestPtPointTetrahedron@Gu@physx@@YA?AV?$PxVec3T@M@2@AEBV32@0000@Z 0000000180190870 f i GuCookingTetrahedronMesh.obj
 0001:001909a0       ?combineGridModelPartitions@@YAXAEBVTetrahedronMeshData@Gu@physx@@AEAVSoftBodySimulationData@23@PEAPEAI@Z 00000001801919a0 f   GuCookingTetrahedronMesh.obj
 0001:001911b0       ?combineGridModelPartitionsHexMesh@@YAXAEBVTetrahedronMeshData@Gu@physx@@AEAVSoftBodySimulationData@23@PEAPEAI@Z 00000001801921b0 f   GuCookingTetrahedronMesh.obj
 0001:00191b20       ?computeBarycentric@physx@@YAXAEBV?$PxVec3T@M@1@0000AEAV?$PxVec4T@M@1@@Z 0000000180192b20 f i GuCookingTetrahedronMesh.obj
 0001:00191dd0       ?computeCollisionData@TetrahedronMeshBuilder@physx@@SA_NAEBVPxTetrahedronMeshDesc@2@AEAVTetrahedronMeshData@Gu@2@AEAVSoftBodyCollisionData@52@AEBUPxCookingParams@2@_N@Z 0000000180192dd0 f   GuCookingTetrahedronMesh.obj
 0001:00192010       ?computeGridModelTetrahedronPartitions@@YAPEAIAEBVTetrahedronMeshData@Gu@physx@@AEAVSoftBodySimulationData@23@@Z 0000000180193010 f   GuCookingTetrahedronMesh.obj
 0001:001924a0       ?computeModelsMapping@TetrahedronMeshBuilder@physx@@SAXAEAVTetrahedronMeshData@Gu@2@AEBV342@AEBVSoftBodyCollisionData@42@AEAVCollisionMeshMappingData@42@_NPEBUPxBoundedData@2@@Z 00000001801934a0 f   GuCookingTetrahedronMesh.obj
 0001:00193080       ?computeRestPoseAndPointMass@@YAXPEAU?$TetrahedronT@I@Gu@physx@@IPEBV?$PxVec3T@M@3@PEAMPEAV?$PxMat33T@M@3@@Z 0000000180194080 f   GuCookingTetrahedronMesh.obj
 0001:001934b0       ?computeSimData@TetrahedronMeshBuilder@physx@@SAXAEBVPxTetrahedronMeshDesc@2@AEAVTetrahedronMeshData@Gu@2@AEAVSoftBodySimulationData@52@AEBUPxCookingParams@2@@Z 00000001801944b0 f   GuCookingTetrahedronMesh.obj
 0001:00193b80       ?computeTetData@TetrahedronMeshBuilder@physx@@SAXAEBVPxTetrahedronMeshDesc@2@AEAVTetrahedronMeshData@Gu@2@@Z 0000000180194b80 f   GuCookingTetrahedronMesh.obj
 0001:00193c60       ?computeTetrahedronPartition@@YAIPEBU?$TetrahedronT@I@Gu@physx@@IPEAII@Z 0000000180194c60 f   GuCookingTetrahedronMesh.obj
 0001:00193d60       ?createCollisionModelMapping@TetrahedronMeshBuilder@physx@@SAXAEBVTetrahedronMeshData@Gu@2@AEBVSoftBodyCollisionData@42@AEAVCollisionMeshMappingData@42@@Z 0000000180194d60 f   GuCookingTetrahedronMesh.obj
 0001:00194360       ?createGRBMidPhaseAndData@TetrahedronMeshBuilder@physx@@SAXIAEAVTetrahedronMeshData@Gu@2@AEAVSoftBodyCollisionData@42@AEBUPxCookingParams@2@@Z 0000000180195360 f   GuCookingTetrahedronMesh.obj
 0001:001950d0       ?createMidPhaseStructure@BV32TetrahedronMeshBuilder@physx@@SAXAEBUPxCookingParams@2@AEAVTetrahedronMeshData@Gu@2@AEAVBV32Tree@52@AEAVSoftBodyCollisionData@52@@Z 00000001801960d0 f   GuCookingTetrahedronMesh.obj
 0001:001953a0       ?createMidPhaseStructure@TetrahedronMeshBuilder@physx@@SAXAEAVTetrahedronMeshData@Gu@2@AEAVSoftBodyCollisionData@42@AEBUPxCookingParams@2@@Z 00000001801963a0 f   GuCookingTetrahedronMesh.obj
 0001:00196070       ?getData@SimulationTetrahedronMeshData@Gu@physx@@UEAAPEAVPxSoftBodySimulationData@3@XZ 0000000180197070 f i GuCookingTetrahedronMesh.obj
 0001:00196070       ?getData@CollisionTetrahedronMeshData@Gu@physx@@UEAAPEAVPxSoftBodyCollisionData@3@XZ 0000000180197070 f i GuCookingTetrahedronMesh.obj
 0001:00196070       ?getData@CollisionTetrahedronMeshData@Gu@physx@@UEBAPEBVPxSoftBodyCollisionData@3@XZ 0000000180197070 f i GuCookingTetrahedronMesh.obj
 0001:00196090       ?importMesh@TetrahedronMeshBuilder@physx@@SA_NAEBVPxTetrahedronMeshDesc@2@AEBUPxCookingParams@2@AEAVTetrahedronMeshData@Gu@2@AEAVSoftBodyCollisionData@62@_N@Z 0000000180197090 f   GuCookingTetrahedronMesh.obj
 0001:00196450       ?isValid@PxTetrahedronMeshDesc@physx@@QEBA_NXZ 0000000180197450 f i GuCookingTetrahedronMesh.obj
 0001:001964c0       ?loadFromDesc@TetrahedronMeshBuilder@physx@@SA_NAEBVPxTetrahedronMeshDesc@2@0VPxSoftBodySimulationDataDesc@2@AEAVTetrahedronMeshData@Gu@2@AEAVSoftBodySimulationData@62@2AEAVSoftBodyCollisionData@62@AEAVCollisionMeshMappingData@62@AEBUPxCookingParams@2@_N@Z 00000001801974c0 f   GuCookingTetrahedronMesh.obj
 0001:00196630       ?release@CollisionTetrahedronMeshData@Gu@physx@@UEAAXXZ 0000000180197630 f i GuCookingTetrahedronMesh.obj
 0001:00196650       ?reserveInternal@?$PxHashBase@V?$PxPair@$$CBVSortedTriangleInds@@I@physx@@VSortedTriangleInds@@USortedTriangleIndsHash@@UGetKey@?$PxHashMapBase@VSortedTriangleInds@@IUSortedTriangleIndsHash@@VPxAllocator@physx@@@2@VPxAllocator@2@$00@physx@@AEAAXI@Z 0000000180197650 f i GuCookingTetrahedronMesh.obj
 0001:001968a0       ?saveSoftBodyMeshData@TetrahedronMeshBuilder@physx@@SA_NAEAVPxOutputStream@2@_NAEBUPxCookingParams@2@AEBVTetrahedronMeshData@Gu@2@AEBVSoftBodySimulationData@62@3AEBVSoftBodyCollisionData@62@AEBVCollisionMeshMappingData@62@@Z 00000001801978a0 f   GuCookingTetrahedronMesh.obj
 0001:00196fb0       ?saveTetrahedronMeshData@TetrahedronMeshBuilder@physx@@SA_NAEAVPxOutputStream@2@_NAEBUPxCookingParams@2@AEBVTetrahedronMeshData@Gu@2@@Z 0000000180197fb0 f   GuCookingTetrahedronMesh.obj
 0001:00197160       ?smoothMassRatiosWhilePreservingTotalMass@@YAXPEAMIPEBIHMM@Z 0000000180198160 f   GuCookingTetrahedronMesh.obj
 0001:001975f0       ?support@?$LocalConvex@VTetrahedronV@Gu@physx@@@Gu@physx@@UEBA?AT__m128@@AEBT4@@Z 00000001801985f0 f i GuCookingTetrahedronMesh.obj
 0001:001976b0       ?support@?$LocalConvex@VTetrahedronV@Gu@physx@@@Gu@physx@@UEBA?AT__m128@@AEBT4@AEAH@Z 00000001801986b0 f i GuCookingTetrahedronMesh.obj
 0001:00197860       assembleSoftBodyMesh       0000000180198860 f   GuCookingTetrahedronMesh.obj
 0001:001978c0       assembleSoftBodyMesh_Sim   00000001801988c0 f   GuCookingTetrahedronMesh.obj
 0001:00197970       computeCollisionData       0000000180198970 f   GuCookingTetrahedronMesh.obj
 0001:00197b80       computeModelsMapping       0000000180198b80 f   GuCookingTetrahedronMesh.obj
 0001:00197c90       computeSimulationData      0000000180198c90 f   GuCookingTetrahedronMesh.obj
 0001:00197e90       cookSoftBodyMesh           0000000180198e90 f   GuCookingTetrahedronMesh.obj
 0001:00198470       cookTetrahedronMesh        0000000180199470 f   GuCookingTetrahedronMesh.obj
 0001:00198560       createSoftBodyMesh         0000000180199560 f   GuCookingTetrahedronMesh.obj
 0001:00198bc0       createTetrahedronMesh      0000000180199bc0 f   GuCookingTetrahedronMesh.obj
 0001:0019a9a0       ?computeVolumeIntegrals@physx@@YA_NAEBVPxSimpleTriangleMesh@1@MAEAUPxIntegrals@1@@Z 000000018019b9a0 f   GuCookingVolumeIntegration.obj
 0001:0019a9e0       ?computeVolumeIntegralsEberly@physx@@YA_NAEBVPxConvexMeshDesc@1@MAEAUPxIntegrals@1@AEBV?$PxVec3T@M@1@_N@Z 000000018019b9e0 f   GuCookingVolumeIntegration.obj
 0001:0019b030       ??0QuickHull@local@@QEAA@AEBUPxCookingParams@physx@@AEBVPxConvexMeshDesc@3@@Z 000000018019c030 f   GuCookingQuickHullConvexHullLib.obj
 0001:0019b0e0       ??0QuickHullConvexHullLib@physx@@QEAA@AEBVPxConvexMeshDesc@1@AEBUPxCookingParams@1@@Z 000000018019c0e0 f   GuCookingQuickHullConvexHullLib.obj
 0001:0019b1d0       ??1?$MemBlock@UQuickHullHalfEdge@local@@$0A@@local@@QEAA@XZ 000000018019c1d0 f i GuCookingQuickHullConvexHullLib.obj
 0001:0019b1d0       ??1?$MemBlock@UQuickHullFace@local@@$00@local@@QEAA@XZ 000000018019c1d0 f i GuCookingQuickHullConvexHullLib.obj
 0001:0019b290       ??1QuickHull@local@@QEAA@XZ 000000018019c290 f   GuCookingQuickHullConvexHullLib.obj
 0001:0019b3e0       ??_GConvexHull@physx@@QEAAPEAXI@Z 000000018019c3e0 f i GuCookingQuickHullConvexHullLib.obj
 0001:0019b4c0       ??_GConvexHullLib@physx@@UEAAPEAXI@Z 000000018019c4c0 f i GuCookingQuickHullConvexHullLib.obj
 0001:0019b4c0       ??_EConvexHullLib@physx@@UEAAPEAXI@Z 000000018019c4c0 f i GuCookingQuickHullConvexHullLib.obj
 0001:0019b500       ??_GQuickHullConvexHullLib@physx@@UEAAPEAXI@Z 000000018019c500 f i GuCookingQuickHullConvexHullLib.obj
 0001:0019b500       ??_EQuickHullConvexHullLib@physx@@UEAAPEAXI@Z 000000018019c500 f i GuCookingQuickHullConvexHullLib.obj
 0001:0019b610       ?addPointToHull@QuickHull@local@@IEAA_NPEBUQuickHullVertex@2@AEAUQuickHullFace@2@AEA_N@Z 000000018019c610 f   GuCookingQuickHullConvexHullLib.obj
 0001:0019b8e0       ?addSimplex@QuickHull@local@@IEAAXPEAUQuickHullVertex@2@_N@Z 000000018019c8e0 f   GuCookingQuickHullConvexHullLib.obj
 0001:0019bdb0       ?allocate@?$PxArray@PEAUQuickHullFace@local@@V?$PxReflectionAllocator@PEAUQuickHullFace@local@@@physx@@@physx@@IEAAPEAPEAUQuickHullFace@local@@I@Z 000000018019cdb0 f i GuCookingQuickHullConvexHullLib.obj
 0001:0019be60       ?allocate@?$PxArray@PEAUQuickHullHalfEdge@local@@V?$PxReflectionAllocator@PEAUQuickHullHalfEdge@local@@@physx@@@physx@@IEAAPEAPEAUQuickHullHalfEdge@local@@I@Z 000000018019ce60 f i GuCookingQuickHullConvexHullLib.obj
 0001:0019bf10       ?allocate@?$PxArray@PEAUQuickHullVertex@local@@V?$PxReflectionAllocator@PEAUQuickHullVertex@local@@@physx@@@physx@@IEAAPEAPEAUQuickHullVertex@local@@I@Z 000000018019cf10 f i GuCookingQuickHullConvexHullLib.obj
 0001:0019bfc0       ?allocate@?$PxArray@UExpandPoint@local@@V?$PxReflectionAllocator@UExpandPoint@local@@@physx@@@physx@@IEAAPEAUExpandPoint@local@@I@Z 000000018019cfc0 f i GuCookingQuickHullConvexHullLib.obj
 0001:0019c070       ?allocate@?$PxArray@VPxPlane@physx@@V?$PxReflectionAllocator@VPxPlane@physx@@@2@@physx@@IEAAPEAVPxPlane@2@I@Z 000000018019d070 f i GuCookingQuickHullConvexHullLib.obj
 0001:0019c120       ?buildHull@QuickHull@local@@QEAA?AW4Enum@QuickHullResult@2@XZ 000000018019d120 f   GuCookingQuickHullConvexHullLib.obj
 0001:0019c370       ?calculateHorizon@QuickHull@local@@IEAAXAEBV?$PxVec3T@M@physx@@PEAUQuickHullHalfEdge@2@AEAUQuickHullFace@2@AEAV?$PxArray@PEAUQuickHullHalfEdge@local@@V?$PxReflectionAllocator@PEAUQuickHullHalfEdge@local@@@physx@@@4@AEAV?$PxArray@PEAUQuickHullFace@local@@V?$PxReflectionAllocator@PEAUQuickHullFace@local@@@physx@@@4@@Z 000000018019d370 f   GuCookingQuickHullConvexHullLib.obj
 0001:0019c520       ?canMergeFaces@QuickHull@local@@IEAA_NAEBUQuickHullHalfEdge@2@@Z 000000018019d520 f   GuCookingQuickHullConvexHullLib.obj
 0001:0019cd50       ?cleanupForSimplex@QuickHullConvexHullLib@physx@@IEAA_NPEAV?$PxVec3T@M@2@IPEAUQuickHullVertex@local@@1AEAM2@Z 000000018019dd50 f   GuCookingQuickHullConvexHullLib.obj
 0001:0019d940       ?computeMinMaxVerts@QuickHull@local@@IEAAXXZ 000000018019e940 f   GuCookingQuickHullConvexHullLib.obj
 0001:0019dd10       ?connectHalfEdges@QuickHullFace@local@@AEAAPEAU12@PEAUQuickHullHalfEdge@2@0@Z 000000018019ed10 f   GuCookingQuickHullConvexHullLib.obj
 0001:0019e070       ?copy@?$PxArray@UExpandPoint@local@@V?$PxReflectionAllocator@UExpandPoint@local@@@physx@@@physx@@KAXPEAUExpandPoint@local@@0PEBU34@@Z 000000018019f070 f i GuCookingQuickHullConvexHullLib.obj
 0001:0019e120       ?copy@?$PxArray@VPxPlane@physx@@V?$PxReflectionAllocator@VPxPlane@physx@@@2@@physx@@KAXPEAVPxPlane@2@0PEBV32@@Z 000000018019f120 f i GuCookingQuickHullConvexHullLib.obj
 0001:0019e220       ?createConvexHull@QuickHullConvexHullLib@physx@@UEAA?AW4Enum@PxConvexMeshCookingResult@2@XZ 000000018019f220 f   GuCookingQuickHullConvexHullLib.obj
 0001:0019e600       ?createEdgeList@QuickHullConvexHullLib@physx@@UEAA_NIPEBEPEAPEAEPEAPEAG2@Z 000000018019f600 f   GuCookingQuickHullConvexHullLib.obj
 0001:0019e810       ?createTriangle@QuickHull@local@@IEAAPEAUQuickHullFace@2@AEBUQuickHullVertex@2@00@Z 000000018019f810 f   GuCookingQuickHullConvexHullLib.obj
 0001:0019eba0       ?doAdjacentMerge@QuickHull@local@@IEAA_NAEAUQuickHullFace@2@_NAEA_N@Z 000000018019fba0 f   GuCookingQuickHullConvexHullLib.obj
 0001:0019eee0       ?expandHull@QuickHullConvexHullLib@physx@@IEAA?AW4Enum@PxConvexMeshCookingResult@2@XZ 000000018019fee0 f   GuCookingQuickHullConvexHullLib.obj
 0001:0019fc10       ?expandHullOBB@QuickHullConvexHullLib@physx@@IEAA?AW4Enum@PxConvexMeshCookingResult@2@XZ 00000001801a0c10 f   GuCookingQuickHullConvexHullLib.obj
 0001:001a0060       ?fillConvexMeshDesc@QuickHullConvexHullLib@physx@@UEAAXAEAVPxConvexMeshDesc@2@@Z 00000001801a1060 f   GuCookingQuickHullConvexHullLib.obj
 0001:001a00b0       ?fillConvexMeshDescFromCroppedHull@QuickHullConvexHullLib@physx@@IEAAXAEAVPxConvexMeshDesc@2@@Z 00000001801a10b0 f   GuCookingQuickHullConvexHullLib.obj
 0001:001a02b0       ?fillConvexMeshDescFromQuickHull@QuickHullConvexHullLib@physx@@IEAAXAEAVPxConvexMeshDesc@2@@Z 00000001801a12b0 f   GuCookingQuickHullConvexHullLib.obj
 0001:001a0640       ?findSimplex@QuickHull@local@@IEAA_NXZ 00000001801a1640 f   GuCookingQuickHullConvexHullLib.obj
 0001:001a12f0       ?getFreeItem@?$MemBlock@UQuickHullFace@local@@$00@local@@QEAAPEAUQuickHullFace@2@XZ 00000001801a22f0 f i GuCookingQuickHullConvexHullLib.obj
 0001:001a1420       ?getFreeItem@?$MemBlock@UQuickHullHalfEdge@local@@$0A@@local@@QEAAPEAUQuickHullHalfEdge@2@XZ 00000001801a2420 f i GuCookingQuickHullConvexHullLib.obj
 0001:001a14f0       ?growAndPushBack@?$PxArray@PEAUQuickHullFace@local@@V?$PxReflectionAllocator@PEAUQuickHullFace@local@@@physx@@@physx@@IEAAAEAPEAUQuickHullFace@local@@AEBQEAU34@@Z 00000001801a24f0 f i GuCookingQuickHullConvexHullLib.obj
 0001:001a15b0       ?growAndPushBack@?$PxArray@PEAUQuickHullHalfEdge@local@@V?$PxReflectionAllocator@PEAUQuickHullHalfEdge@local@@@physx@@@physx@@IEAAAEAPEAUQuickHullHalfEdge@local@@AEBQEAU34@@Z 00000001801a25b0 f i GuCookingQuickHullConvexHullLib.obj
 0001:001a1670       ?growAndPushBack@?$PxArray@PEAUQuickHullVertex@local@@V?$PxReflectionAllocator@PEAUQuickHullVertex@local@@@physx@@@physx@@IEAAAEAPEAUQuickHullVertex@local@@AEBQEAU34@@Z 00000001801a2670 f i GuCookingQuickHullConvexHullLib.obj
 0001:001a1730       ?growAndPushBack@?$PxArray@UExpandPoint@local@@V?$PxReflectionAllocator@UExpandPoint@local@@@physx@@@physx@@IEAAAEAUExpandPoint@local@@AEBU34@@Z 00000001801a2730 f i GuCookingQuickHullConvexHullLib.obj
 0001:001a1830       ?growAndPushBack@?$PxArray@VPxPlane@physx@@V?$PxReflectionAllocator@VPxPlane@physx@@@2@@physx@@IEAAAEAVPxPlane@2@AEBV32@@Z 00000001801a2830 f i GuCookingQuickHullConvexHullLib.obj
 0001:001a18f0       ?init@?$MemBlock@UQuickHullFace@local@@$00@local@@QEAAXI@Z 00000001801a28f0 f i GuCookingQuickHullConvexHullLib.obj
 0001:001a19f0       ?init@?$MemBlock@UQuickHullHalfEdge@local@@$0A@@local@@QEAAXI@Z 00000001801a29f0 f i GuCookingQuickHullConvexHullLib.obj
 0001:001a1a80       ?mergeAdjacentFace@QuickHullFace@local@@QEAA_NPEAUQuickHullHalfEdge@2@AEAV?$PxArray@PEAUQuickHullFace@local@@V?$PxReflectionAllocator@PEAUQuickHullFace@local@@@physx@@@physx@@@Z 00000001801a2a80 f   GuCookingQuickHullConvexHullLib.obj
 0001:001a1ed0       ?nextPointToAdd@QuickHull@local@@IEAAPEAUQuickHullVertex@2@AEAPEAUQuickHullFace@2@@Z 00000001801a2ed0 f   GuCookingQuickHullConvexHullLib.obj
 0001:001a2050       ?parseInputVertices@QuickHull@local@@QEAAXPEBV?$PxVec3T@M@physx@@I@Z 00000001801a3050 f   GuCookingQuickHullConvexHullLib.obj
 0001:001a21e0       ?postMergeHull@QuickHull@local@@IEAAXXZ 00000001801a31e0 f   GuCookingQuickHullConvexHullLib.obj
 0001:001a2430       ?preallocate@QuickHull@local@@QEAAXI@Z 00000001801a3430 f   GuCookingQuickHullConvexHullLib.obj
 0001:001a2570       ?recreate@?$PxArray@PEAUQuickHullFace@local@@V?$PxReflectionAllocator@PEAUQuickHullFace@local@@@physx@@@physx@@IEAAXI@Z 00000001801a3570 f i GuCookingQuickHullConvexHullLib.obj
 0001:001a2610       ?recreate@?$PxArray@PEAUQuickHullHalfEdge@local@@V?$PxReflectionAllocator@PEAUQuickHullHalfEdge@local@@@physx@@@physx@@IEAAXI@Z 00000001801a3610 f i GuCookingQuickHullConvexHullLib.obj
 0001:001a26b0       ?recreate@?$PxArray@PEAUQuickHullVertex@local@@V?$PxReflectionAllocator@PEAUQuickHullVertex@local@@@physx@@@physx@@IEAAXI@Z 00000001801a36b0 f i GuCookingQuickHullConvexHullLib.obj
 0001:001a2750       ?recreate@?$PxArray@UExpandPoint@local@@V?$PxReflectionAllocator@UExpandPoint@local@@@physx@@@physx@@IEAAXI@Z 00000001801a3750 f i GuCookingQuickHullConvexHullLib.obj
 0001:001a27e0       ?recreate@?$PxArray@VPxPlane@physx@@V?$PxReflectionAllocator@VPxPlane@physx@@@2@@physx@@IEAAXI@Z 00000001801a37e0 f i GuCookingQuickHullConvexHullLib.obj
 0001:001a2870       ?resolveUnclaimedPoints@QuickHull@local@@IEAAXAEBV?$PxArray@PEAUQuickHullFace@local@@V?$PxReflectionAllocator@PEAUQuickHullFace@local@@@physx@@@physx@@@Z 00000001801a3870 f   GuCookingQuickHullConvexHullLib.obj
 0001:001a2af0       ??$copy@V?$PxReflectionAllocator@VPair@@@physx@@@?$PxArray@VPair@@V?$PxReflectionAllocator@VPair@@@physx@@@physx@@IEAAXAEBV01@@Z 00000001801a3af0 f i GuCookingConvexPolygonsBuilder.obj
 0001:001a2b70       ??0ConvexPolygonsBuilder@physx@@QEAA@PEAUConvexHullData@Gu@1@_N@Z 00000001801a3b70 f   GuCookingConvexPolygonsBuilder.obj
 0001:001a2b90       ??1ConvexPolygonsBuilder@physx@@QEAA@XZ 00000001801a3b90 f   GuCookingConvexPolygonsBuilder.obj
 0001:001a33e0       ?allocate@?$PxArray@VPair@@V?$PxReflectionAllocator@VPair@@@physx@@@physx@@IEAAPEAVPair@@I@Z 00000001801a43e0 f i GuCookingConvexPolygonsBuilder.obj
 0001:001a3ec0       ?computeHullPolygons@ConvexPolygonsBuilder@physx@@QEAA_NAEBIPEBV?$PxVec3T@M@2@0PEBI@Z 00000001801a4ec0 f   GuCookingConvexPolygonsBuilder.obj
 0001:001a4f20       ?createPolygonData@ConvexPolygonsBuilder@physx@@AEAA_NXZ 00000001801a5f20 f   GuCookingConvexPolygonsBuilder.obj
 0001:001a5b00       ?createTrianglesFromPolygons@ConvexPolygonsBuilder@physx@@AEAA_NXZ 00000001801a6b00 f   GuCookingConvexPolygonsBuilder.obj
 0001:001a7190       ?growAndPushBack@?$PxArray@VPair@@V?$PxReflectionAllocator@VPair@@@physx@@@physx@@IEAAAEAVPair@@AEBV3@@Z 00000001801a8190 f i GuCookingConvexPolygonsBuilder.obj
 0001:001a7310       ??0ConvexMeshBuilder@physx@@QEAA@_N@Z 00000001801a8310 f   GuCookingConvexMeshBuilder.obj
 0001:001a7380       ??1ConvexMeshBuilder@physx@@QEAA@XZ 00000001801a8380 f   GuCookingConvexMeshBuilder.obj
 0001:001a7810       ?build@ConvexMeshBuilder@physx@@QEAA_NAEBVPxConvexMeshDesc@2@I_NPEAVConvexHullLib@2@@Z 00000001801a8810 f   GuCookingConvexMeshBuilder.obj
 0001:001a7b90       ?computeHullPolygons@ConvexMeshBuilder@physx@@QEAA_NAEBIPEBV?$PxVec3T@M@2@0PEBIAEAVPxAllocatorCallback@2@AEAIAEAPEAV32@4AEAPEAI4AEAPEAUPxHullPolygon@2@@Z 00000001801a8b90 f   GuCookingConvexMeshBuilder.obj
 0001:001a7d90       ?computeMassInfo@ConvexMeshBuilder@physx@@QEAAX_N@Z 00000001801a8d90 f   GuCookingConvexMeshBuilder.obj
 0001:001a8120       ?computeSDF@ConvexMeshBuilder@physx@@QEAAXAEBVPxConvexMeshDesc@2@@Z 00000001801a9120 f   GuCookingConvexMeshBuilder.obj
 0001:001a8540       ?copy@ConvexMeshBuilder@physx@@QEAA_NAEAUConvexHullInitData@Gu@2@@Z 00000001801a9540 f   GuCookingConvexMeshBuilder.obj
 0001:001a86a0       ?loadConvexHull@ConvexMeshBuilder@physx@@QEAA_NAEBVPxConvexMeshDesc@2@PEAVConvexHullLib@2@@Z 00000001801a96a0 f   GuCookingConvexMeshBuilder.obj
 0001:001a8910       ?save@ConvexMeshBuilder@physx@@QEBA_NAEAVPxOutputStream@2@_N@Z 00000001801a9910 f   GuCookingConvexMeshBuilder.obj
 0001:001a8d30       ??0ConvexHull@physx@@QEAA@AEBV?$PxVec3T@M@1@AEBV?$PxTransformT@M@1@AEBV?$PxArray@VPxPlane@physx@@V?$PxReflectionAllocator@VPxPlane@physx@@@2@@1@@Z 00000001801a9d30 f   GuCookingConvexHullUtils.obj
 0001:001a9e50       ?allocate@?$PxArray@VHalfEdge@ConvexHull@physx@@V?$PxReflectionAllocator@VHalfEdge@ConvexHull@physx@@@3@@physx@@IEAAPEAVHalfEdge@ConvexHull@2@I@Z 00000001801aae50 f i GuCookingConvexHullUtils.obj
 0001:001a9f00       ?assertIntact@ConvexHull@physx@@QEBA_NM@Z 00000001801aaf00 f   GuCookingConvexHullUtils.obj
 0001:001aa210       ?computeOBBFromConvex@physx@@YA_NAEBVPxConvexMeshDesc@1@AEAV?$PxVec3T@M@1@AEAV?$PxTransformT@M@1@@Z 00000001801ab210 f   GuCookingConvexHullUtils.obj
 0001:001aa880       ?computeOBBSIMD@local@@YAXIPEBT__m128@@AEAT2@AEBT2@1@Z 00000001801ab880 f   GuCookingConvexHullUtils.obj
 0001:001aac60       ?convexHullCrop@physx@@YAPEAVConvexHull@1@AEBV21@AEBVPxPlane@1@M@Z 00000001801abc60 f   GuCookingConvexHullUtils.obj
 0001:001aba40       ?findCandidatePlane@ConvexHull@physx@@QEBAHMM@Z 00000001801aca40 f   GuCookingConvexHullUtils.obj
 0001:001abeb0       ?growAndPushBack@?$PxArray@VHalfEdge@ConvexHull@physx@@V?$PxReflectionAllocator@VHalfEdge@ConvexHull@physx@@@3@@physx@@IEAAAEAVHalfEdge@ConvexHull@2@AEBV342@@Z 00000001801aceb0 f i GuCookingConvexHullUtils.obj
 0001:001abf70       ?maxNumVertsPerFace@ConvexHull@physx@@QEBAIXZ 00000001801acf70 f   GuCookingConvexHullUtils.obj
 0001:001abfe0       ?recreate@?$PxArray@VHalfEdge@ConvexHull@physx@@V?$PxReflectionAllocator@VHalfEdge@ConvexHull@physx@@@3@@physx@@IEAAXI@Z 00000001801acfe0 f i GuCookingConvexHullUtils.obj
 0001:001ac080       ?resize@?$PxArray@VHalfEdge@ConvexHull@physx@@V?$PxReflectionAllocator@VHalfEdge@ConvexHull@physx@@@3@@physx@@QEAAXIAEBVHalfEdge@ConvexHull@2@@Z 00000001801ad080 f i GuCookingConvexHullUtils.obj
 0001:001ac140       ?resize@?$PxArray@VPxPlane@physx@@V?$PxReflectionAllocator@VPxPlane@physx@@@2@@physx@@QEAAXIAEBVPxPlane@2@@Z 00000001801ad140 f i GuCookingConvexHullUtils.obj
 0001:001ac260       ??1ConvexHullLib@physx@@UEAA@XZ 00000001801ad260 f   GuCookingConvexHullLib.obj
 0001:001ac880       ?cleanupVertices@ConvexHullLib@physx@@IEAA_NIPEBV?$PxVec3T@M@2@IAEAIPEAV32@@Z 00000001801ad880 f   GuCookingConvexHullLib.obj
 0001:001ac9c0       ?shiftAndcleanupVertices@ConvexHullLib@physx@@IEAA_NIPEBV?$PxVec3T@M@2@IAEAIPEAV32@@Z 00000001801ad9c0 f   GuCookingConvexHullLib.obj
 0001:001acfa0       ?shiftConvexMeshDesc@ConvexHullLib@physx@@IEAAXAEAVPxConvexMeshDesc@2@@Z 00000001801adfa0 f   GuCookingConvexHullLib.obj
 0001:001ad060       ?swapLargestFace@ConvexHullLib@physx@@IEAAXAEAVPxConvexMeshDesc@2@@Z 00000001801ae060 f   GuCookingConvexHullLib.obj
 0001:001ad290       ??0ConvexHullBuilder@physx@@QEAA@PEAUConvexHullData@Gu@1@_N@Z 00000001801ae290 f   GuCookingConvexHullBuilder.obj
 0001:001ad2c0       ??1ConvexHullBuilder@physx@@QEAA@XZ 00000001801ae2c0 f   GuCookingConvexHullBuilder.obj
 0001:001ad3d0       ?calculateVertexMapTable@ConvexHullBuilder@physx@@QEAA_NI_N@Z 00000001801ae3d0 f   GuCookingConvexHullBuilder.obj
 0001:001ad590       ?checkHullPolygons@ConvexHullBuilder@physx@@QEBA_NXZ 00000001801ae590 f   GuCookingConvexHullBuilder.obj
 0001:001adb20       ?copy@ConvexHullBuilder@physx@@QEAA_NAEAUConvexHullData@Gu@2@AEAI@Z 00000001801aeb20 f   GuCookingConvexHullBuilder.obj
 0001:001adda0       ?createEdgeList@ConvexHullBuilder@physx@@QEAA_N_NI@Z 00000001801aeda0 f   GuCookingConvexHullBuilder.obj
 0001:001ae4f0       ?init@ConvexHullBuilder@physx@@QEAA_NIPEBV?$PxVec3T@M@2@PEBIIIPEBUPxHullPolygon@2@_NPEAVConvexHullLib@2@@Z 00000001801af4f0 f   GuCookingConvexHullBuilder.obj
 0001:001aee10       ?save@ConvexHullBuilder@physx@@QEBA_NAEAVPxOutputStream@2@_N@Z 00000001801afe10 f   GuCookingConvexHullBuilder.obj
 0001:001af130       ??0BigConvexDataBuilder@physx@@QEAA@PEBUConvexHullData@Gu@1@PEAVBigConvexData@1@PEBV?$PxVec3T@M@1@@Z 00000001801b0130 f   GuCookingBigConvexDataBuilder.obj
 0001:001af140       ?computeValencies@BigConvexDataBuilder@physx@@QEAA_NAEBVConvexHullBuilder@2@@Z 00000001801b0140 f   GuCookingBigConvexDataBuilder.obj
 0001:001af530       ?precompute@BigConvexDataBuilder@physx@@QEAA_NI@Z 00000001801b0530 f   GuCookingBigConvexDataBuilder.obj
 0001:001b0130       ?save@BigConvexDataBuilder@physx@@QEBA_NAEAVPxOutputStream@2@_N@Z 00000001801b1130 f   GuCookingBigConvexDataBuilder.obj
 0001:001b031f       __imp_load_PxGetFoundation 00000001801b131f f   PhysXFoundation_64:PhysXFoundation_64.dll
 0001:001b032b       __tailMerge_physxfoundation_64_dll 00000001801b132b     PhysXFoundation_64:PhysXFoundation_64.dll
 0001:001b03a4       __imp_load_PxGetBroadcastAllocator 00000001801b13a4 f   PhysXFoundation_64:PhysXFoundation_64.dll
 0001:001b03b0       __imp_load_?PxAtomicIncrement@physx@@YAHPECH@Z 00000001801b13b0 f   PhysXFoundation_64:PhysXFoundation_64.dll
 0001:001b03bc       __imp_load_??0PxMutexImpl@physx@@QEAA@XZ 00000001801b13bc f   PhysXFoundation_64:PhysXFoundation_64.dll
 0001:001b03c8       __imp_load_??1PxMutexImpl@physx@@QEAA@XZ 00000001801b13c8 f   PhysXFoundation_64:PhysXFoundation_64.dll
 0001:001b03d4       __imp_load_?lock@PxMutexImpl@physx@@QEAAXXZ 00000001801b13d4 f   PhysXFoundation_64:PhysXFoundation_64.dll
 0001:001b03e0       __imp_load_?unlock@PxMutexImpl@physx@@QEAAXXZ 00000001801b13e0 f   PhysXFoundation_64:PhysXFoundation_64.dll
 0001:001b03ec       __imp_load_?getSize@PxMutexImpl@physx@@SAIXZ 00000001801b13ec f   PhysXFoundation_64:PhysXFoundation_64.dll
 0001:001b03f8       __imp_load_?PxAtomicDecrement@physx@@YAHPECH@Z 00000001801b13f8 f   PhysXFoundation_64:PhysXFoundation_64.dll
 0001:001b0404       __imp_load_?PxTransformFromSegment@physx@@YA?AV?$PxTransformT@M@1@AEBV?$PxVec3T@M@1@0PEAM@Z 00000001801b1404 f   PhysXFoundation_64:PhysXFoundation_64.dll
 0001:001b0410       __imp_load_?PxAtomicAdd@physx@@YAHPECHH@Z 00000001801b1410 f   PhysXFoundation_64:PhysXFoundation_64.dll
 0001:001b041c       __imp_load_?getDefaultStackSize@PxThreadImpl@physx@@SAIXZ 00000001801b141c f   PhysXFoundation_64:PhysXFoundation_64.dll
 0001:001b0428       __imp_load_??0PxThreadImpl@physx@@QEAA@P6APEAXPEAX@Z0PEBD@Z 00000001801b1428 f   PhysXFoundation_64:PhysXFoundation_64.dll
 0001:001b0434       __imp_load_??1PxThreadImpl@physx@@QEAA@XZ 00000001801b1434 f   PhysXFoundation_64:PhysXFoundation_64.dll
 0001:001b0440       __imp_load_?start@PxThreadImpl@physx@@QEAAXIPEAVPxRunnable@2@@Z 00000001801b1440 f   PhysXFoundation_64:PhysXFoundation_64.dll
 0001:001b044c       __imp_load_?waitForQuit@PxThreadImpl@physx@@QEAA_NXZ 00000001801b144c f   PhysXFoundation_64:PhysXFoundation_64.dll
 0001:001b0458       __imp_load_?getSize@PxThreadImpl@physx@@SAIXZ 00000001801b1458 f   PhysXFoundation_64:PhysXFoundation_64.dll
 0001:001b0464       __imp_load_?PxOptimizeBoundingBox@physx@@YA?AV?$PxVec3T@M@1@AEAV?$PxMat33T@M@1@@Z 00000001801b1464 f   PhysXFoundation_64:PhysXFoundation_64.dll
 0001:001b0470       __imp_load_?allocate@PxTempAllocator@physx@@QEAAPEAX_KPEBDH@Z 00000001801b1470 f   PhysXFoundation_64:PhysXFoundation_64.dll
 0001:001b047c       __imp_load_?deallocate@PxTempAllocator@physx@@QEAAXPEAX@Z 00000001801b147c f   PhysXFoundation_64:PhysXFoundation_64.dll
 0001:001b0488       __imp_load_PxGetProfilerCallback 00000001801b1488 f   PhysXFoundation_64:PhysXFoundation_64.dll
 0001:001b0494       __imp_load_??0PxFPUGuard@physx@@QEAA@XZ 00000001801b1494 f   PhysXFoundation_64:PhysXFoundation_64.dll
 0001:001b04a0       __imp_load_??1PxFPUGuard@physx@@QEAA@XZ 00000001801b14a0 f   PhysXFoundation_64:PhysXFoundation_64.dll
 0001:001b04ac       __imp_load_?PxDiagonalize@physx@@YA?AV?$PxVec3T@M@1@AEBV?$PxMat33T@M@1@AEAV?$PxQuatT@M@1@@Z 00000001801b14ac f   PhysXFoundation_64:PhysXFoundation_64.dll
 0001:001b04b8       ?DloadAcquireSectionWriteAccess@@YAXXZ 00000001801b14b8 f i Delayimp:delayhlp.obj
 0001:001b0564       ?DloadGetSRWLockFunctionPointers@@YAEXZ 00000001801b1564 f i Delayimp:delayhlp.obj
 0001:001b0600       ?DloadMakePermanentImageCommit@@YAXPEAX_K@Z 00000001801b1600 f i Delayimp:delayhlp.obj
 0001:001b0698       ?DloadObtainSection@@YAPEAXPEAK0@Z 00000001801b1698 f i Delayimp:delayhlp.obj
 0001:001b0734       ?DloadProtectSection@@YAXKPEAK@Z 00000001801b1734 f i Delayimp:delayhlp.obj
 0001:001b07c4       ?DloadReleaseSectionWriteAccess@@YAXXZ 00000001801b17c4 f i Delayimp:delayhlp.obj
 0001:001b0858       __delayLoadHelper2         00000001801b1858 f   Delayimp:delayhlp.obj
 0001:001b0b2c       ??_V@YAXPEAX@Z             00000001801b1b2c f   LIBCMT:delete_array.obj
 0001:001b0b2c       ??3@YAXPEAX_K@Z            00000001801b1b2c f   LIBCMT:delete_scalar_size.obj
 0001:001b0b34       ??_Etype_info@@UEAAPEAXI@Z 00000001801b1b34 f i LIBCMT:std_type_info_static.obj
 0001:001b0b34       ??_Gtype_info@@UEAAPEAXI@Z 00000001801b1b34 f i LIBCMT:std_type_info_static.obj
 0001:001b0b60       ?__scrt_initialize_type_info@@YAXXZ 00000001801b1b60 f   LIBCMT:tncleanup.obj
 0001:001b0b70       ?__scrt_uninitialize_type_info@@YAXXZ 00000001801b1b70 f   LIBCMT:tncleanup.obj
 0001:001b0b90       _alloca_probe              00000001801b1b90 f   LIBCMT:chkstk.obj
 0001:001b0b90       __chkstk                   00000001801b1b90 f   LIBCMT:chkstk.obj
 0001:001b0be0       __vdecl_sinf4              00000001801b1be0 f   LIBCMT:svml_ssinf4_dispatch.obj
 0001:001b0c00       __libm_sse2_sincosf_       00000001801b1c00 f   LIBCMT:svml_ssinf4_dispatch.obj
 0001:001b0c43       __libm_sse2_sincosf4_      00000001801b1c43 f   LIBCMT:svml_ssinf4_dispatch.obj
 0001:001b0c50       ??3@YAXPEAX@Z              00000001801b1c50 f   LIBCMT:delete_scalar.obj
 0001:001b0c58       __scrt_acquire_startup_lock 00000001801b1c58 f   LIBCMT:utility.obj
 0001:001b0c94       __scrt_dllmain_after_initialize_c 00000001801b1c94 f   LIBCMT:utility.obj
 0001:001b0cc8       __scrt_dllmain_before_initialize_c 00000001801b1cc8 f   LIBCMT:utility.obj
 0001:001b0ce0       __scrt_dllmain_crt_thread_attach 00000001801b1ce0 f   LIBCMT:utility.obj
 0001:001b0d08       __scrt_dllmain_crt_thread_detach 00000001801b1d08 f   LIBCMT:utility.obj
 0001:001b0d20       __scrt_dllmain_exception_filter 00000001801b1d20 f   LIBCMT:utility.obj
 0001:001b0d80       __scrt_dllmain_uninitialize_c 00000001801b1d80 f   LIBCMT:utility.obj
 0001:001b0db0       __scrt_dllmain_uninitialize_critical 00000001801b1db0 f   LIBCMT:utility.obj
 0001:001b0dc4       __scrt_initialize_crt      00000001801b1dc4 f   LIBCMT:utility.obj
 0001:001b0e10       __scrt_initialize_onexit_tables 00000001801b1e10 f   LIBCMT:utility.obj
 0001:001b0e9c       __scrt_is_nonwritable_in_current_image 00000001801b1e9c f   LIBCMT:utility.obj
 0001:001b0f34       __scrt_release_startup_lock 00000001801b1f34 f   LIBCMT:utility.obj
 0001:001b0f58       __scrt_uninitialize_crt    00000001801b1f58 f   LIBCMT:utility.obj
 0001:001b0f84       _onexit                    00000001801b1f84 f   LIBCMT:utility.obj
 0001:001b0fc0       atexit                     00000001801b1fc0 f   LIBCMT:utility.obj
 0001:001b12f8       _DllMainCRTStartup         00000001801b22f8 f   LIBCMT:dll_dllmain.obj
 0001:001b1338       __isa_available_init       00000001801b2338 f   LIBCMT:cpu_disp.obj
 0001:001b14e0       __sse2_sinf4@@16           00000001801b24e0 f   LIBCMT:svml_ssinf4_sse2.obj
 0001:001b1e20       __sse4_sinf4@@16           00000001801b2e20 f   LIBCMT:svml_ssinf4_sse4.obj
 0001:001b2594       __scrt_is_ucrt_dll_in_use  00000001801b3594 f   LIBCMT:ucrt_detection.obj
 0001:001b25a0       __crt_debugger_hook        00000001801b35a0 f   LIBCMT:utility_desktop.obj
 0001:001b25a8       __scrt_fastfail            00000001801b35a8 f   LIBCMT:utility_desktop.obj
 0001:001b26f4       __security_init_cookie     00000001801b36f4 f   LIBCMT:gs_support.obj
 0001:001b27a0       __local_stdio_scanf_options 00000001801b37a0 f i LIBCMT:default_local_stdio_options.obj
 0001:001b27a8       __scrt_initialize_default_local_stdio_options 00000001801b37a8 f   LIBCMT:default_local_stdio_options.obj
 0001:001b27c4       __scrt_get_dyn_tls_init_callback 00000001801b37c4 f   LIBCMT:dyn_tls_init.obj
 0001:001b27cc       _RTC_Initialize            00000001801b37cc f   LIBCMT:initsect.obj
 0001:001b2808       _RTC_Terminate             00000001801b3808 f   LIBCMT:initsect.obj
 0001:001b2850       __common_ssin_cout_rare    00000001801b3850 f   LIBCMT:svml_s_sin_cout.obj
 0001:001b28d0       memcpy_repmovs             00000001801b38d0 f   libvcruntime:memcpy.obj
 0001:001b28f0       memmove                    00000001801b38f0 f   libvcruntime:memcpy.obj
 0001:001b28f0       memcpy                     00000001801b38f0 f   libvcruntime:memcpy.obj
 0001:001b2f68       _get_purecall_handler      00000001801b3f68 f   libvcruntime:purevirt.obj
 0001:001b2f74       _purecall                  00000001801b3f74 f   libvcruntime:purevirt.obj
 0001:001b2f98       __std_type_info_compare    00000001801b3f98 f   libvcruntime:std_type_info.obj
 0001:001b2fc0       __std_type_info_destroy_list 00000001801b3fc0 f   libvcruntime:std_type_info.obj
 0001:001b2fec       __std_type_info_name       00000001801b3fec f   libvcruntime:std_type_info.obj
 0001:001b3120       memset_repmovs             00000001801b4120 f   libvcruntime:memset.obj
 0001:001b3140       memset                     00000001801b4140 f   libvcruntime:memset.obj
 0001:001b32d0       strstr                     00000001801b42d0 f   libvcruntime:strstr.obj
 0001:001b34cc       __vcrt_initialize          00000001801b44cc f   libvcruntime:initialization.obj
 0001:001b34f4       __vcrt_thread_attach       00000001801b44f4 f   libvcruntime:initialization.obj
 0001:001b3508       __vcrt_thread_detach       00000001801b4508 f   libvcruntime:initialization.obj
 0001:001b351c       __vcrt_uninitialize        00000001801b451c f   libvcruntime:initialization.obj
 0001:001b3538       __vcrt_uninitialize_critical 00000001801b4538 f   libvcruntime:initialization.obj
 0001:001b3548       __C_specific_handler       00000001801b4548 f   libvcruntime:riscchandler.obj
 0001:001b3754       __DestructExceptionObject  00000001801b4754 f   libvcruntime:ehhelpers.obj
 0001:001b37c4       ?_CallMemberFunction0@@YAXQEAX0@Z 00000001801b47c4 f i libvcruntime:ehhelpers.obj
 0001:001b37c8       _IsExceptionObjectToBeDestroyed 00000001801b47c8 f   libvcruntime:ehhelpers.obj
 0001:001b37f8       __AdjustPointer            00000001801b47f8 f   libvcruntime:ehhelpers.obj
 0001:001b381c       __FrameUnwindFilter        00000001801b481c f   libvcruntime:ehhelpers.obj
 0001:001b3884       __std_terminate            00000001801b4884 f   libvcruntime:ehhelpers.obj
 0001:001b3890       ??$?0$00@DName@@QEAA@PEBDU?$StringLifeSelector@$00@@@Z 00000001801b4890 f i libvcruntime:undname.obj
 0001:001b38d0       ??$?0$01@DName@@QEAA@PEBDU?$StringLifeSelector@$01@@@Z 00000001801b48d0 f i libvcruntime:undname.obj
 0001:001b38d0       ??$?0$0A@@DName@@QEAA@PEBDU?$StringLifeSelector@$0A@@@@Z 00000001801b48d0 f i libvcruntime:undname.obj
 0001:001b3910       ??$?0$01@pcharNode@@QEAA@PEBDHU?$StringLifeSelector@$01@@@Z 00000001801b4910 f i libvcruntime:undname.obj
 0001:001b3910       ??$?0$0A@@pcharNode@@QEAA@PEBDHU?$StringLifeSelector@$0A@@@@Z 00000001801b4910 f i libvcruntime:undname.obj
 0001:001b3984       ??$append@VDNameStatusNode@@@DName@@AEAAXPEBVDNameStatusNode@@@Z 00000001801b4984 f i libvcruntime:undname.obj
 0001:001b3984       ??$append@VDNameNode@@@DName@@AEAAXPEBVDNameNode@@@Z 00000001801b4984 f i libvcruntime:undname.obj
 0001:001b3984       ??$append@VcharNode@@@DName@@AEAAXPEBVcharNode@@@Z 00000001801b4984 f i libvcruntime:undname.obj
 0001:001b3984       ??$append@VpcharNode@@@DName@@AEAAXPEBVpcharNode@@@Z 00000001801b4984 f i libvcruntime:undname.obj
 0001:001b39e8       ??$doPchar@$00@DName@@AEAAXPEBDH@Z 00000001801b49e8 f i libvcruntime:undname.obj
 0001:001b3a8c       ??$doPchar@$01@DName@@AEAAXPEBDH@Z 00000001801b4a8c f i libvcruntime:undname.obj
 0001:001b3a8c       ??$doPchar@$0A@@DName@@AEAAXPEBDH@Z 00000001801b4a8c f i libvcruntime:undname.obj
 0001:001b3b24       ??0DName@@QEAA@AEAPEBDD@Z  00000001801b4b24 f   libvcruntime:undname.obj
 0001:001b3bd4       ??0DName@@QEAA@AEBUStringLiteral@@@Z 00000001801b4bd4 f   libvcruntime:undname.obj
 0001:001b3c00       ??0DName@@QEAA@PEAV0@@Z    00000001801b4c00 f   libvcruntime:undname.obj
 0001:001b3c84       ??0DName@@QEAA@_J@Z        00000001801b4c84 f   libvcruntime:undname.obj
 0001:001b3d2c       ??0DName@@QEAA@_K@Z        00000001801b4d2c f   libvcruntime:undname.obj
 0001:001b3dbc       ??2@YAPEAX_KAEAV_HeapManager@@H@Z 00000001801b4dbc f   libvcruntime:undname.obj
 0001:001b3de8       ??AReplicator@@QEBA?AVDName@@H@Z 00000001801b4de8 f   libvcruntime:undname.obj
 0001:001b3e28       ??HDName@@QEBA?AV0@AEBUStringLiteral@@@Z 00000001801b4e28 f   libvcruntime:undname.obj
 0001:001b3e54       ??HDName@@QEBA?AV0@AEBV0@@Z 00000001801b4e54 f   libvcruntime:undname.obj
 0001:001b3e80       ??HDName@@QEBA?AV0@D@Z     00000001801b4e80 f   libvcruntime:undname.obj
 0001:001b3eac       ??HDName@@QEBA?AV0@W4DNameStatus@@@Z 00000001801b4eac f   libvcruntime:undname.obj
 0001:001b3ed8       ??YDName@@QEAAAEAV0@AEBUStringLiteral@@@Z 00000001801b4ed8 f   libvcruntime:undname.obj
 0001:001b3f58       ??YDName@@QEAAAEAV0@AEBV0@@Z 00000001801b4f58 f   libvcruntime:undname.obj
 0001:001b400c       ??YDName@@QEAAAEAV0@D@Z    00000001801b500c f   libvcruntime:undname.obj
 0001:001b4078       ??YDName@@QEAAAEAV0@W4DNameStatus@@@Z 00000001801b5078 f   libvcruntime:undname.obj
 0001:001b40e4       ??YReplicator@@QEAAAEAV0@AEBVDName@@@Z 00000001801b50e4 f   libvcruntime:undname.obj
 0001:001b413c       ?UScore@UnDecorator@@SA?AUStringLiteral@@W4Tokens@@@Z 00000001801b513c f   libvcruntime:undname.obj
 0001:001b4188       ?composeDeclaration@UnDecorator@@CA?AVDName@@AEBV2@@Z 00000001801b5188 f i libvcruntime:undname.obj
 0001:001b5030       ?doPchar@DName@@AEAAXD@Z   00000001801b6030 f   libvcruntime:undname.obj
 0001:001b5080       ?getAddressOf@UnDecorator@@CA?AVDName@@XZ 00000001801b6080 f   libvcruntime:undname.obj
 0001:001b5110       ?getArgumentList@UnDecorator@@CA?AVDName@@XZ 00000001801b6110 f   libvcruntime:undname.obj
 0001:001b52a4       ?getArgumentTypes@UnDecorator@@CA?AVDName@@XZ 00000001801b62a4 f   libvcruntime:undname.obj
 0001:001b5400       ?getArrayAccess@UnDecorator@@CA?AVDName@@XZ 00000001801b6400 f   libvcruntime:undname.obj
 0001:001b549c       ?getArrayObject@UnDecorator@@CA?AVDName@@XZ 00000001801b649c f   libvcruntime:undname.obj
 0001:001b5564       ?getArrayType@UnDecorator@@CA?AVDName@@AEBV2@@Z 00000001801b6564 f i libvcruntime:undname.obj
 0001:001b57ac       ?getBasedType@UnDecorator@@CA?AVDName@@XZ 00000001801b67ac f   libvcruntime:undname.obj
 0001:001b58a4       ?getBasicDataType@UnDecorator@@CA?AVDName@@AEBV2@@Z 00000001801b68a4 f   libvcruntime:undname.obj
 0001:001b5e54       ?getCallingConvention@UnDecorator@@CA?AVDName@@XZ 00000001801b6e54 f   libvcruntime:undname.obj
 0001:001b5f94       ?getDataIndirectType@UnDecorator@@CA?AVDName@@AEBV2@W4IndirectionKind@@0H@Z 00000001801b6f94 f   libvcruntime:undname.obj
 0001:001b682c       ?getDataType@UnDecorator@@CA?AVDName@@PEAV2@@Z 00000001801b782c f   libvcruntime:undname.obj
 0001:001b6940       ?getDecoratedName@UnDecorator@@CA?AVDName@@XZ 00000001801b7940 f   libvcruntime:undname.obj
 0001:001b6c24       ?getDimension@UnDecorator@@CA?AVDName@@_N@Z 00000001801b7c24 f   libvcruntime:undname.obj
 0001:001b6d70       ?getDispatchTarget@UnDecorator@@CA?AVDName@@XZ 00000001801b7d70 f   libvcruntime:undname.obj
 0001:001b6dbc       ?getECSUDataType@UnDecorator@@CA?AVDName@@XZ 00000001801b7dbc f   libvcruntime:undname.obj
 0001:001b6f9c       ?getEnumType@UnDecorator@@CA?AVDName@@XZ 00000001801b7f9c f i libvcruntime:undname.obj
 0001:001b70cc       ?getExtendedDataIndirectType@UnDecorator@@CA?AVDName@@AEAW4IndirectionKind@@AEA_NH@Z 00000001801b80cc f   libvcruntime:undname.obj
 0001:001b72d4       ?getExternalDataType@UnDecorator@@CA?AVDName@@AEBV2@@Z 00000001801b82d4 f i libvcruntime:undname.obj
 0001:001b7394       ?getFloatingPoint@UnDecorator@@CA?AVDName@@H@Z 00000001801b8394 f   libvcruntime:undname.obj
 0001:001b74bc       ?getFunctionIndirectType@UnDecorator@@CA?AVDName@@AEBV2@@Z 00000001801b84bc f   libvcruntime:undname.obj
 0001:001b79f4       ?getLastChar@DNameStatusNode@@UEBADXZ 00000001801b89f4 f i libvcruntime:undname.obj
 0001:001b7a00       ?getLastChar@charNode@@UEBADXZ 00000001801b8a00 f i libvcruntime:undname.obj
 0001:001b7a04       ?getLastChar@pDNameNode@@UEBADXZ 00000001801b8a04 f i libvcruntime:undname.obj
 0001:001b7a30       ?getLastChar@pairNode@@UEBADXZ 00000001801b8a30 f i libvcruntime:undname.obj
 0001:001b7a68       ?getLastChar@pcharNode@@UEBADXZ 00000001801b8a68 f i libvcruntime:undname.obj
 0001:001b7a7c       ?getLexicalFrame@UnDecorator@@CA?AVDName@@XZ 00000001801b8a7c f i libvcruntime:undname.obj
 0001:001b7ae0       ?getMemberAccess@UnDecorator@@CA?AVDName@@XZ 00000001801b8ae0 f   libvcruntime:undname.obj
 0001:001b7b74       ?getMemoryWithBuffer@_HeapManager@@QEAAPEAX_K@Z 00000001801b8b74 f   libvcruntime:undname.obj
 0001:001b7c04       ?getNoexcept@UnDecorator@@CA?AVDName@@XZ 00000001801b8c04 f   libvcruntime:undname.obj
 0001:001b7c68       ?getNumberOfDimensions@UnDecorator@@CAHXZ 00000001801b8c68 f   libvcruntime:undname.obj
 0001:001b7cdc       ?getOperatorName@UnDecorator@@CA?AVDName@@_NPEA_N@Z 00000001801b8cdc f i libvcruntime:undname.obj
 0001:001b86d0       ?getPointerToMember@UnDecorator@@CA?AVDName@@XZ 00000001801b96d0 f   libvcruntime:undname.obj
 0001:001b87c8       ?getPrimaryDataType@UnDecorator@@CA?AVDName@@AEBV2@@Z 00000001801b97c8 f   libvcruntime:undname.obj
 0001:001b8a7c       ?getPtrRefDataType@UnDecorator@@CA?AVDName@@AEBV2@H@Z 00000001801b9a7c f   libvcruntime:undname.obj
 0001:001b8c48       ?getPtrRefType@UnDecorator@@CA?AVDName@@AEBV2@0W4IndirectionKind@@@Z 00000001801b9c48 f   libvcruntime:undname.obj
 0001:001b8e20       ?getRestrictionSpec@UnDecorator@@CA?AVDName@@XZ 00000001801b9e20 f   libvcruntime:undname.obj
 0001:001b8fec       ?getReturnType@UnDecorator@@CA?AVDName@@PEAV2@@Z 00000001801b9fec f   libvcruntime:undname.obj
 0001:001b9020       ?getScope@UnDecorator@@CA?AVDName@@XZ 00000001801ba020 f   libvcruntime:undname.obj
 0001:001b94d4       ?getScopedName@UnDecorator@@CA?AVDName@@XZ 00000001801ba4d4 f   libvcruntime:undname.obj
 0001:001b9610       ?getSignedDimension@UnDecorator@@CA?AVDName@@XZ 00000001801ba610 f   libvcruntime:undname.obj
 0001:001b9698       ?getString@DNameStatusNode@@UEBAPEADPEAD0@Z 00000001801ba698 f i libvcruntime:undname.obj
 0001:001b96e0       ?getString@charNode@@UEBAPEADPEAD0@Z 00000001801ba6e0 f i libvcruntime:undname.obj
 0001:001b96f4       ?getString@pDNameNode@@UEBAPEADPEAD0@Z 00000001801ba6f4 f i libvcruntime:undname.obj
 0001:001b9724       ?getString@pairNode@@UEBAPEADPEAD0@Z 00000001801ba724 f i libvcruntime:undname.obj
 0001:001b9770       ?getString@pcharNode@@UEBAPEADPEAD0@Z 00000001801ba770 f i libvcruntime:undname.obj
 0001:001b97a8       ?getStringEncoding@UnDecorator@@CA?AVDName@@W4PrefixKind@@H@Z 00000001801ba7a8 f   libvcruntime:undname.obj
 0001:001b988c       ?getStringObject@UnDecorator@@CA?AVDName@@XZ 00000001801ba88c f   libvcruntime:undname.obj
 0001:001b98f4       ?getSymbolName@UnDecorator@@CA?AVDName@@XZ 00000001801ba8f4 f i libvcruntime:undname.obj
 0001:001b9940       ?getTemplateArgumentList@UnDecorator@@CA?AVDName@@XZ 00000001801ba940 f   libvcruntime:undname.obj
 0001:001b9bb4       ?getTemplateName@UnDecorator@@CA?AVDName@@_N@Z 00000001801babb4 f   libvcruntime:undname.obj
 0001:001b9e48       ?getTemplateNonTypeArgument@UnDecorator@@CA?AVDName@@XZ 00000001801bae48 f   libvcruntime:undname.obj
 0001:001ba37c       ?getTemplateTypeArgument@UnDecorator@@CA?AVDName@@XZ 00000001801bb37c f   libvcruntime:undname.obj
 0001:001ba4e4       ?getThrowTypes@UnDecorator@@CA?AVDName@@XZ 00000001801bb4e4 f   libvcruntime:undname.obj
 0001:001ba508       ?getTypeEncoding@UnDecorator@@CAHXZ 00000001801bb508 f i libvcruntime:undname.obj
 0001:001ba898       ?getUndecoratedName@UnDecorator@@QEAAPEADPEADH@Z 00000001801bb898 f i libvcruntime:undname.obj
 0001:001ba9ec       ?getUnionObject@UnDecorator@@CA?AVDName@@XZ 00000001801bb9ec f   libvcruntime:undname.obj
 0001:001baac4       ?getVCallThunkType@UnDecorator@@CA?AVDName@@XZ 00000001801bbac4 f i libvcruntime:undname.obj
 0001:001bab3c       ?getValue@UnDecorator@@CA?AV?$optional@_K@std@@XZ 00000001801bbb3c f   libvcruntime:undname.obj
 0001:001babb0       ?getValueObject@UnDecorator@@CA?AVDName@@XZ 00000001801bbbb0 f   libvcruntime:undname.obj
 0001:001bad08       ?getVdispMapType@UnDecorator@@CA?AVDName@@AEBV2@@Z 00000001801bbd08 f i libvcruntime:undname.obj
 0001:001bad84       ?getVfTableType@UnDecorator@@CA?AVDName@@AEBV2@@Z 00000001801bbd84 f i libvcruntime:undname.obj
 0001:001baf8c       ?getZName@UnDecorator@@CA?AVDName@@_N0@Z 00000001801bbf8c f   libvcruntime:undname.obj
 0001:001bb274       ?length@pDNameNode@@UEBAHXZ 00000001801bc274 f i libvcruntime:undname.obj
 0001:001bb29c       ?length@pairNode@@UEBAHXZ  00000001801bc29c f i libvcruntime:undname.obj
 0001:001bb2e4       ?parseDecoratedName@UnDecorator@@CA?AVDName@@XZ 00000001801bc2e4 f   libvcruntime:undname.obj
 0001:001bb3f8       ?raw_length@pDNameNode@@UEBAHXZ 00000001801bc3f8 f i libvcruntime:undname.obj
 0001:001bb3fc       ?raw_length@pairNode@@UEBAHXZ 00000001801bc3fc f i libvcruntime:undname.obj
 0001:001bb400       __unDName                  00000001801bc400 f   libvcruntime:undname.obj
 0001:001bb428       __unDNameEx                00000001801bc428 f   libvcruntime:undname.obj
 0001:001bb55c       sprintf_s                  00000001801bc55c f i libvcruntime:undname.obj
 0001:001bb5b0       __vcrt_freefls             00000001801bc5b0 f   libvcruntime:per_thread_data.obj
 0001:001bb5d0       __vcrt_freeptd             00000001801bc5d0 f   libvcruntime:per_thread_data.obj
 0001:001bb620       __vcrt_getptd              00000001801bc620 f   libvcruntime:per_thread_data.obj
 0001:001bb63c       __vcrt_getptd_noexit       00000001801bc63c f   libvcruntime:per_thread_data.obj
 0001:001bb6fc       __vcrt_initialize_ptd      00000001801bc6fc f   libvcruntime:per_thread_data.obj
 0001:001bb744       __vcrt_uninitialize_ptd    00000001801bc744 f   libvcruntime:per_thread_data.obj
 0001:001bb768       __vcrt_initialize_locks    00000001801bc768 f   libvcruntime:locks.obj
 0001:001bb79c       __vcrt_lock                00000001801bc79c f   libvcruntime:locks.obj
 0001:001bb7b8       __vcrt_uninitialize_locks  00000001801bc7b8 f   libvcruntime:locks.obj
 0001:001bb7f0       __vcrt_unlock              00000001801bc7f0 f   libvcruntime:locks.obj
 0001:001bb820       _NLG_Notify                00000001801bc820 f   libvcruntime:notify.obj
 0001:001bb840       __NLG_Dispatch2            00000001801bc840 f   libvcruntime:notify.obj
 0001:001bb850       __NLG_Return2              00000001801bc850 f   libvcruntime:notify.obj
 0001:001bb854       __except_validate_context_record 00000001801bc854 f   libvcruntime:jbcxrval.obj
 0001:001bb88c       ??$_CallSETranslator@V__FrameHandler3@@@@YAHPEAUEHExceptionRecord@@PEA_KPEAU_CONTEXT@@PEAU_xDISPATCHER_CONTEXT@@PEBU_s_FuncInfo@@K1H@Z 00000001801bc88c f i libvcruntime:risctrnsctrl.obj
 0001:001bb8e0       ??$_CallSETranslator@V__FrameHandler4@@@@YAHPEAUEHExceptionRecord@@PEA_KPEAU_CONTEXT@@PEAU_xDISPATCHER_CONTEXT@@PEAUFuncInfo4@FH4@@K1H@Z 00000001801bc8e0 f i libvcruntime:risctrnsctrl.obj
 0001:001bb934       ?CatchTryBlock@__FrameHandler3@@SAPEBU_s_TryBlockMapEntry@@PEBU_s_FuncInfo@@H@Z 00000001801bc934 f   libvcruntime:risctrnsctrl.obj
 0001:001bb988       ?DecompFuncInfo@FH4@@YA_JPEAEAEAUFuncInfo4@1@_KH_N@Z 00000001801bc988 f i libvcruntime:risctrnsctrl.obj
 0001:001bbaac       ?ExecutionInCatch@__FrameHandler3@@SA_NPEAU_xDISPATCHER_CONTEXT@@PEBU_s_FuncInfo@@@Z 00000001801bcaac f   libvcruntime:risctrnsctrl.obj
 0001:001bbad8       ?ExecutionInCatch@__FrameHandler4@@SA_NPEAU_xDISPATCHER_CONTEXT@@PEAUFuncInfo4@FH4@@@Z 00000001801bcad8 f   libvcruntime:risctrnsctrl.obj
 0001:001bbae0       ?FrameUnwindToEmptyState@__FrameHandler3@@SAXPEA_KPEAU_xDISPATCHER_CONTEXT@@PEBU_s_FuncInfo@@@Z 00000001801bcae0 f   libvcruntime:risctrnsctrl.obj
 0001:001bbb44       ?FrameUnwindToEmptyState@__FrameHandler4@@SAXPEA_KPEAU_xDISPATCHER_CONTEXT@@PEAUFuncInfo4@FH4@@@Z 00000001801bcb44 f   libvcruntime:risctrnsctrl.obj
 0001:001bbb78       ?GetEstablisherFrame@__FrameHandler3@@SAPEA_KPEA_KPEAU_xDISPATCHER_CONTEXT@@PEBU_s_FuncInfo@@0@Z 00000001801bcb78 f   libvcruntime:risctrnsctrl.obj
 0001:001bbc44       ?GetEstablisherFrame@__FrameHandler4@@SAPEA_KPEA_KPEAU_xDISPATCHER_CONTEXT@@PEAUFuncInfo4@FH4@@0@Z 00000001801bcc44 f   libvcruntime:risctrnsctrl.obj
 0001:001bbc68       ?GetRangeOfTrysToCheck@__FrameHandler3@@SA?AU?$pair@Viterator@TryBlockMap@__FrameHandler3@@V123@@std@@AEAVTryBlockMap@1@HPEAU_xDISPATCHER_CONTEXT@@PEBU_s_FuncInfo@@H@Z 00000001801bcc68 f   libvcruntime:risctrnsctrl.obj
 0001:001bbda8       ?GetRangeOfTrysToCheck@__FrameHandler4@@SA?AU?$pair@Viterator@TryBlockMap4@FH4@@V123@@std@@AEAVTryBlockMap4@FH4@@HPEAU_xDISPATCHER_CONTEXT@@PEAUFuncInfo4@5@H@Z 00000001801bcda8 f   libvcruntime:risctrnsctrl.obj
 0001:001bbf10       ?UnwindNestedFrames@__FrameHandler3@@SAXPEA_KPEAUEHExceptionRecord@@PEAU_CONTEXT@@0PEAXPEBU_s_FuncInfo@@HHPEBU_s_HandlerType@@PEAU_xDISPATCHER_CONTEXT@@E@Z 00000001801bcf10 f   libvcruntime:risctrnsctrl.obj
 0001:001bc014       ?UnwindNestedFrames@__FrameHandler4@@SAXPEA_KPEAUEHExceptionRecord@@PEAU_CONTEXT@@0PEAXPEAUFuncInfo4@FH4@@HHPEAUHandlerType4@5@PEAU_xDISPATCHER_CONTEXT@@E@Z 00000001801bd014 f   libvcruntime:risctrnsctrl.obj
 0001:001bc134       ?setBuffer@TryBlockMap4@FH4@@QEAAXViterator@12@@Z 00000001801bd134 f i libvcruntime:risctrnsctrl.obj
 0001:001bc2f4       _CreateFrameInfo           00000001801bd2f4 f   libvcruntime:risctrnsctrl.obj
 0001:001bc330       _FindAndUnlinkFrame        00000001801bd330 f   libvcruntime:risctrnsctrl.obj
 0001:001bc384       _GetImageBase              00000001801bd384 f   libvcruntime:risctrnsctrl.obj
 0001:001bc398       _GetThrowImageBase         00000001801bd398 f   libvcruntime:risctrnsctrl.obj
 0001:001bc3ac       _SetImageBase              00000001801bd3ac f   libvcruntime:risctrnsctrl.obj
 0001:001bc3c4       _SetThrowImageBase         00000001801bd3c4 f   libvcruntime:risctrnsctrl.obj
 0001:001bc3dc       __CxxFrameHandler3         00000001801bd3dc f   libvcruntime:risctrnsctrl.obj
 0001:001bc464       __CxxFrameHandler4         00000001801bd464 f   libvcruntime:risctrnsctrl.obj
 0001:001bc674       __vcrt_FlsAlloc            00000001801bd674 f   libvcruntime:winapi_downlevel.obj
 0001:001bc6bc       __vcrt_FlsFree             00000001801bd6bc f   libvcruntime:winapi_downlevel.obj
 0001:001bc704       __vcrt_FlsGetValue         00000001801bd704 f   libvcruntime:winapi_downlevel.obj
 0001:001bc74c       __vcrt_FlsSetValue         00000001801bd74c f   libvcruntime:winapi_downlevel.obj
 0001:001bc7a0       __vcrt_InitializeCriticalSectionEx 00000001801bd7a0 f   libvcruntime:winapi_downlevel.obj
 0001:001bc804       ?GetCurrentState@__FrameHandler3@@SAHPEA_KPEAU_xDISPATCHER_CONTEXT@@PEBU_s_FuncInfo@@@Z 00000001801bd804 f   libvcruntime:ehstate.obj
 0001:001bc82c       ?GetUnwindTryBlock@__FrameHandler3@@SAHPEA_KPEAU_xDISPATCHER_CONTEXT@@PEBU_s_FuncInfo@@@Z 00000001801bd82c f   libvcruntime:ehstate.obj
 0001:001bc858       ?SetState@__FrameHandler3@@SAXPEA_KPEBU_s_FuncInfo@@H@Z 00000001801bd858 f   libvcruntime:ehstate.obj
 0001:001bc864       ?SetUnwindTryBlock@__FrameHandler3@@SAXPEA_KPEAU_xDISPATCHER_CONTEXT@@PEBU_s_FuncInfo@@H@Z 00000001801bd864 f   libvcruntime:ehstate.obj
 0001:001bc8a0       ?StateFromControlPc@__FrameHandler3@@SAHPEBU_s_FuncInfo@@PEAU_xDISPATCHER_CONTEXT@@@Z 00000001801bd8a0 f   libvcruntime:ehstate.obj
 0001:001bc8a8       ?StateFromControlPc@__FrameHandler4@@SAHPEAUFuncInfo4@FH4@@PEAU_xDISPATCHER_CONTEXT@@@Z 00000001801bd8a8 f   libvcruntime:ehstate.obj
 0001:001bc8b0       ?StateFromIp@__FrameHandler3@@SAHPEBU_s_FuncInfo@@PEAU_xDISPATCHER_CONTEXT@@_K@Z 00000001801bd8b0 f   libvcruntime:ehstate.obj
 0001:001bc918       ?StateFromIp@__FrameHandler4@@SAHPEAUFuncInfo4@FH4@@PEAU_xDISPATCHER_CONTEXT@@_K@Z 00000001801bd918 f   libvcruntime:ehstate.obj
 0001:001bdffc       ??$TypeMatchHelper@V__FrameHandler3@@@@YAHPEBU_s_HandlerType@@PEBU_s_CatchableType@@PEBU_s_ThrowInfo@@@Z 00000001801beffc f i libvcruntime:frame.obj
 0001:001be13c       ??$TypeMatchHelper@V__FrameHandler4@@@@YAHPEAUHandlerType4@FH4@@PEBU_s_CatchableType@@PEBU_s_ThrowInfo@@@Z 00000001801bf13c f i libvcruntime:frame.obj
 0001:001be280       ??$__InternalCxxFrameHandler@V__FrameHandler3@@@@YA?AW4_EXCEPTION_DISPOSITION@@PEAUEHExceptionRecord@@PEA_KPEAU_CONTEXT@@PEAU_xDISPATCHER_CONTEXT@@PEBU_s_FuncInfo@@H1E@Z 00000001801bf280 f i libvcruntime:frame.obj
 0001:001be4b8       ??$__InternalCxxFrameHandler@V__FrameHandler4@@@@YA?AW4_EXCEPTION_DISPOSITION@@PEAUEHExceptionRecord@@PEA_KPEAU_CONTEXT@@PEAU_xDISPATCHER_CONTEXT@@PEAUFuncInfo4@FH4@@H1E@Z 00000001801bf4b8 f i libvcruntime:frame.obj
 0001:001be74c       ??0HandlerMap4@FH4@@QEAA@PEBUTryBlockMapEntry4@1@_KH@Z 00000001801bf74c f i libvcruntime:frame.obj
 0001:001be7c8       ??0TryBlockMap4@FH4@@QEAA@PEBUFuncInfo4@1@_K@Z 00000001801bf7c8 f i libvcruntime:frame.obj
 0001:001be8a0       ??0bad_exception@std@@QEAA@AEBV01@@Z 00000001801bf8a0 f i libvcruntime:frame.obj
 0001:001be8dc       ??0bad_exception@std@@QEAA@XZ 00000001801bf8dc f i libvcruntime:frame.obj
 0001:001be8fc       ??0exception@std@@QEAA@AEBV01@@Z 00000001801bf8fc f i libvcruntime:frame.obj
 0001:001be930       ??1bad_exception@std@@UEAA@XZ 00000001801bf930 f i libvcruntime:frame.obj
 0001:001be944       ??_Gbad_exception@std@@UEAAPEAXI@Z 00000001801bf944 f i libvcruntime:frame.obj
 0001:001be944       ??_Ebad_exception@std@@UEAAPEAXI@Z 00000001801bf944 f i libvcruntime:frame.obj
 0001:001be944       ??_Eexception@std@@UEAAPEAXI@Z 00000001801bf944 f i libvcruntime:frame.obj
 0001:001be944       ??_Gexception@std@@UEAAPEAXI@Z 00000001801bf944 f i libvcruntime:frame.obj
 0001:001be988       ?CxxCallCatchBlock@__FrameHandler3@@SAPEAXPEAU_EXCEPTION_RECORD@@@Z 00000001801bf988 f   libvcruntime:frame.obj
 0001:001beb74       ?CxxCallCatchBlock@__FrameHandler4@@SAPEAXPEAU_EXCEPTION_RECORD@@@Z 00000001801bfb74 f   libvcruntime:frame.obj
 0001:001bedc4       ?DecompHandler@HandlerMap4@FH4@@AEAAXXZ 00000001801bfdc4 f i libvcruntime:frame.obj
 0001:001bf004       ?FrameUnwindToState@__FrameHandler3@@SAXPEA_KPEAU_xDISPATCHER_CONTEXT@@PEBU_s_FuncInfo@@H@Z 00000001801c0004 f   libvcruntime:frame.obj
 0001:001bf190       ?FrameUnwindToState@__FrameHandler4@@SAXPEA_KPEAU_xDISPATCHER_CONTEXT@@PEAUFuncInfo4@FH4@@H@Z 00000001801c0190 f   libvcruntime:frame.obj
 0001:001bf478       ?GetHandlerSearchState@__FrameHandler3@@SAHPEA_KPEAU_xDISPATCHER_CONTEXT@@PEBU_s_FuncInfo@@@Z 00000001801c0478 f i libvcruntime:frame.obj
 0001:001bf688       ?ReadEntry@UWMap4@FH4@@AEAAXPEAPEAE@Z 00000001801c0688 f i libvcruntime:frame.obj
 0001:001bf728       ?_CallMemberFunction1@@YAXQEAX00@Z 00000001801c0728 f i libvcruntime:frame.obj
 0001:001bf734       ?_CallMemberFunction2@@YAXQEAX00H@Z 00000001801c0734 f i libvcruntime:frame.obj
 0001:001bf744       ?getStartStop@UWMap4@FH4@@QEAAXHHAEAViterator@12@0@Z 00000001801c0744 f i libvcruntime:frame.obj
 0001:001bf814       ?getStateFromIterators@UWMap4@FH4@@SAHAEBViterator@12@H0H0@Z 00000001801c0814 f i libvcruntime:frame.obj
 0001:001bf8dc       ?what@exception@std@@UEBAPEBDXZ 00000001801c08dc f i libvcruntime:frame.obj
 0001:001bf900       _CallSettingFrame          00000001801c0900 f   libvcruntime:handlers.obj
 0001:001bf950       _CallSettingFrame_LookupContinuationIndex 00000001801c0950 f   libvcruntime:handlers.obj
 0001:001bf980       _CallSettingFrame_NotifyContinuationAddr 00000001801c0980 f   libvcruntime:handlers.obj
 0001:001bf9b0       _CallSettingFrameEncoded   00000001801c09b0 f   libvcruntime:handlers.obj
 0001:001bf9f8       __std_exception_copy       00000001801c09f8 f   libvcruntime:std_exception.obj
 0001:001bfa88       __std_exception_destroy    00000001801c0a88 f   libvcruntime:std_exception.obj
 0001:001bfab0       _CxxThrowException         00000001801c0ab0 f   libvcruntime:throw.obj
 0001:001bfb50       cosf                       00000001801c0b50 f   libucrt:cosf.obj
 0001:001c0050       sinf                       00000001801c1050 f   libucrt:sinf.obj
 0001:001c0750       tanf                       00000001801c1750 f   libucrt:tanf.obj
 0001:001c0dc4       __acrt_initialize_stdio    00000001801c1dc4 f   libucrt:_file.obj
 0001:001c0ee4       __acrt_iob_func            00000001801c1ee4 f   libucrt:_file.obj
 0001:001c0ef8       __acrt_uninitialize_stdio  00000001801c1ef8 f   libucrt:_file.obj
 0001:001c0f54       _lock_file                 00000001801c1f54 f   libucrt:_file.obj
 0001:001c0f60       _unlock_file               00000001801c1f60 f   libucrt:_file.obj
 0001:001c115c       ??$ensure_buffer_is_big_enough@D@formatting_buffer@__crt_stdio_output@@QEAA_N_KAEAV__crt_cached_ptd_host@@@Z 00000001801c215c f i libucrt:output.obj
 0001:001c1204       ??$parse_integer@KV?$c_string_character_source@D@__crt_strtox@@$0A@@__crt_strtox@@YAKAEAV__crt_cached_ptd_host@@V?$c_string_character_source@D@0@H_N@Z 00000001801c2204 f i libucrt:output.obj
 0001:001c14b4       ??$type_case_integer@$07@?$output_processor@DV?$string_output_adapter@D@__crt_stdio_output@@V?$format_validation_base@DV?$string_output_adapter@D@__crt_stdio_output@@@2@@__crt_stdio_output@@AEAA_N_N@Z 00000001801c24b4 f i libucrt:output.obj
 0001:001c14b4       ??$type_case_integer@$07@?$output_processor@DV?$stream_output_adapter@D@__crt_stdio_output@@V?$standard_base@DV?$stream_output_adapter@D@__crt_stdio_output@@@2@@__crt_stdio_output@@AEAA_N_N@Z 00000001801c24b4 f i libucrt:output.obj
 0001:001c169c       ??$type_case_integer@$09@?$output_processor@DV?$string_output_adapter@D@__crt_stdio_output@@V?$format_validation_base@DV?$string_output_adapter@D@__crt_stdio_output@@@2@@__crt_stdio_output@@AEAA_N_N@Z 00000001801c269c f i libucrt:output.obj
 0001:001c169c       ??$type_case_integer@$09@?$output_processor@DV?$stream_output_adapter@D@__crt_stdio_output@@V?$standard_base@DV?$stream_output_adapter@D@__crt_stdio_output@@@2@@__crt_stdio_output@@AEAA_N_N@Z 00000001801c269c f i libucrt:output.obj
 0001:001c1884       ??$type_case_integer@$0BA@@?$output_processor@DV?$stream_output_adapter@D@__crt_stdio_output@@V?$standard_base@DV?$stream_output_adapter@D@__crt_stdio_output@@@2@@__crt_stdio_output@@AEAA_N_N@Z 00000001801c2884 f i libucrt:output.obj
 0001:001c1884       ??$type_case_integer@$0BA@@?$output_processor@DV?$string_output_adapter@D@__crt_stdio_output@@V?$format_validation_base@DV?$string_output_adapter@D@__crt_stdio_output@@@2@@__crt_stdio_output@@AEAA_N_N@Z 00000001801c2884 f i libucrt:output.obj
 0001:001c1a6c       ??$type_case_integer_parse_into_buffer@I$07@?$output_processor@DV?$string_output_adapter@D@__crt_stdio_output@@V?$format_validation_base@DV?$string_output_adapter@D@__crt_stdio_output@@@2@@__crt_stdio_output@@AEAAXI_N@Z 00000001801c2a6c f i libucrt:output.obj
 0001:001c1a6c       ??$type_case_integer_parse_into_buffer@I$07@?$output_processor@DV?$stream_output_adapter@D@__crt_stdio_output@@V?$standard_base@DV?$stream_output_adapter@D@__crt_stdio_output@@@2@@__crt_stdio_output@@AEAAXI_N@Z 00000001801c2a6c f i libucrt:output.obj
 0001:001c1ae8       ??$type_case_integer_parse_into_buffer@I$09@?$output_processor@DV?$stream_output_adapter@D@__crt_stdio_output@@V?$standard_base@DV?$stream_output_adapter@D@__crt_stdio_output@@@2@@__crt_stdio_output@@AEAAXI_N@Z 00000001801c2ae8 f i libucrt:output.obj
 0001:001c1ae8       ??$type_case_integer_parse_into_buffer@I$09@?$output_processor@DV?$string_output_adapter@D@__crt_stdio_output@@V?$format_validation_base@DV?$string_output_adapter@D@__crt_stdio_output@@@2@@__crt_stdio_output@@AEAAXI_N@Z 00000001801c2ae8 f i libucrt:output.obj
 0001:001c1b90       ??$type_case_integer_parse_into_buffer@I$0BA@@?$output_processor@DV?$stream_output_adapter@D@__crt_stdio_output@@V?$standard_base@DV?$stream_output_adapter@D@__crt_stdio_output@@@2@@__crt_stdio_output@@AEAAXI_N@Z 00000001801c2b90 f i libucrt:output.obj
 0001:001c1b90       ??$type_case_integer_parse_into_buffer@I$0BA@@?$output_processor@DV?$string_output_adapter@D@__crt_stdio_output@@V?$format_validation_base@DV?$string_output_adapter@D@__crt_stdio_output@@@2@@__crt_stdio_output@@AEAAXI_N@Z 00000001801c2b90 f i libucrt:output.obj
 0001:001c1c1c       ??$type_case_integer_parse_into_buffer@_K$07@?$output_processor@DV?$string_output_adapter@D@__crt_stdio_output@@V?$format_validation_base@DV?$string_output_adapter@D@__crt_stdio_output@@@2@@__crt_stdio_output@@AEAAX_K_N@Z 00000001801c2c1c f i libucrt:output.obj
 0001:001c1c1c       ??$type_case_integer_parse_into_buffer@_K$07@?$output_processor@DV?$stream_output_adapter@D@__crt_stdio_output@@V?$standard_base@DV?$stream_output_adapter@D@__crt_stdio_output@@@2@@__crt_stdio_output@@AEAAX_K_N@Z 00000001801c2c1c f i libucrt:output.obj
 0001:001c1c98       ??$type_case_integer_parse_into_buffer@_K$09@?$output_processor@DV?$string_output_adapter@D@__crt_stdio_output@@V?$format_validation_base@DV?$string_output_adapter@D@__crt_stdio_output@@@2@@__crt_stdio_output@@AEAAX_K_N@Z 00000001801c2c98 f i libucrt:output.obj
 0001:001c1c98       ??$type_case_integer_parse_into_buffer@_K$09@?$output_processor@DV?$stream_output_adapter@D@__crt_stdio_output@@V?$standard_base@DV?$stream_output_adapter@D@__crt_stdio_output@@@2@@__crt_stdio_output@@AEAAX_K_N@Z 00000001801c2c98 f i libucrt:output.obj
 0001:001c1d44       ??$type_case_integer_parse_into_buffer@_K$0BA@@?$output_processor@DV?$stream_output_adapter@D@__crt_stdio_output@@V?$standard_base@DV?$stream_output_adapter@D@__crt_stdio_output@@@2@@__crt_stdio_output@@AEAAX_K_N@Z 00000001801c2d44 f i libucrt:output.obj
 0001:001c1d44       ??$type_case_integer_parse_into_buffer@_K$0BA@@?$output_processor@DV?$string_output_adapter@D@__crt_stdio_output@@V?$format_validation_base@DV?$string_output_adapter@D@__crt_stdio_output@@@2@@__crt_stdio_output@@AEAAX_K_N@Z 00000001801c2d44 f i libucrt:output.obj
 0001:001c1eec       ?crop_zeroes@__crt_stdio_output@@YAXPEADQEAU__crt_locale_pointers@@@Z 00000001801c2eec f i libucrt:output.obj
 0001:001c1f60       ?get_raw_ptd@__crt_cached_ptd_host@@QEAAPEAU__acrt_ptd@@XZ 00000001801c2f60 f i libucrt:output.obj
 0001:001c1fc8       ?parse_int_from_format_string@?$output_processor@DV?$stream_output_adapter@D@__crt_stdio_output@@V?$standard_base@DV?$stream_output_adapter@D@__crt_stdio_output@@@2@@__crt_stdio_output@@AEAA_NQEAH@Z 00000001801c2fc8 f i libucrt:output.obj
 0001:001c1fc8       ?parse_int_from_format_string@?$output_processor@DV?$string_output_adapter@D@__crt_stdio_output@@V?$format_validation_base@DV?$string_output_adapter@D@__crt_stdio_output@@@2@@__crt_stdio_output@@AEAA_NQEAH@Z 00000001801c2fc8 f i libucrt:output.obj
 0001:001c2058       ?process@?$output_processor@DV?$stream_output_adapter@D@__crt_stdio_output@@V?$standard_base@DV?$stream_output_adapter@D@__crt_stdio_output@@@2@@__crt_stdio_output@@QEAAHXZ 00000001801c3058 f i libucrt:output.obj
 0001:001c23e4       ?process@?$output_processor@DV?$string_output_adapter@D@__crt_stdio_output@@V?$format_validation_base@DV?$string_output_adapter@D@__crt_stdio_output@@@2@@__crt_stdio_output@@QEAAHXZ 00000001801c33e4 f i libucrt:output.obj
 0001:001c2774       ?state_case_size@?$output_processor@DV?$stream_output_adapter@D@__crt_stdio_output@@V?$standard_base@DV?$stream_output_adapter@D@__crt_stdio_output@@@2@@__crt_stdio_output@@AEAA_NXZ 00000001801c3774 f i libucrt:output.obj
 0001:001c28f8       ?state_case_size@?$output_processor@DV?$string_output_adapter@D@__crt_stdio_output@@V?$format_validation_base@DV?$string_output_adapter@D@__crt_stdio_output@@@2@@__crt_stdio_output@@AEAA_NXZ 00000001801c38f8 f i libucrt:output.obj
 0001:001c2a7c       ?state_case_type@?$output_processor@DV?$stream_output_adapter@D@__crt_stdio_output@@V?$standard_base@DV?$stream_output_adapter@D@__crt_stdio_output@@@2@@__crt_stdio_output@@AEAA_NXZ 00000001801c3a7c f i libucrt:output.obj
 0001:001c2eb0       ?state_case_type@?$output_processor@DV?$string_output_adapter@D@__crt_stdio_output@@V?$format_validation_base@DV?$string_output_adapter@D@__crt_stdio_output@@@2@@__crt_stdio_output@@AEAA_NXZ 00000001801c3eb0 f i libucrt:output.obj
 0001:001c327c       ?type_case_Z@?$output_processor@DV?$stream_output_adapter@D@__crt_stdio_output@@V?$standard_base@DV?$stream_output_adapter@D@__crt_stdio_output@@@2@@__crt_stdio_output@@AEAA_NXZ 00000001801c427c f i libucrt:output.obj
 0001:001c327c       ?type_case_Z@?$output_processor@DV?$string_output_adapter@D@__crt_stdio_output@@V?$format_validation_base@DV?$string_output_adapter@D@__crt_stdio_output@@@2@@__crt_stdio_output@@AEAA_NXZ 00000001801c427c f i libucrt:output.obj
 0001:001c32f4       ?type_case_a@?$output_processor@DV?$stream_output_adapter@D@__crt_stdio_output@@V?$standard_base@DV?$stream_output_adapter@D@__crt_stdio_output@@@2@@__crt_stdio_output@@AEAA_NXZ 00000001801c42f4 f i libucrt:output.obj
 0001:001c32f4       ?type_case_a@?$output_processor@DV?$string_output_adapter@D@__crt_stdio_output@@V?$format_validation_base@DV?$string_output_adapter@D@__crt_stdio_output@@@2@@__crt_stdio_output@@AEAA_NXZ 00000001801c42f4 f i libucrt:output.obj
 0001:001c3540       ?type_case_c_tchar@?$output_processor@DV?$string_output_adapter@D@__crt_stdio_output@@V?$format_validation_base@DV?$string_output_adapter@D@__crt_stdio_output@@@2@@__crt_stdio_output@@AEAA_ND@Z 00000001801c4540 f i libucrt:output.obj
 0001:001c3540       ?type_case_c_tchar@?$output_processor@DV?$stream_output_adapter@D@__crt_stdio_output@@V?$standard_base@DV?$stream_output_adapter@D@__crt_stdio_output@@@2@@__crt_stdio_output@@AEAA_ND@Z 00000001801c4540 f i libucrt:output.obj
 0001:001c3604       ?type_case_n@?$output_processor@DV?$string_output_adapter@D@__crt_stdio_output@@V?$format_validation_base@DV?$string_output_adapter@D@__crt_stdio_output@@@2@@__crt_stdio_output@@AEAA_NXZ 00000001801c4604 f i libucrt:output.obj
 0001:001c3604       ?type_case_n@?$output_processor@DV?$stream_output_adapter@D@__crt_stdio_output@@V?$standard_base@DV?$stream_output_adapter@D@__crt_stdio_output@@@2@@__crt_stdio_output@@AEAA_NXZ 00000001801c4604 f i libucrt:output.obj
 0001:001c36b8       ?type_case_s@?$output_processor@DV?$stream_output_adapter@D@__crt_stdio_output@@V?$standard_base@DV?$stream_output_adapter@D@__crt_stdio_output@@@2@@__crt_stdio_output@@AEAA_NXZ 00000001801c46b8 f i libucrt:output.obj
 0001:001c36b8       ?type_case_s@?$output_processor@DV?$string_output_adapter@D@__crt_stdio_output@@V?$format_validation_base@DV?$string_output_adapter@D@__crt_stdio_output@@@2@@__crt_stdio_output@@AEAA_NXZ 00000001801c46b8 f i libucrt:output.obj
 0001:001c3750       ?update_locale_slow@__crt_cached_ptd_host@@AEAAXXZ 00000001801c4750 f i libucrt:output.obj
 0001:001c37c8       ?validate_stream_is_ansi_if_required@?$__acrt_stdio_char_traits@D@@SA_NQEAU_iobuf@@@Z 00000001801c47c8 f i libucrt:output.obj
 0001:001c3864       ?write_string@?$string_output_adapter@D@__crt_stdio_output@@QEBAXQEBDHQEAHAEAV__crt_cached_ptd_host@@@Z 00000001801c4864 f i libucrt:output.obj
 0001:001c3908       ?write_string_impl@?$output_adapter_common@DV?$stream_output_adapter@D@__crt_stdio_output@@@__crt_stdio_output@@IEBAXQEBDHQEAHAEAV__crt_cached_ptd_host@@@Z 00000001801c4908 f i libucrt:output.obj
 0001:001c39d4       __stdio_common_vfprintf    00000001801c49d4 f   libucrt:output.obj
 0001:001c3af8       __stdio_common_vsprintf_s  00000001801c4af8 f   libucrt:output.obj
 0001:001c3c0c       _fpclass                   00000001801c4c0c f   libucrt:ieeemisc.obj
 0001:001c3ca0       powf                       00000001801c4ca0 f   libucrt:powf.obj
 0001:001c4b68       atan2f                     00000001801c5b68 f   libucrt:atan2f.obj
 0001:001c4f70       strcmp                     00000001801c5f70 f   libucrt:strcmp.obj
 0001:001c4fd8       acosf                      00000001801c5fd8 f   libucrt:acosf.obj
 0001:001c5204       free                       00000001801c6204 f   libucrt:free.obj
 0001:001c5218       _seh_filter_dll            00000001801c6218 f   libucrt:exception_filter.obj
 0001:001c522c       _seh_filter_exe            00000001801c622c f   libucrt:exception_filter.obj
 0001:001c5650       __acrt_initialize_thread_local_exit_callback 00000001801c6650 f   libucrt:exit.obj
 0001:001c5658       _cexit                     00000001801c6658 f   libucrt:exit.obj
 0001:001c5668       _exit                      00000001801c6668 f   libucrt:exit.obj
 0001:001c5674       _is_c_termination_complete 00000001801c6674 f   libucrt:exit.obj
 0001:001c583c       __acrt_allocate_buffer_for_argv 00000001801c683c f   libucrt:argv_parsing.obj
 0001:001c589c       _configure_narrow_argv     00000001801c689c f   libucrt:argv_parsing.obj
 0001:001c5c24       __dcrt_uninitialize_environments_nolock 00000001801c6c24 f   libucrt:environment_initialization.obj
 0001:001c5c68       _initialize_narrow_environment 00000001801c6c68 f   libucrt:environment_initialization.obj
 0001:001c5fb8       _crt_atexit                00000001801c6fb8 f   libucrt:onexit.obj
 0001:001c5fc8       _execute_onexit_table      00000001801c6fc8 f   libucrt:onexit.obj
 0001:001c600c       _initialize_onexit_table   00000001801c700c f   libucrt:onexit.obj
 0001:001c6034       _register_onexit_function  00000001801c7034 f   libucrt:onexit.obj
 0001:001c60b4       __acrt_uninitialize_command_line 00000001801c70b4 f   libucrt:argv_data.obj
 0001:001c61ac       __acrt_initialize          00000001801c71ac f   libucrt:initialization.obj
 0001:001c61c0       __acrt_thread_attach       00000001801c71c0 f   libucrt:initialization.obj
 0001:001c61d4       __acrt_thread_detach       00000001801c71d4 f   libucrt:initialization.obj
 0001:001c61e4       __acrt_uninitialize        00000001801c71e4 f   libucrt:initialization.obj
 0001:001c621c       __acrt_uninitialize_critical 00000001801c721c f   libucrt:initialization.obj
 0001:001c622c       _initterm                  00000001801c722c f   libucrt:initterm.obj
 0001:001c6270       _initterm_e                00000001801c7270 f   libucrt:initterm.obj
 0001:001c62b8       terminate                  00000001801c72b8 f   libucrt:terminate.obj
 0001:001c62e4       abort                      00000001801c72e4 f   libucrt:abort.obj
 0001:001c633c       malloc                     00000001801c733c f   libucrt:malloc.obj
 0001:001c6344       strcpy_s                   00000001801c7344 f   libucrt:strcpy_s.obj
 0001:001c63a4       ??$parse_integer@KV?$c_string_character_source@D@__crt_strtox@@$00@__crt_strtox@@YAKAEAV__crt_cached_ptd_host@@V?$c_string_character_source@D@0@H_N@Z 00000001801c73a4 f i libucrt:atox.obj
 0001:001c6684       _ischartype_l              00000001801c7684 f i libucrt:atox.obj
 0001:001c66fc       atol                       00000001801c76fc f   libucrt:atox.obj
 0001:001c67c0       strncmp                    00000001801c77c0 f   libucrt:strncmp.obj
 0001:001c6840       calloc                     00000001801c7840 f   libucrt:calloc.obj
 0001:001c6848       wcsncmp                    00000001801c7848 f   libucrt:wcsncmp.obj
 0001:001c6880       __remainder_piby2d2f_forAsm 00000001801c7880 f   libucrt:remainder_piby2f_forasm.obj
 0001:001c69d0       __remainder_piby2_fma3     00000001801c79d0 f   libucrt:remainder_piby2_forfma3.obj
 0001:001c6bc0       __remainder_piby2_fma3_bdl 00000001801c7bc0 f   libucrt:remainder_piby2_forfma3.obj
 0001:001c6c38       _cosf_special              00000001801c7c38 f   libucrt:sincos_special.obj
 0001:001c6cd8       _sinf_special              00000001801c7cd8 f   libucrt:sincos_special.obj
 0001:001c6cec       _tanf_special              00000001801c7cec f   libucrt:sincos_special.obj
 0001:001c6d00       _clrfp                     00000001801c7d00 f   libucrt:fpctrl.obj
 0001:001c6d20       _ctrlfp                    00000001801c7d20 f   libucrt:fpctrl.obj
 0001:001c6d9c       _set_statfp                00000001801c7d9c f   libucrt:fpctrl.obj
 0001:001c6dbc       _statfp                    00000001801c7dbc f   libucrt:fpctrl.obj
 0001:001c6dd0       __acrt_initialize_fma3     00000001801c7dd0 f   libucrt:fma3_available.obj
 0001:001c6e40       __remainder_piby2d2f_forC  00000001801c7e40 f   libucrt:remainder_piby2f_forc.obj
 0001:001c6fcc       ?get_raw_ptd_noexit@__crt_cached_ptd_host@@QEAAPEAU__acrt_ptd@@XZ 00000001801c7fcc f i libucrt:invalid_parameter.obj
 0001:001c7038       ?value@?$dual_state_global@P6AXPEB_W00I_K@Z@__crt_state_management@@QEAAAEAP6AXPEB_W00I_K@ZAEAV__crt_cached_ptd_host@@@Z 00000001801c8038 f i libucrt:invalid_parameter.obj
 0001:001c7084       __acrt_call_reportfault    00000001801c8084 f   libucrt:invalid_parameter.obj
 0001:001c71e0       __acrt_initialize_invalid_parameter_handler 00000001801c81e0 f   libucrt:invalid_parameter.obj
 0001:001c71e8       _invalid_parameter         00000001801c81e8 f   libucrt:invalid_parameter.obj
 0001:001c7284       _invalid_parameter_internal 00000001801c8284 f   libucrt:invalid_parameter.obj
 0001:001c7354       _invalid_parameter_noinfo  00000001801c8354 f   libucrt:invalid_parameter.obj
 0001:001c7374       _invoke_watson             00000001801c8374 f   libucrt:invalid_parameter.obj
 0001:001c73bc       __acrt_errno_from_os_error 00000001801c83bc f   libucrt:errno.obj
 0001:001c7404       __acrt_errno_map_os_error  00000001801c8404 f   libucrt:errno.obj
 0001:001c744c       __acrt_errno_map_os_error_ptd 00000001801c844c f   libucrt:errno.obj
 0001:001c7470       __doserrno                 00000001801c8470 f   libucrt:errno.obj
 0001:001c7490       _errno                     00000001801c8490 f   libucrt:errno.obj
 0001:001c74b0       _calloc_base               00000001801c84b0 f   libucrt:calloc_base.obj
 0001:001c7528       _free_base                 00000001801c8528 f   libucrt:free_base.obj
 0001:001c7724       __acrt_AppPolicyGetProcessTerminationMethodInternal 00000001801c8724 f   libucrt:winapi_thunks.obj
 0001:001c777c       __acrt_AreFileApisANSI     00000001801c877c f   libucrt:winapi_thunks.obj
 0001:001c77c0       __acrt_FlsAlloc            00000001801c87c0 f   libucrt:winapi_thunks.obj
 0001:001c77c8       __acrt_FlsFree             00000001801c87c8 f   libucrt:winapi_thunks.obj
 0001:001c77d0       __acrt_FlsGetValue         00000001801c87d0 f   libucrt:winapi_thunks.obj
 0001:001c77d8       __acrt_FlsSetValue         00000001801c87d8 f   libucrt:winapi_thunks.obj
 0001:001c77e0       __acrt_InitializeCriticalSectionEx 00000001801c87e0 f   libucrt:winapi_thunks.obj
 0001:001c7850       __acrt_LCMapStringEx       00000001801c8850 f   libucrt:winapi_thunks.obj
 0001:001c793c       __acrt_LocaleNameToLCID    00000001801c893c f   libucrt:winapi_thunks.obj
 0001:001c799c       __acrt_initialize_winapi_thunks 00000001801c899c f   libucrt:winapi_thunks.obj
 0001:001c79c0       __acrt_uninitialize_winapi_thunks 00000001801c89c0 f   libucrt:winapi_thunks.obj
 0001:001c7a04       _fcloseall                 00000001801c8a04 f   libucrt:closeall.obj
 0001:001c7c94       __acrt_stdio_flush_nolock  00000001801c8c94 f   libucrt:fflush.obj
 0001:001c7d20       _fflush_nolock             00000001801c8d20 f   libucrt:fflush.obj
 0001:001c7df4       _flushall                  00000001801c8df4 f   libucrt:fflush.obj
 0001:001c7dfc       __acrt_stdio_free_buffer_nolock 00000001801c8dfc f   libucrt:_freebuf.obj
 0001:001c8034       __acrt_initialize_lowio    00000001801c9034 f   libucrt:ioinit.obj
 0001:001c8070       __acrt_uninitialize_lowio  00000001801c9070 f   libucrt:ioinit.obj
 0001:001c80b0       _malloc_base               00000001801c90b0 f   libucrt:malloc_base.obj
 0001:001c8110       strnlen                    00000001801c9110 f   libucrt:strnlen.obj
 0001:001c8260       wcsnlen                    00000001801c9260 f   libucrt:strnlen.obj
 0001:001c8438       __acrt_update_locale_info  00000001801c9438 f   libucrt:locale_update.obj
 0001:001c846c       __acrt_update_locale_info_explicit 00000001801c946c f   libucrt:locale_update.obj
 0001:001c84a4       __acrt_update_multibyte_info 00000001801c94a4 f   libucrt:locale_update.obj
 0001:001c84d8       __acrt_update_multibyte_info_explicit 00000001801c94d8 f   libucrt:locale_update.obj
 0001:001c9040       __acrt_fp_format           00000001801ca040 f   libucrt:cvt.obj
 0001:001c9328       _wctomb_internal           00000001801ca328 f   libucrt:wctomb.obj
 0001:001c94d8       _mbtowc_internal           00000001801ca4d8 f   libucrt:mbtowc.obj
 0001:001c9650       _fileno                    00000001801ca650 f   libucrt:fileno.obj
 0001:001c9678       _get_printf_count_output   00000001801ca678 f   libucrt:printf_count_output.obj
 0001:001c9690       _fputc_nolock_internal     00000001801ca690 f   libucrt:fputc.obj
 0001:001c96a8       __acrt_should_use_temporary_buffer 00000001801ca6a8 f   libucrt:_sftbuf.obj
 0001:001c96f0       __acrt_stdio_begin_temporary_buffering_nolock 00000001801ca6f0 f   libucrt:_sftbuf.obj
 0001:001c97b8       __acrt_stdio_end_temporary_buffering_nolock 00000001801ca7b8 f   libucrt:_sftbuf.obj
 0001:001c9b6c       __acrt_freeptd             00000001801cab6c f   libucrt:per_thread_data.obj
 0001:001c9bb0       __acrt_getptd              00000001801cabb0 f   libucrt:per_thread_data.obj
 0001:001c9c84       __acrt_getptd_head         00000001801cac84 f   libucrt:per_thread_data.obj
 0001:001c9d28       __acrt_getptd_noexit       00000001801cad28 f   libucrt:per_thread_data.obj
 0001:001c9df0       __acrt_getptd_noexit_explicit 00000001801cadf0 f   libucrt:per_thread_data.obj
 0001:001c9eb0       __acrt_initialize_ptd      00000001801caeb0 f   libucrt:per_thread_data.obj
 0001:001c9eec       __acrt_uninitialize_ptd    00000001801caeec f   libucrt:per_thread_data.obj
 0001:001c9f80       __acrt_set_locale_changed  00000001801caf80 f   libucrt:wsetlocale.obj
 0001:001c9f8c       __acrt_uninitialize_locale 00000001801caf8c f   libucrt:wsetlocale.obj
 0001:001ca0e0       _handle_error              00000001801cb0e0 f   libucrt:libm_error.obj
 0001:001ca208       _handle_errorf             00000001801cb208 f   libucrt:libm_error.obj
 0001:001ca33c       _handle_nan                00000001801cb33c f   libucrt:libm_error.obj
 0001:001ca358       _handle_nanf               00000001801cb358 f   libucrt:libm_error.obj
 0001:001ca370       _powf_special              00000001801cb370 f   libucrt:pow_special.obj
 0001:001ca4c0       __acrt_initialize_locks    00000001801cb4c0 f   libucrt:locks.obj
 0001:001ca508       __acrt_lock                00000001801cb508 f   libucrt:locks.obj
 0001:001ca524       __acrt_uninitialize_locks  00000001801cb524 f   libucrt:locks.obj
 0001:001ca55c       __acrt_unlock              00000001801cb55c f   libucrt:locks.obj
 0001:001ca578       __acrt_get_process_end_policy 00000001801cb578 f   libucrt:win_policies.obj
 0001:001ca5c8       ??$__acrt_convert_wcs_mbs_cp@D_WV<lambda_7c9dea7b4ca7285d2cdb541a38da6275>@@U__crt_win32_buffer_internal_dynamic_resizing@@@@YAHQEBDAEAV?$__crt_win32_buffer@_WU__crt_win32_buffer_internal_dynamic_resizing@@@@AEBV<lambda_7c9dea7b4ca7285d2cdb541a38da6275>@@I@Z 00000001801cb5c8 f i libucrt:argv_wildcards.obj
 0001:001ca744       ??$__acrt_convert_wcs_mbs_cp@_WDV<lambda_d8593a27d1aa8c02be35c86a17d324c4>@@U__crt_win32_buffer_internal_dynamic_resizing@@@@YAHQEB_WAEAV?$__crt_win32_buffer@DU__crt_win32_buffer_internal_dynamic_resizing@@@@AEBV<lambda_d8593a27d1aa8c02be35c86a17d324c4>@@I@Z 00000001801cb744 f i libucrt:argv_wildcards.obj
 0001:001cafec       ??0_LocaleUpdate@@QEAA@QEAU__crt_locale_pointers@@@Z 00000001801cbfec f i libucrt:argv_wildcards.obj
 0001:001cb088       __acrt_expand_narrow_argv_wildcards 00000001801cc088 f   libucrt:argv_wildcards.obj
 0001:001cb090       ??$__acrt_convert_wcs_mbs_cp@_WDV<lambda_f788ae46380686e8b737efdd8c720d07>@@U__crt_win32_buffer_no_resizing@@@@YAHQEB_WAEAV?$__crt_win32_buffer@DU__crt_win32_buffer_no_resizing@@@@AEBV<lambda_f788ae46380686e8b737efdd8c720d07>@@I@Z 00000001801cc090 f i libucrt:getmodulefilenamea.obj
 0001:001cb1ac       __acrt_GetModuleFileNameA  00000001801cc1ac f   libucrt:getmodulefilenamea.obj
 0001:001cbac8       __acrt_initialize_multibyte 00000001801ccac8 f   libucrt:mbctype.obj
 0001:001cbb28       __acrt_update_thread_multibyte_data 00000001801ccb28 f   libucrt:mbctype.obj
 0001:001cbb44       _setmbcp_nolock            00000001801ccb44 f   libucrt:mbctype.obj
 0001:001cbe78       _ismbblead                 00000001801cce78 f   libucrt:ismbbyte.obj
 0001:001cbe8c       __acrt_initialize_command_line 00000001801cce8c f   libucrt:argv_data.obj
 0001:001cbeb4       __acrt_MultiByteToWideChar 00000001801cceb4 f   libucrt:multibytetowidechar.obj
 0001:001cbf10       __acrt_WideCharToMultiByte 00000001801ccf10 f   libucrt:widechartomultibyte.obj
 0001:001cbfc0       __dcrt_get_narrow_environment_from_os 00000001801ccfc0 f   libucrt:get_environment_from_os.obj
 0001:001cc0d0       _recalloc_base             00000001801cd0d0 f   libucrt:recalloc.obj
 0001:001cc168       __acrt_initialize_heap     00000001801cd168 f   libucrt:heap_handle.obj
 0001:001cc184       __acrt_uninitialize_heap   00000001801cd184 f   libucrt:heap_handle.obj
 0001:001cc190       __acrt_execute_initializers 00000001801cd190 f   libucrt:shared_initialization.obj
 0001:001cc224       __acrt_execute_uninitializers 00000001801cd224 f   libucrt:shared_initialization.obj
 0001:001cc26c       __acrt_initialize_new_handler 00000001801cd26c f   libucrt:new_handler.obj
 0001:001cc274       _callnewh                  00000001801cd274 f   libucrt:new_handler.obj
 0001:001cc2b0       _query_new_handler         00000001801cd2b0 f   libucrt:new_handler.obj
 0001:001cc32c       __acrt_get_sigabrt_handler 00000001801cd32c f   libucrt:signal.obj
 0001:001cc35c       __acrt_initialize_signal_handlers 00000001801cd35c f   libucrt:signal.obj
 0001:001cc37c       raise                      00000001801cd37c f   libucrt:signal.obj
 0001:001cc5fc       __acrt_has_user_matherr    00000001801cd5fc f   libucrt:matherr.obj
 0001:001cc61c       __acrt_initialize_user_matherr 00000001801cd61c f   libucrt:matherr.obj
 0001:001cc624       __acrt_invoke_user_matherr 00000001801cd624 f   libucrt:matherr.obj
 0001:001cc65c       __pctype_func              00000001801cd65c f   libucrt:ctype.obj
 0001:001cc68c       _isctype_l                 00000001801cd68c f   libucrt:isctype.obj
 0001:001cc7b0       _get_fpsr                  00000001801cd7b0 f   libucrt:fpsr.obj
 0001:001cc7c0       _set_fpsr                  00000001801cd7c0 f   libucrt:fpsr.obj
 0001:001cc7ca       _fclrf                     00000001801cd7ca f   libucrt:fpsr.obj
 0001:001cc7de       _frnd                      00000001801cd7de f   libucrt:fpsr.obj
 0001:001cc800       _query_new_mode            00000001801cd800 f   libucrt:new_mode.obj
 0001:001cc808       __acrt_DownlevelLocaleNameToLCID 00000001801cd808 f   libucrt:lcidtoname_downlevel.obj
 0001:001cc9d0       fclose                     00000001801cd9d0 f   libucrt:fclose.obj
 0001:001ccaf4       _commit                    00000001801cdaf4 f   libucrt:commit.obj
 0001:001cd3a4       _write_internal            00000001801ce3a4 f   libucrt:write.obj
 0001:001cd4cc       _write_nolock              00000001801ce4cc f   libucrt:write.obj
 0001:001cd7dc       __acrt_lowio_create_handle_array 00000001801ce7dc f   libucrt:osfinfo.obj
 0001:001cd884       __acrt_lowio_destroy_handle_array 00000001801ce884 f   libucrt:osfinfo.obj
 0001:001cd8d4       __acrt_lowio_ensure_fh_exists 00000001801ce8d4 f   libucrt:osfinfo.obj
 0001:001cd97c       __acrt_lowio_lock_fh       00000001801ce97c f   libucrt:osfinfo.obj
 0001:001cd9a4       __acrt_lowio_unlock_fh     00000001801ce9a4 f   libucrt:osfinfo.obj
 0001:001cd9cc       _free_osfhnd               00000001801ce9cc f   libucrt:osfinfo.obj
 0001:001cda88       _get_osfhandle             00000001801cea88 f   libucrt:osfinfo.obj
 0001:001cdb00       __acrt_add_locale_ref      00000001801ceb00 f   libucrt:locale_refcounting.obj
 0001:001cdb8c       __acrt_free_locale         00000001801ceb8c f   libucrt:locale_refcounting.obj
 0001:001cdd04       __acrt_locale_add_lc_time_reference 00000001801ced04 f   libucrt:locale_refcounting.obj
 0001:001cdd2c       __acrt_locale_free_lc_time_if_unreferenced 00000001801ced2c f   libucrt:locale_refcounting.obj
 0001:001cdd64       __acrt_locale_release_lc_time_reference 00000001801ced64 f   libucrt:locale_refcounting.obj
 0001:001cdd8c       __acrt_release_locale_ref  00000001801ced8c f   libucrt:locale_refcounting.obj
 0001:001cde34       __acrt_update_thread_locale_data 00000001801cee34 f   libucrt:locale_refcounting.obj
 0001:001cdea4       _updatetlocinfoEx_nolock   00000001801ceea4 f   libucrt:locale_refcounting.obj
 0001:001cdf0c       __acrt_fp_strflt_to_string 00000001801cef0c f   libucrt:_fptostr.obj
 0001:001ce090       ?divide@__crt_strtox@@YA_KAEAUbig_integer@1@AEBU21@@Z 00000001801cf090 f i libucrt:cfout.obj
 0001:001ce51c       __acrt_fltout              00000001801cf51c f   libucrt:cfout.obj
 0001:001cf7e4       fegetround                 00000001801d07e4 f   libucrt:fegetround.obj
 0001:001cf7f8       ?__c32rtomb_utf8@__crt_mbstring@@YA_KPEAD_UPEAU_Mbstatet@@AEAV__crt_cached_ptd_host@@@Z 00000001801d07f8 f   libucrt:c32rtomb.obj
 0001:001cf89c       ?__mbrtowc_utf8@__crt_mbstring@@YA_KPEA_WPEBD_KPEAU_Mbstatet@@AEAV__crt_cached_ptd_host@@@Z 00000001801d089c f   libucrt:mbrtowc.obj
 0001:001cf8e0       ?__mbsrtowcs_utf8@__crt_mbstring@@YA_KPEA_WPEAPEBD_KPEAU_Mbstatet@@AEAV__crt_cached_ptd_host@@@Z 00000001801d08e0 f   libucrt:mbrtowc.obj
 0001:001cfbf8       __acrt_stdio_flush_and_write_narrow_nolock 00000001801d0bf8 f   libucrt:_flsbuf.obj
 0001:001cfcbc       _isatty                    00000001801d0cbc f   libucrt:isatty.obj
 0001:001cfd1c       __acrt_locale_free_monetary 00000001801d0d1c f   libucrt:initmon.obj
 0001:001cfe28       __acrt_locale_free_numeric 00000001801d0e28 f   libucrt:initnum.obj
 0001:001cfec8       __acrt_locale_free_time    00000001801d0ec8 f   libucrt:inittime.obj
 0001:001cffd0       __acrt_GetStringTypeA      00000001801d0fd0 f   libucrt:getstringtypea.obj
 0001:001d016c       _raise_exc                 00000001801d116c f   libucrt:fpexcept.obj
 0001:001d0194       _raise_exc_ex              00000001801d1194 f   libucrt:fpexcept.obj
 0001:001d04a4       _raise_excf                00000001801d14a4 f   libucrt:fpexcept.obj
 0001:001d04d0       _set_errno_from_matherr    00000001801d14d0 f   libucrt:fpexcept.obj
 0001:001d0500       qsort                      00000001801d1500 f   libucrt:qsort.obj
 0001:001d0910       strncpy_s                  00000001801d1910 f   libucrt:strncpy_s.obj
 0001:001d0aa0       strpbrk                    00000001801d1aa0 f   libucrt:strpbrk.obj
 0001:001d0e68       _mbsdec                    00000001801d1e68 f   libucrt:mbsdec.obj
 0001:001d0e70       _mbsdec_l                  00000001801d1e70 f   libucrt:mbsdec.obj
 0001:001d1224       __acrt_LCMapStringA        00000001801d2224 f   libucrt:lcmapstringa.obj
 0001:001d12d4       _msize_base                00000001801d22d4 f   libucrt:msize.obj
 0001:001d1310       _realloc_base              00000001801d2310 f   libucrt:realloc_base.obj
 0001:001d138c       __ascii_wcsnicmp           00000001801d238c f   libucrt:wcsnicmp.obj
 0001:001d1450       _close_internal            00000001801d2450 f   libucrt:close.obj
 0001:001d1514       _close_nolock_internal     00000001801d2514 f   libucrt:close.obj
 0001:001d15e4       ?__acrt_stdio_free_stream@@YAXV__crt_stdio_stream@@@Z 00000001801d25e4 f   libucrt:stream.obj
 0001:001d17d4       _lseeki64                  00000001801d27d4 f   libucrt:lseek.obj
 0001:001d1870       _lseeki64_nolock_internal  00000001801d2870 f   libucrt:lseek.obj
 0001:001d1878       _putwch_nolock             00000001801d2878 f   libucrt:putwch.obj
 0001:001d18b4       _query_app_type            00000001801d28b4 f   libucrt:report_runtime_error.obj
 0001:001d18bc       _controlfp_s               00000001801d28bc f   libucrt:contrlfp.obj
 0001:001d1920       fegetenv                   00000001801d2920 f   libucrt:fegetenv.obj
 0001:001d1940       fesetenv                   00000001801d2940 f   libucrt:fesetenv.obj
 0001:001d198c       feholdexcept               00000001801d298c f   libucrt:feholdexcept.obj
 0001:001d19dc       ceil                       00000001801d29dc f   libucrt:ceil.obj
 0001:001d1aa0       log10                      00000001801d2aa0 f   libucrt:log10.obj
 0001:001d204c       __acrt_fenv_get_common_round_control 00000001801d304c f   libucrt:_fenvutils.obj
 0001:001d2058       __acrt_fenv_get_control    00000001801d3058 f   libucrt:_fenvutils.obj
 0001:001d213c       __acrt_fenv_get_status     00000001801d313c f   libucrt:_fenvutils.obj
 0001:001d2194       __acrt_fenv_set_control    00000001801d3194 f   libucrt:_fenvutils.obj
 0001:001d22d0       __acrt_fenv_set_status     00000001801d32d0 f   libucrt:_fenvutils.obj
 0001:001d2344       ?reset_and_return@__crt_mbstring@@YA_K_KPEAU_Mbstatet@@@Z 00000001801d3344 f   libucrt:common_utf8.obj
 0001:001d234c       ?return_illegal_sequence@__crt_mbstring@@YA_KPEAU_Mbstatet@@AEAV__crt_cached_ptd_host@@@Z 00000001801d334c f   libucrt:common_utf8.obj
 0001:001d2360       ?__mbrtoc32_utf8@__crt_mbstring@@YA_KPEA_UPEBD_KPEAU_Mbstatet@@AEAV__crt_cached_ptd_host@@@Z 00000001801d3360 f   libucrt:mbrtoc32.obj
 0001:001d253c       __acrt_stdio_allocate_buffer_nolock 00000001801d353c f   libucrt:_getbuf.obj
 0001:001d25a8       __strncnt                  00000001801d35a8 f   libucrt:strncnt.obj
 0001:001d25c0       __dcrt_lowio_ensure_console_output_initialized 00000001801d35c0 f   libucrt:initcon.obj
 0001:001d2614       __dcrt_terminate_console_output 00000001801d3614 f   libucrt:initcon.obj
 0001:001d2630       __dcrt_write_console       00000001801d3630 f   libucrt:initcon.obj
 0001:001d26f0       _clearfp                   00000001801d36f0 f   libucrt:ieee.obj
 0001:001d2760       _control87                 00000001801d3760 f   libucrt:ieee.obj
 0001:001d2a30       _log10_special             00000001801d3a30 f   libucrt:log_special.obj
 0001:001d2af0       _FindPESection             00000001801d3af0 f   LIBCMT:pesect.obj
 0001:001d2b40       _IsNonwritableInCurrentImage 00000001801d3b40 f   LIBCMT:pesect.obj
 0001:001d2b90       _ValidateImageBase         00000001801d3b90 f   LIBCMT:pesect.obj
 0001:001d2bc0       __GSHandlerCheck           00000001801d3bc0 f   LIBCMT:gshandler.obj
 0001:001d2be0       __GSHandlerCheckCommon     00000001801d3be0 f   LIBCMT:gshandler.obj
 0001:001d2c50       __security_check_cookie    00000001801d3c50 f   LIBCMT:amdsecgs.obj
 0001:001d2c70       __GSHandlerCheck_SEH       00000001801d3c70 f   LIBCMT:gshandlerseh.obj
 0001:001d2cf8       __raise_securityfailure    00000001801d3cf8 f   LIBCMT:gs_report.obj
 0001:001d2d2c       __report_gsfailure         00000001801d3d2c f   LIBCMT:gs_report.obj
 0001:001d2e00       __report_rangecheckfailure 00000001801d3e00 f   LIBCMT:gs_report.obj
 0001:001d2e14       __report_securityfailure   00000001801d3e14 f   LIBCMT:gs_report.obj
 0001:001d2f94       __GSHandlerCheck_EH        00000001801d3f94 f   LIBCMT:gshandlereh.obj
 0001:001d3014       __C_specific_handler_noexcept 00000001801d4014 f   libvcruntime:chandler_noexcept.obj
 0001:001d3060       strrchr                    00000001801d4060 f   libvcruntime:strrchr.obj
 0001:001d31a0       memcmp                     00000001801d41a0 f   libvcruntime:memcmp.obj
 0001:001d3280       _guard_dispatch_icall_nop  00000001801d4280 f   LIBCMT:guard_dispatch.obj
 0001:001d32a0       _guard_xfg_dispatch_icall_nop 00000001801d42a0 f   LIBCMT:guard_xfg_dispatch.obj
 0002:00000000       __imp_GetLastError         00000001801d5000     kernel32:KERNEL32.dll
 0002:00000008       __imp_FreeLibrary          00000001801d5008     kernel32:KERNEL32.dll
 0002:00000010       __imp_GetProcAddress       00000001801d5010     kernel32:KERNEL32.dll
 0002:00000018       __imp_LoadLibraryA         00000001801d5018     kernel32:KERNEL32.dll
 0002:00000020       __imp_RaiseException       00000001801d5020     kernel32:KERNEL32.dll
 0002:00000028       __imp_GetSystemInfo        00000001801d5028     kernel32:KERNEL32.dll
 0002:00000030       __imp_VirtualProtect       00000001801d5030     kernel32:KERNEL32.dll
 0002:00000038       __imp_VirtualQuery         00000001801d5038     kernel32:KERNEL32.dll
 0002:00000040       __imp_GetModuleHandleW     00000001801d5040     kernel32:KERNEL32.dll
 0002:00000048       __imp_LoadLibraryExA       00000001801d5048     kernel32:KERNEL32.dll
 0002:00000050       __imp_InitializeSListHead  00000001801d5050     kernel32:KERNEL32.dll
 0002:00000058       __imp_RtlCaptureContext    00000001801d5058     kernel32:KERNEL32.dll
 0002:00000060       __imp_RtlLookupFunctionEntry 00000001801d5060     kernel32:KERNEL32.dll
 0002:00000068       __imp_RtlVirtualUnwind     00000001801d5068     kernel32:KERNEL32.dll
 0002:00000070       __imp_IsDebuggerPresent    00000001801d5070     kernel32:KERNEL32.dll
 0002:00000078       __imp_UnhandledExceptionFilter 00000001801d5078     kernel32:KERNEL32.dll
 0002:00000080       __imp_SetUnhandledExceptionFilter 00000001801d5080     kernel32:KERNEL32.dll
 0002:00000088       __imp_GetStartupInfoW      00000001801d5088     kernel32:KERNEL32.dll
 0002:00000090       __imp_IsProcessorFeaturePresent 00000001801d5090     kernel32:KERNEL32.dll
 0002:00000098       __imp_QueryPerformanceCounter 00000001801d5098     kernel32:KERNEL32.dll
 0002:000000a0       __imp_GetCurrentProcessId  00000001801d50a0     kernel32:KERNEL32.dll
 0002:000000a8       __imp_GetCurrentThreadId   00000001801d50a8     kernel32:KERNEL32.dll
 0002:000000b0       __imp_GetSystemTimeAsFileTime 00000001801d50b0     kernel32:KERNEL32.dll
 0002:000000b8       __imp_InterlockedPushEntrySList 00000001801d50b8     kernel32:KERNEL32.dll
 0002:000000c0       __imp_InterlockedFlushSList 00000001801d50c0     kernel32:KERNEL32.dll
 0002:000000c8       __imp_RtlUnwindEx          00000001801d50c8     kernel32:KERNEL32.dll
 0002:000000d0       __imp_SetLastError         00000001801d50d0     kernel32:KERNEL32.dll
 0002:000000d8       __imp_EnterCriticalSection 00000001801d50d8     kernel32:KERNEL32.dll
 0002:000000e0       __imp_LeaveCriticalSection 00000001801d50e0     kernel32:KERNEL32.dll
 0002:000000e8       __imp_DeleteCriticalSection 00000001801d50e8     kernel32:KERNEL32.dll
 0002:000000f0       __imp_InitializeCriticalSectionAndSpinCount 00000001801d50f0     kernel32:KERNEL32.dll
 0002:000000f8       __imp_TlsAlloc             00000001801d50f8     kernel32:KERNEL32.dll
 0002:00000100       __imp_TlsGetValue          00000001801d5100     kernel32:KERNEL32.dll
 0002:00000108       __imp_TlsSetValue          00000001801d5108     kernel32:KERNEL32.dll
 0002:00000110       __imp_TlsFree              00000001801d5110     kernel32:KERNEL32.dll
 0002:00000118       __imp_LoadLibraryExW       00000001801d5118     kernel32:KERNEL32.dll
 0002:00000120       __imp_EncodePointer        00000001801d5120     kernel32:KERNEL32.dll
 0002:00000128       __imp_RtlPcToFileHeader    00000001801d5128     kernel32:KERNEL32.dll
 0002:00000130       __imp_GetCurrentProcess    00000001801d5130     kernel32:KERNEL32.dll
 0002:00000138       __imp_ExitProcess          00000001801d5138     kernel32:KERNEL32.dll
 0002:00000140       __imp_TerminateProcess     00000001801d5140     kernel32:KERNEL32.dll
 0002:00000148       __imp_GetModuleHandleExW   00000001801d5148     kernel32:KERNEL32.dll
 0002:00000150       __imp_GetModuleFileNameW   00000001801d5150     kernel32:KERNEL32.dll
 0002:00000158       __imp_HeapAlloc            00000001801d5158     kernel32:KERNEL32.dll
 0002:00000160       __imp_HeapFree             00000001801d5160     kernel32:KERNEL32.dll
 0002:00000168       __imp_FlsAlloc             00000001801d5168     kernel32:KERNEL32.dll
 0002:00000170       __imp_FlsGetValue          00000001801d5170     kernel32:KERNEL32.dll
 0002:00000178       __imp_FlsSetValue          00000001801d5178     kernel32:KERNEL32.dll
 0002:00000180       __imp_FlsFree              00000001801d5180     kernel32:KERNEL32.dll
 0002:00000188       __imp_LCMapStringW         00000001801d5188     kernel32:KERNEL32.dll
 0002:00000190       __imp_GetStdHandle         00000001801d5190     kernel32:KERNEL32.dll
 0002:00000198       __imp_GetFileType          00000001801d5198     kernel32:KERNEL32.dll
 0002:000001a0       __imp_FindClose            00000001801d51a0     kernel32:KERNEL32.dll
 0002:000001a8       __imp_FindFirstFileExW     00000001801d51a8     kernel32:KERNEL32.dll
 0002:000001b0       __imp_FindNextFileW        00000001801d51b0     kernel32:KERNEL32.dll
 0002:000001b8       __imp_IsValidCodePage      00000001801d51b8     kernel32:KERNEL32.dll
 0002:000001c0       __imp_GetACP               00000001801d51c0     kernel32:KERNEL32.dll
 0002:000001c8       __imp_GetOEMCP             00000001801d51c8     kernel32:KERNEL32.dll
 0002:000001d0       __imp_GetCPInfo            00000001801d51d0     kernel32:KERNEL32.dll
 0002:000001d8       __imp_GetCommandLineA      00000001801d51d8     kernel32:KERNEL32.dll
 0002:000001e0       __imp_GetCommandLineW      00000001801d51e0     kernel32:KERNEL32.dll
 0002:000001e8       __imp_MultiByteToWideChar  00000001801d51e8     kernel32:KERNEL32.dll
 0002:000001f0       __imp_WideCharToMultiByte  00000001801d51f0     kernel32:KERNEL32.dll
 0002:000001f8       __imp_GetEnvironmentStringsW 00000001801d51f8     kernel32:KERNEL32.dll
 0002:00000200       __imp_FreeEnvironmentStringsW 00000001801d5200     kernel32:KERNEL32.dll
 0002:00000208       __imp_GetProcessHeap       00000001801d5208     kernel32:KERNEL32.dll
 0002:00000210       __imp_FlushFileBuffers     00000001801d5210     kernel32:KERNEL32.dll
 0002:00000218       __imp_WriteFile            00000001801d5218     kernel32:KERNEL32.dll
 0002:00000220       __imp_GetConsoleOutputCP   00000001801d5220     kernel32:KERNEL32.dll
 0002:00000228       __imp_GetConsoleMode       00000001801d5228     kernel32:KERNEL32.dll
 0002:00000230       __imp_SetStdHandle         00000001801d5230     kernel32:KERNEL32.dll
 0002:00000238       __imp_GetFileSizeEx        00000001801d5238     kernel32:KERNEL32.dll
 0002:00000240       __imp_SetFilePointerEx     00000001801d5240     kernel32:KERNEL32.dll
 0002:00000248       __imp_GetStringTypeW       00000001801d5248     kernel32:KERNEL32.dll
 0002:00000250       __imp_HeapSize             00000001801d5250     kernel32:KERNEL32.dll
 0002:00000258       __imp_HeapReAlloc          00000001801d5258     kernel32:KERNEL32.dll
 0002:00000260       __imp_CloseHandle          00000001801d5260     kernel32:KERNEL32.dll
 0002:00000268       __imp_CreateFileW          00000001801d5268     kernel32:KERNEL32.dll
 0002:00000270       __imp_WriteConsoleW        00000001801d5270     kernel32:KERNEL32.dll
 0002:00000278       \177KERNEL32_NULL_THUNK_DATA 00000001801d5278     kernel32:KERNEL32.dll
 0002:00000280       __guard_check_icall_fptr   00000001801d5280     LIBCMT:guard_support.obj
 0002:00000288       __guard_xfg_check_icall_fptr 00000001801d5288     LIBCMT:guard_support.obj
 0002:00000290       __guard_dispatch_icall_fptr 00000001801d5290     LIBCMT:guard_support.obj
 0002:00000298       __guard_xfg_dispatch_icall_fptr 00000001801d5298     LIBCMT:guard_support.obj
 0002:000002a0       __guard_xfg_table_dispatch_icall_fptr 00000001801d52a0     LIBCMT:guard_support.obj
 0002:000002a8       __xc_a                     00000001801d52a8     LIBCMT:initializers.obj
 0002:00001b60       __xc_z                     00000001801d6b60     LIBCMT:initializers.obj
 0002:00001b68       __xi_a                     00000001801d6b68     LIBCMT:initializers.obj
 0002:00001b70       __acrt_stdio_initializer   00000001801d6b70     libucrt:stdio_initializer.obj
 0002:00001b78       __acrt_tran_fma3_initializer 00000001801d6b78     libucrt:fma3_initializer.obj
 0002:00001b80       __acrt_multibyte_initializer 00000001801d6b80     libucrt:multibyte_initializer.obj
 0002:00001b88       __xi_z                     00000001801d6b88     LIBCMT:initializers.obj
 0002:00001b90       __xp_a                     00000001801d6b90     LIBCMT:initializers.obj
 0002:00001b98       __acrt_locale_terminator   00000001801d6b98     libucrt:locale_initializer.obj
 0002:00001ba0       __dcrt_console_output_terminator 00000001801d6ba0     libucrt:console_output_initializer.obj
 0002:00001ba8       __acrt_stdio_terminator    00000001801d6ba8     libucrt:stdio_initializer.obj
 0002:00001bb0       __xp_z                     00000001801d6bb0     LIBCMT:initializers.obj
 0002:00001bb8       __xt_a                     00000001801d6bb8     LIBCMT:initializers.obj
 0002:00001bc0       __xt_z                     00000001801d6bc0     LIBCMT:initializers.obj
 0002:00001bd0       ??_C@_08MDGMHCHN@PtrTable@ 00000001801d6bd0     CmPtrTable.obj
 0002:00001bdc       ??_C@_04GKJNKENE@void@     00000001801d6bdc     CmPtrTable.obj
 0002:00001be8       ??_C@_07DFEBJDHE@mSingle@  00000001801d6be8     CmPtrTable.obj
 0002:00001bf0       ??_C@_05NLHHBMOH@PxU16@    00000001801d6bf0     CmPtrTable.obj
 0002:00001bf8       ??_C@_06EPKHJPIM@mCount@   00000001801d6bf8     CmPtrTable.obj
 0002:00001c00       ??_C@_04DDKJGDCM@bool@     00000001801d6c00     CmPtrTable.obj
 0002:00001c08       ??_C@_0M@DAGELID@mOwnsMemory@ 00000001801d6c08     CmPtrTable.obj
 0002:00001c18       ??_C@_0M@MMPOMMLP@mBufferUsed@ 00000001801d6c18     CmPtrTable.obj
 0002:00001c24       ??_C@_05LMJPANIN@PxU32@    00000001801d6c24     CmPtrTable.obj
 0002:00001c30       ??_C@_09PMLNMEMN@mFreeSlot@ 00000001801d6c30     CmPtrTable.obj
 0002:00001c40       ??_7PxCollection@physx@@6B@ 00000001801d6c40     CmCollection.obj
 0002:00001cc0       ??_C@_00CNPNBAHC@@         00000001801d6cc0     CmCollection.obj
 0002:00001cc8       ??_7Collection@Cm@physx@@6B@ 00000001801d6cc8     CmCollection.obj
 0002:00001d50       ??_C@_0GE@GBACBMOC@PxCollection?3?3add?5called?5for?5an@ 00000001801d6d50     CmCollection.obj
 0002:00001dc0       ??_C@_0GA@NBHEFEHL@C?3?2Users?2hans_?2OneDrive?2Skriveb@ 00000001801d6dc0     CmCollection.obj
 0002:00001e20       ??_C@_0EM@OMMGDOMK@PxCollection?3?3add?5called?5with?5a@ 00000001801d6e20     CmCollection.obj
 0002:00001e70       ??_C@_0EL@CBFFIHFG@PxCollection?3?3remove?5called?5for@ 00000001801d6e70     CmCollection.obj
 0002:00001ec0       ??_C@_0EP@DBNENNLL@PxCollection?3?3addId?5called?5for?5@ 00000001801d6ec0     CmCollection.obj
 0002:00001f10       ??_C@_0FL@DACPFKDD@PxCollection?3?3addId?5called?5with@ 00000001801d6f10     CmCollection.obj
 0002:00001f70       ??_C@_0EP@GMPAMDKI@PxCollection?3?3addId?5called?5with@ 00000001801d6f70     CmCollection.obj
 0002:00001fc0       ??_C@_0FO@DIHIGAFD@PxCollection?3?3removeId?5called?5w@ 00000001801d6fc0     CmCollection.obj
 0002:00002020       ??_C@_0FF@MENHIPMD@PxCollection?3?3removeId?5called?5w@ 00000001801d7020     CmCollection.obj
 0002:00002080       ??_C@_0FK@BAFICJEM@PxCollection?3?3find?5called?5with?5@ 00000001801d7080     CmCollection.obj
 0002:000020e0       ??_C@_0DF@CLGAFPLL@PxCollection?3?3add?$CIPxCollection?$CG@ 00000001801d70e0     CmCollection.obj
 0002:00002118       ??_C@_0DN@DMJACFO@PxCollection?3?3add?$CIPxCollection?$CG@ 00000001801d7118     CmCollection.obj
 0002:00002158       ??_C@_0DI@DICAIAPC@PxCollection?3?3remove?$CIPxCollecti@ 00000001801d7158     CmCollection.obj
 0002:00002190       ??_C@_0DG@LOILDLGN@PxCollection?3?3getObjects?5called@ 00000001801d7190     CmCollection.obj
 0002:000021c8       ??_C@_0DD@GMICJLDJ@PxCollection?3?3getObjects?5called@ 00000001801d71c8     CmCollection.obj
 0002:00002200       ??_C@_0DC@GILGGBAI@PxCollection?3?3getIds?5called?5wit@ 00000001801d7200     CmCollection.obj
 0002:00002238       ??_C@_0CP@LFEKADKN@PxCollection?3?3getIds?5called?5wit@ 00000001801d7238     CmCollection.obj
 0002:00002270       ??_C@_0GC@DOANJPOC@C?3?2Users?2hans_?2OneDrive?2Skriveb@ 00000001801d7270     CmCollection.obj
 0002:000022d8       ??_C@_0BM@OIFKLHDN@?$DMallocation?5names?5disabled?$DO@ 00000001801d72d8     CmCollection.obj
 0002:000022f8       ??_7RadixSort@Cm@physx@@6B@ 00000001801d72f8     CmRadixSort.obj
 0002:00002300       ??_7RadixSortBuffered@Cm@physx@@6B@ 00000001801d7300     CmRadixSort.obj
 0002:00002310       ??_C@_0FP@BHKDOIJF@C?3?2Users?2hans_?2OneDrive?2Skriveb@ 00000001801d7310     CmRadixSort.obj
 0002:00002370       __xmm@00000001000000010000000100000001 00000001801d7370     CmRadixSort.obj
 0002:00002380       __xmm@00000003000000020000000100000000 00000001801d7380     CmRadixSort.obj
 0002:00002390       __real@343bbd2e            00000001801d7390     CmVisualization.obj
 0002:00002394       __real@3d00adfd            00000001801d7394     CmVisualization.obj
 0002:00002398       __real@3d4ccccd            00000001801d7398     CmVisualization.obj
 0002:0000239c       __real@3d80adfd            00000001801d739c     CmVisualization.obj
 0002:000023a0       __real@3e19999a            00000001801d73a0     CmVisualization.obj
 0002:000023a4       __real@3e490fdb            00000001801d73a4     CmVisualization.obj
 0002:000023a8       __real@3e800000            00000001801d73a8     CmVisualization.obj
 0002:000023ac       __real@3e99999a            00000001801d73ac     CmVisualization.obj
 0002:000023b0       __real@3ea0d97c            00000001801d73b0     CmVisualization.obj
 0002:000023b4       __real@3eddb3d7            00000001801d73b4     CmVisualization.obj
 0002:000023b8       __real@3f000000            00000001801d73b8     CmVisualization.obj
 0002:000023bc       __real@3f3504f3            00000001801d73bc     CmVisualization.obj
 0002:000023c0       __real@3f800000            00000001801d73c0     CmVisualization.obj
 0002:000023c4       __real@3fc00000            00000001801d73c4     CmVisualization.obj
 0002:000023c8       __real@3fddb3d7            00000001801d73c8     CmVisualization.obj
 0002:000023cc       __real@40100000            00000001801d73cc     CmVisualization.obj
 0002:000023d0       __real@40490fdb            00000001801d73d0     CmVisualization.obj
 0002:000023d4       __real@40c90fdb            00000001801d73d4     CmVisualization.obj
 0002:000023d8       __real@b3bbbd2e            00000001801d73d8     CmVisualization.obj
 0002:000023dc       __real@beddb3d7            00000001801d73dc     CmVisualization.obj
 0002:000023e0       __real@c0000000            00000001801d73e0     CmVisualization.obj
 0002:000023f0       __xmm@3f800000000000000000000000000000 00000001801d73f0     CmVisualization.obj
 0002:00002400       __xmm@7fffffff7fffffff7fffffff7fffffff 00000001801d7400     CmVisualization.obj
 0002:00002410       __xmm@80000000800000008000000080000000 00000001801d7410     CmVisualization.obj
 0002:00002420       ??_C@_0BB@CPDDPFKD@GetUpdatedModule@ 00000001801d7420     CmWindowsModuleUpdateLoader.obj
 0002:00002440       ??_C@_0HH@KOJPMFOC@C?3?2Users?2hans_?2OneDrive?2Skriveb@ 00000001801d7440     CmWindowsModuleUpdateLoader.obj
 0002:000024b8       ??_C@_0CP@PGOIOJOO@?$CFs?3?$CFi?3?5loadLibrary?5error?5when?5l@ 00000001801d74b8     CmWindowsModuleUpdateLoader.obj
 0002:000024e8       ??_C@_0BA@EGLNOO@PhysXFoundation@ 00000001801d74e8     CmWindowsDelayLoadHook.obj
 0002:000024f8       ??_C@_0M@ILKNCJKN@PhysXCommon@ 00000001801d74f8     CmWindowsDelayLoadHook.obj
 0002:00002530       __real@3f7ff972            00000001801d7530     GuBox.obj
 0002:00002540       __xmm@000000003a83126f3a83126f3a83126f 00000001801d7540     GuBox.obj
 0002:00002550       __xmm@00000000ba83126fba83126fba83126f 00000001801d7550     GuBox.obj
 0002:00002560       __xmm@3a83126f3a83126f3a83126f3a83126f 00000001801d7560     GuBox.obj
 0002:00002570       __xmm@ba83126fba83126fba83126fba83126f 00000001801d7570     GuBox.obj
 0002:000025a0       ??_7EntityReport@Gu@physx@@6B@ 00000001801d75a0     GuSweepsHF.obj
 0002:000025a0       ??_7RaycastCallback@PxBVH@physx@@6B@ 00000001801d75a0     GuQuerySystem.obj
 0002:000025a0       ??_7RemapCallback@RTreeCooker@physx@@6B@ 00000001801d75a0     GuCookingTriangleMesh.obj
 0002:000025a0       ??_7OverlapCallback@PxBVH@physx@@6B@ 00000001801d75a0     GuQuerySystem.obj
 0002:000025a0       ??_7OverlapReport@Gu@physx@@6B@ 00000001801d75a0     GuCCTSweepTests.obj
 0002:000025c0       __real@3b03126f            00000001801d75c0     GuCCTSweepTests.obj
 0002:000025c4       __real@40000000            00000001801d75c4     GuCCTSweepTests.obj
 0002:00002600       ??_C@_0CD@CGJJEFHC@Gu?3?3overlap?$CI?$CJ?3?5pose0?5is?5not?5val@ 00000001801d7600     GuGeometryQuery.obj
 0002:00002630       ??_C@_0GH@EODMBEGL@C?3?2Users?2hans_?2OneDrive?2Skriveb@ 00000001801d7630     GuGeometryQuery.obj
 0002:00002698       ??_C@_0CD@IIPBNEOD@Gu?3?3overlap?$CI?$CJ?3?5pose1?5is?5not?5val@ 00000001801d7698     GuGeometryQuery.obj
 0002:000026c0       ??_7SupportLocal@Gu@physx@@6B@ 00000001801d76c0     GuGeometryQuery.obj
 0002:000026e0       ??_C@_0CO@DGHGHPPJ@PxGeometryQuery?3?3sweep?$CI?$CJ?3?5pose0@ 00000001801d76e0     GuGeometryQuery.obj
 0002:00002710       ??_C@_0GG@EGMDKCDG@C?3?2Users?2hans_?2OneDrive?2Skriveb@ 00000001801d7710     GuGeometryQuery.obj
 0002:00002778       ??_C@_0CO@JIBOOOGI@PxGeometryQuery?3?3sweep?$CI?$CJ?3?5pose1@ 00000001801d7778     GuGeometryQuery.obj
 0002:000027a8       ??_C@_0DA@JEEBDBEM@PxGeometryQuery?3?3sweep?$CI?$CJ?3?5unitD@ 00000001801d77a8     GuGeometryQuery.obj
 0002:000027d8       ??_C@_0DB@KCEKJBPE@PxGeometryQuery?3?3sweep?$CI?$CJ?3?5dista@ 00000001801d77d8     GuGeometryQuery.obj
 0002:00002810       ??_C@_0FM@HAJNNJNC@PxGeometryQuery?3?3sweep?$CI?$CJ?3?5sweep@ 00000001801d7810     GuGeometryQuery.obj
 0002:00002870       ??_C@_0CB@JDDBKCNL@Provided?5geometry?50?5is?5not?5vali@ 00000001801d7870     GuGeometryQuery.obj
 0002:00002898       ??_C@_0CB@CKMKHJDD@Provided?5geometry?51?5is?5not?5vali@ 00000001801d7898     GuGeometryQuery.obj
 0002:000028c0       ??_C@_0GL@GJKJELMB@PxGeometryQuery?3?3sweep?$CI?$CJ?3?5first@ 00000001801d78c0     GuGeometryQuery.obj
 0002:00002930       ??_C@_0DB@OMDGMOND@PxGeometryQuery?3?3raycast?$CI?$CJ?3?5ray@ 00000001801d7930     GuGeometryQuery.obj
 0002:00002968       ??_C@_0DE@MGFNMBNA@PxGeometryQuery?3?3raycast?$CI?$CJ?3?5ray@ 00000001801d7968     GuGeometryQuery.obj
 0002:000029a0       ??_C@_0CP@NHLDPNEB@PxGeometryQuery?3?3raycast?$CI?$CJ?3?5pos@ 00000001801d79a0     GuGeometryQuery.obj
 0002:000029d0       ??_C@_0DB@HPNPNEMP@PxGeometryQuery?3?3raycast?$CI?$CJ?3?5max@ 00000001801d79d0     GuGeometryQuery.obj
 0002:00002a08       ??_C@_0DC@BLMIOBO@PxGeometryQuery?3?3raycast?$CI?$CJ?3?5max@ 00000001801d7a08     GuGeometryQuery.obj
 0002:00002a40       ??_C@_0DP@IPJGHFJE@PxGeometryQuery?3?3raycast?$CI?$CJ?3?5ray@ 00000001801d7a40     GuGeometryQuery.obj
 0002:00002a80       ??_C@_0DF@BMEFDPAL@PxGeometryQuery?3?3pointDistance?$CI@ 00000001801d7a80     GuGeometryQuery.obj
 0002:00002ac0       ??_C@_0HD@CIHHMJFE@PxGeometryQuery?3?3pointDistance?$CI@ 00000001801d7ac0     GuGeometryQuery.obj
 0002:00002b38       ??_C@_0DJ@FHLFMELL@PxGeometryQuery?3?3computeGeomBou@ 00000001801d7b38     GuGeometryQuery.obj
 0002:00002b78       ??_C@_0DG@IHHENNM@PxGeometryQuery?3?3getWorldBounds@ 00000001801d7b78     GuGeometryQuery.obj
 0002:00002bb0       ??_C@_0DL@LECAKFBF@PxGeometryQuery?3?3computePenetra@ 00000001801d7bb0     GuGeometryQuery.obj
 0002:00002bf0       ??_C@_0DL@BKEIDEIE@PxGeometryQuery?3?3computePenetra@ 00000001801d7bf0     GuGeometryQuery.obj
 0002:00002c30       ??_7?$SupportLocalImpl@VBoxV@Gu@physx@@@Gu@physx@@6B@ 00000001801d7c30     GuGeometryQuery.obj
 0002:00002c50       ??_7?$SupportLocalImpl@VConvexHullV@Gu@physx@@@Gu@physx@@6B@ 00000001801d7c50     GuGeometryQuery.obj
 0002:00002c70       ??_C@_0FK@BAGAHBBM@C?3?2Users?2hans_?2OneDrive?2Skriveb@ 00000001801d7c70     GuGeometryQuery.obj
 0002:00002ccc       __real@30d1b7e9            00000001801d7ccc     GuGeometryQuery.obj
 0002:00002cd0       __real@322bcc77            00000001801d7cd0     GuGeometryQuery.obj
 0002:00002cd4       __real@358637bd            00000001801d7cd4     GuGeometryQuery.obj
 0002:00002cd8       __real@38d1b717            00000001801d7cd8     GuGeometryQuery.obj
 0002:00002cdc       __real@3a83126f            00000001801d7cdc     GuGeometryQuery.obj
 0002:00002ce0       __real@3ccccccd            00000001801d7ce0     GuGeometryQuery.obj
 0002:00002ce4       __real@3dcccccd            00000001801d7ce4     GuGeometryQuery.obj
 0002:00002ce8       __real@49742400            00000001801d7ce8     GuGeometryQuery.obj
 0002:00002cec       __real@7f7fffff            00000001801d7cec     GuGeometryQuery.obj
 0002:00002cf0       __real@bf800000            00000001801d7cf0     GuGeometryQuery.obj
 0002:00002d00       __xmm@0000000000000000000000003f800000 00000001801d7d00     GuGeometryQuery.obj
 0002:00002d10       __xmm@00000000000000003f80000000000000 00000001801d7d10     GuGeometryQuery.obj
 0002:00002d20       __xmm@00000000000000003f8000003f800000 00000001801d7d20     GuGeometryQuery.obj
 0002:00002d30       __xmm@000000003f8000000000000000000000 00000001801d7d30     GuGeometryQuery.obj
 0002:00002d40       __xmm@000000003f8000003f8000003f800000 00000001801d7d40     GuGeometryQuery.obj
 0002:00002d50       __xmm@00000000ffffffffffffffffffffffff 00000001801d7d50     GuGeometryQuery.obj
 0002:00002d60       __xmm@3d4ccccd3d4ccccd3d4ccccd3d4ccccd 00000001801d7d60     GuGeometryQuery.obj
 0002:00002d70       __xmm@3e19999a3e19999a3e19999a3e19999a 00000001801d7d70     GuGeometryQuery.obj
 0002:00002d80       __xmm@3e4ccccd3e4ccccd3e4ccccd3e4ccccd 00000001801d7d80     GuGeometryQuery.obj
 0002:00002d90       __xmm@3e8000003e8000003e8000003e800000 00000001801d7d90     GuGeometryQuery.obj
 0002:00002da0       __xmm@3f7ef9db3f7ef9db3f7ef9db3f7ef9db 00000001801d7da0     GuGeometryQuery.obj
 0002:00002db0       __xmm@3f7ff2e53f7ff2e53f7ff2e53f7ff2e5 00000001801d7db0     GuGeometryQuery.obj
 0002:00002dc0       __xmm@7f7fffff7f7fffff7f7fffff7f7fffff 00000001801d7dc0     GuGeometryQuery.obj
 0002:00002dd0       __xmm@bf000000bf000000bf000000bf000000 00000001801d7dd0     GuGeometryQuery.obj
 0002:00002e10       ??_C@_0EM@BDFDGBD@Inserting?5object?5failed?3?5Object@ 00000001801d7e10     GuMeshFactory.obj
 0002:00002e80       ??_7CallbackRaycast@RTree@Gu@physx@@6B@ 00000001801d7e80     GuMidphaseRTree.obj
 0002:00002e80       ??_7PxInsertionCallback@physx@@6B@ 00000001801d7e80     GuMeshFactory.obj
 0002:00002e80       ??_7CallbackRefit@RTree@Gu@physx@@6B@ 00000001801d7e80     GuTriangleMeshRTree.obj
 0002:00002e90       ??_C@_0GE@IOIOCDGE@C?3?2Users?2hans_?2OneDrive?2Skriveb@ 00000001801d7e90     GuMeshFactory.obj
 0002:00002ef8       ??_7PxCollisionMeshMappingData@physx@@6B@ 00000001801d7ef8     GuMeshFactory.obj
 0002:00002f08       ??_7MeshFactory@Gu@physx@@6B@ 00000001801d7f08     GuMeshFactory.obj
 0002:00002f10       ??_7MeshDataBase@Gu@physx@@6B@ 00000001801d7f10     GuMeshFactory.obj
 0002:00002f20       ??_C@_0GE@GAFICNOD@C?3?2Users?2hans_?2OneDrive?2Skriveb@ 00000001801d7f20     GuMeshFactory.obj
 0002:00002f88       ??_7TriangleMeshData@Gu@physx@@6B@ 00000001801d7f88     GuMeshFactory.obj
 0002:00002f90       ??_7RTreeTriangleData@Gu@physx@@6B@ 00000001801d7f90     GuMeshFactory.obj
 0002:00002f98       ??_7BV4TriangleData@Gu@physx@@6B@ 00000001801d7f98     GuMeshFactory.obj
 0002:00002fa0       ??_7SoftBodyCollisionData@Gu@physx@@6B@ 00000001801d7fa0     GuMeshFactory.obj
 0002:00002fa8       ??_7CollisionMeshMappingData@Gu@physx@@6B@ 00000001801d7fa8     GuMeshFactory.obj
 0002:00002fb8       ??_7SoftBodySimulationData@Gu@physx@@6B@ 00000001801d7fb8     GuMeshFactory.obj
 0002:00002fc0       ??_C@_0GP@NHELMDAL@Loading?5triangle?5mesh?5failed?3?5D@ 00000001801d7fc0     GuMeshFactory.obj
 0002:00003030       ??_C@_0BP@CDOKDACA@RTree?5binary?5image?5load?5error?4@ 00000001801d8030     GuMeshFactory.obj
 0002:00003050       ??_C@_0BN@MJPNIELF@BV4?5binary?5image?5load?5error?4@ 00000001801d8050     GuMeshFactory.obj
 0002:00003070       ??_C@_0BO@JDPABAOF@BV32?5binary?5image?5load?5error?4@ 00000001801d8070     GuMeshFactory.obj
 0002:00003090       ??_C@_0FK@BJANHIGF@C?3?2Users?2hans_?2OneDrive?2Skriveb@ 00000001801d8090     GuMeshFactory.obj
 0002:000030f0       __xmm@cdcdcdcdcdcdcdcdcdcdcdcdcdcdcdcd 00000001801d80f0     GuMeshFactory.obj
 0002:00003100       __xmm@fe7fffff7e7fffff7e7fffff7e7fffff 00000001801d8100     GuMeshFactory.obj
 0002:00003130       ??_C@_06EJKDJEDO@PxBase@   00000001801d8130     GuMetaData.obj
 0002:00003138       ??_C@_07GFCEJNGM@Valency@  00000001801d8138     GuMetaData.obj
 0002:00003140       ??_C@_07NHGKEEIN@mOffset@  00000001801d8140     GuMetaData.obj
 0002:00003148       ??_C@_0BB@BAGHBMNJ@BigConvexRawData@ 00000001801d8148     GuMetaData.obj
 0002:00003160       ??_C@_07PBDEJAAC@mSubdiv@  00000001801d8160     GuMetaData.obj
 0002:00003168       ??_C@_0L@HNPACPGH@mNbSamples@ 00000001801d8168     GuMetaData.obj
 0002:00003174       ??_C@_04NCKNBPPK@PxU8@     00000001801d8174     GuMetaData.obj
 0002:00003180       ??_C@_08DEPEKJNI@mSamples@ 00000001801d8180     GuMetaData.obj
 0002:00003190       ??_C@_08IJDNJBMI@mNbVerts@ 00000001801d8190     GuMetaData.obj
 0002:000031a0       ??_C@_0M@MMKMIJAF@mNbAdjVerts@ 00000001801d81a0     GuMetaData.obj
 0002:000031b0       ??_C@_0L@EOKMNILC@mValencies@ 00000001801d81b0     GuMetaData.obj
 0002:000031c0       ??_C@_0P@DLGEAMHJ@mAdjacentVerts@ 00000001801d81c0     GuMetaData.obj
 0002:000031d0       ??_C@_03NGLDENDA@SDF@      00000001801d81d0     GuMetaData.obj
 0002:000031d4       ??_C@_06KDGGGLIJ@PxVec3@   00000001801d81d4     GuMetaData.obj
 0002:000031dc       ??_C@_06GIEBFILM@PxReal@   00000001801d81dc     GuMetaData.obj
 0002:000031e8       ??_C@_0O@PFOPBKAM@BigConvexData@ 00000001801d81e8     GuMetaData.obj
 0002:000031f8       ??_C@_05PLKALGFN@mData@    00000001801d81f8     GuMetaData.obj
 0002:00003200       ??_C@_08PEMCLHEM@mVBuffer@ 00000001801d8200     GuMetaData.obj
 0002:00003210       ??_C@_09FBMAGD@Alignment@  00000001801d8210     GuMetaData.obj
 0002:00003220       ??_C@_0BE@KFHIBEEA@InternalObjectsData@ 00000001801d8220     GuMetaData.obj
 0002:00003238       ??_C@_07NKGFFIBH@mRadius@  00000001801d8238     GuMetaData.obj
 0002:00003240       ??_C@_08EHFCACAE@mExtents@ 00000001801d8240     GuMetaData.obj
 0002:00003250       ??_C@_0BA@LFMGGCBK@HullPolygonData@ 00000001801d8250     GuMetaData.obj
 0002:00003260       ??_C@_06BOHHGLB@mPlane@    00000001801d8260     GuMetaData.obj
 0002:00003268       ??_C@_06EHMLHGLN@mVRef8@   00000001801d8268     GuMetaData.obj
 0002:00003270       ??_C@_09BAHHHINI@mMinIndex@ 00000001801d8270     GuMetaData.obj
 0002:00003280       ??_C@_0P@GBLBPIPB@ConvexHullData@ 00000001801d8280     GuMetaData.obj
 0002:00003290       ??_C@_09JDCJAPKD@PxBounds3@ 00000001801d8290     GuMetaData.obj
 0002:0000329c       ??_C@_05NDNHIFA@mAABB@     00000001801d829c     GuMetaData.obj
 0002:000032a8       ??_C@_0O@LNOGEMJI@mCenterOfMass@ 00000001801d82a8     GuMetaData.obj
 0002:000032b8       ??_C@_09CNMCBBKH@mPolygons@ 00000001801d82b8     GuMetaData.obj
 0002:000032c8       ??_C@_0BC@KKPDCFJC@mBigConvexRawData@ 00000001801d82c8     GuMetaData.obj
 0002:000032e0       ??_C@_08MPNAAJLD@mSdfData@ 00000001801d82e0     GuMetaData.obj
 0002:000032f0       ??_C@_08ELDMKGKH@mNbEdges@ 00000001801d82f0     GuMetaData.obj
 0002:00003300       ??_C@_0BA@CGLOHBAC@mNbHullVertices@ 00000001801d8300     GuMetaData.obj
 0002:00003310       ??_C@_0M@HGFFLLDM@mNbPolygons@ 00000001801d8310     GuMetaData.obj
 0002:00003320       ??_C@_09BHJEMDGO@mInternal@ 00000001801d8320     GuMetaData.obj
 0002:00003330       ??_C@_0L@GMFHOMKA@ConvexMesh@ 00000001801d8330     GuMetaData.obj
 0002:00003340       ??_C@_09ILEBDLJH@mHullData@ 00000001801d8340     GuMetaData.obj
 0002:0000334c       ??_C@_03DKDIKGNC@mNb@      00000001801d834c     GuMetaData.obj
 0002:00003350       ??_C@_0P@ENLHFHMD@mBigConvexData@ 00000001801d8350     GuMetaData.obj
 0002:00003360       ??_C@_05ILALLCHK@mMass@    00000001801d8360     GuMetaData.obj
 0002:00003368       ??_C@_07DBPDADGB@PxMat33@  00000001801d8368     GuMetaData.obj
 0002:00003370       ??_C@_08FNBHNDBI@mInertia@ 00000001801d8370     GuMetaData.obj
 0002:00003380       ??_C@_0O@FCKNKLMJ@GuMeshFactory@ 00000001801d8380     GuMetaData.obj
 0002:00003390       ??_C@_0N@EGBCLMAK@mMeshFactory@ 00000001801d8390     GuMetaData.obj
 0002:000033a0       ??_C@_0BE@CJJAMAMK@PxHeightFieldSample@ 00000001801d83a0     GuMetaData.obj
 0002:000033b4       ??_C@_05MBLIPEMA@PxI16@    00000001801d83b4     GuMetaData.obj
 0002:000033bc       ??_C@_06LNLHEAAG@height@   00000001801d83bc     GuMetaData.obj
 0002:000033c8       ??_C@_0N@HHDGHJN@PxBitAndByte@ 00000001801d83c8     GuMetaData.obj
 0002:000033d8       ??_C@_0P@MBBMLBO@materialIndex0@ 00000001801d83d8     GuMetaData.obj
 0002:000033e8       ??_C@_0P@BFAKPKFP@materialIndex1@ 00000001801d83e8     GuMetaData.obj
 0002:000033f8       ??_C@_0BD@EBLPJEOE@PxHeightFieldFlags@ 00000001801d83f8     GuMetaData.obj
 0002:00003410       ??_C@_0BK@FNNCFFCN@PxHeightFieldFormat?3?3Enum@ 00000001801d8410     GuMetaData.obj
 0002:00003430       ??_C@_0BA@CLNFMAAA@HeightFieldData@ 00000001801d8430     GuMetaData.obj
 0002:00003440       ??_C@_04IMCGAIPI@rows@     00000001801d8440     GuMetaData.obj
 0002:00003448       ??_C@_07HIFEPIJN@columns@  00000001801d8448     GuMetaData.obj
 0002:00003450       ??_C@_08MOAGOABI@rowLimit@ 00000001801d8450     GuMetaData.obj
 0002:00003460       ??_C@_08BAGEHOBO@colLimit@ 00000001801d8460     GuMetaData.obj
 0002:00003470       ??_C@_09LKDBLADF@nbColumns@ 00000001801d8470     GuMetaData.obj
 0002:00003480       ??_C@_07ODIFGGLK@samples@  00000001801d8480     GuMetaData.obj
 0002:00003488       ??_C@_0BE@POHEGOJG@convexEdgeThreshold@ 00000001801d8488     GuMetaData.obj
 0002:0000349c       ??_C@_05GECEPKB@flags@     00000001801d849c     GuMetaData.obj
 0002:000034a4       ??_C@_06DLEPGFEF@format@   00000001801d84a4     GuMetaData.obj
 0002:000034b0       ??_C@_0BF@MOGDNMPL@PxMaterialTableIndex@ 00000001801d84b0     GuMetaData.obj
 0002:000034c8       ??_C@_0M@JMJICJJO@HeightField@ 00000001801d84c8     GuMetaData.obj
 0002:000034d8       ??_C@_0O@ENGHMLJP@mSampleStride@ 00000001801d84d8     GuMetaData.obj
 0002:000034e8       ??_C@_0L@EBEEMFFB@mMinHeight@ 00000001801d84e8     GuMetaData.obj
 0002:000034f8       ??_C@_0L@EAEIFPOF@mMaxHeight@ 00000001801d84f8     GuMetaData.obj
 0002:00003508       ??_C@_0N@FEFJOKKE@mModifyCount@ 00000001801d8508     GuMetaData.obj
 0002:00003518       ??_C@_09PHDKHCK@RTreePage@ 00000001801d8518     GuMetaData.obj
 0002:00003524       ??_C@_04LLPOBGED@minx@     00000001801d8524     GuMetaData.obj
 0002:0000352c       ??_C@_04KCOFCHAC@miny@     00000001801d852c     GuMetaData.obj
 0002:00003534       ??_C@_04IJMIHEMB@minz@     00000001801d8534     GuMetaData.obj
 0002:0000353c       ??_C@_04GGOBOBGO@maxx@     00000001801d853c     GuMetaData.obj
 0002:00003544       ??_C@_04HPPKNACP@maxy@     00000001801d8544     GuMetaData.obj
 0002:0000354c       ??_C@_04FENHIDOM@maxz@     00000001801d854c     GuMetaData.obj
 0002:00003554       ??_C@_04HHDFEJON@ptrs@     00000001801d8554     GuMetaData.obj
 0002:0000355c       ??_C@_05FFEIGAJF@RTree@    00000001801d855c     GuMetaData.obj
 0002:00003564       ??_C@_06OMCHPNEO@PxVec4@   00000001801d8564     GuMetaData.obj
 0002:00003570       ??_C@_0L@NBIFEFLN@mBoundsMin@ 00000001801d8570     GuMetaData.obj
 0002:00003580       ??_C@_0L@MDAOKBNC@mBoundsMax@ 00000001801d8580     GuMetaData.obj
 0002:00003590       ??_C@_0N@NJEHLCOF@mInvDiagonal@ 00000001801d8590     GuMetaData.obj
 0002:000035a0       ??_C@_0BA@BEFIGPFG@mDiagonalScaler@ 00000001801d85a0     GuMetaData.obj
 0002:000035b0       ??_C@_09DICGGKGO@mPageSize@ 00000001801d85b0     GuMetaData.obj
 0002:000035c0       ??_C@_0O@BOFFCNOL@mNumRootPages@ 00000001801d85c0     GuMetaData.obj
 0002:000035d0       ??_C@_0L@JKLGBKAE@mNumLevels@ 00000001801d85d0     GuMetaData.obj
 0002:000035e0       ??_C@_0M@PHDOHJGK@mTotalNodes@ 00000001801d85e0     GuMetaData.obj
 0002:000035f0       ??_C@_0M@GDGHALAO@mTotalPages@ 00000001801d85f0     GuMetaData.obj
 0002:000035fc       ??_C@_06MHCBBJGP@mFlags@   00000001801d85fc     GuMetaData.obj
 0002:00003604       ??_C@_06MMNBLHOK@mPages@   00000001801d8604     GuMetaData.obj
 0002:00003610       ??_C@_0P@JNLGHJNH@SourceMeshBase@ 00000001801d8610     GuMetaData.obj
 0002:00003620       ??_C@_06JFCLJMNN@mVerts@   00000001801d8620     GuMetaData.obj
 0002:00003628       ??_C@_05GNIIDDHH@mType@    00000001801d8628     GuMetaData.obj
 0002:00003630       ??_C@_06DHAAKLFK@mRemap@   00000001801d8630     GuMetaData.obj
 0002:00003638       ??_C@_0L@LEOGNOEC@SourceMesh@ 00000001801d8638     GuMetaData.obj
 0002:00003648       ??_C@_07MPIKOOAP@mNbTris@  00000001801d8648     GuMetaData.obj
 0002:00003650       ??_C@_0N@FBMOMEHF@mTriangles32@ 00000001801d8650     GuMetaData.obj
 0002:00003660       ??_C@_0N@DGCGNFBP@mTriangles16@ 00000001801d8660     GuMetaData.obj
 0002:00003670       ??_C@_0O@NLNHFNO@QuantizedAABB@ 00000001801d8670     GuMetaData.obj
 0002:00003680       ??_C@_0BC@OOGBEMHH@mData?$FL0?$FN?4mExtents@ 00000001801d8680     GuMetaData.obj
 0002:00003698       ??_C@_0BB@OCEDKIEF@mData?$FL0?$FN?4mCenter@ 00000001801d8698     GuMetaData.obj
 0002:000036b0       ??_C@_0BC@HFMEAABI@mData?$FL1?$FN?4mExtents@ 00000001801d86b0     GuMetaData.obj
 0002:000036c8       ??_C@_0BB@CDMNHHIF@mData?$FL1?$FN?4mCenter@ 00000001801d86c8     GuMetaData.obj
 0002:000036e0       ??_C@_0BC@CFKNCOI@mData?$FL2?$FN?4mExtents@ 00000001801d86e0     GuMetaData.obj
 0002:000036f8       ??_C@_0BB@LKCPBBIE@mData?$FL2?$FN?4mCenter@ 00000001801d86f8     GuMetaData.obj
 0002:00003710       ??_C@_0O@MJJKKPFN@BVDataPackedQ@ 00000001801d8710     GuMetaData.obj
 0002:00003720       ??_C@_0O@JFMLAIPJ@CenterExtents@ 00000001801d8720     GuMetaData.obj
 0002:00003730       ??_C@_07GNKDIIKJ@mCenter@  00000001801d8730     GuMetaData.obj
 0002:00003738       ??_C@_0P@KBMJDPLO@BVDataPackedNQ@ 00000001801d8738     GuMetaData.obj
 0002:00003748       ??_C@_0M@PNCEBOG@LocalBounds@ 00000001801d8748     GuMetaData.obj
 0002:00003754       ??_C@_05KNFBNCOH@float@    00000001801d8754     GuMetaData.obj
 0002:00003760       ??_C@_0BC@LADJKHPL@mExtentsMagnitude@ 00000001801d8760     GuMetaData.obj
 0002:00003778       ??_C@_07HELIOLAF@BV4Tree@  00000001801d8778     GuMetaData.obj
 0002:00003780       ??_C@_0P@EMMDNPMH@mMeshInterface@ 00000001801d8780     GuMetaData.obj
 0002:00003790       ??_C@_0N@DCKMHLCL@mLocalBounds@ 00000001801d8790     GuMetaData.obj
 0002:000037a0       ??_C@_08EEJOMIJL@mNbNodes@ 00000001801d87a0     GuMetaData.obj
 0002:000037ac       ??_C@_06FIIIMFIO@mNodes@   00000001801d87ac     GuMetaData.obj
 0002:000037b8       ??_C@_09FGKNPI@mInitData@  00000001801d87b8     GuMetaData.obj
 0002:000037c8       ??_C@_0BC@CLDEHKCO@mCenterOrMinCoeff@ 00000001801d87c8     GuMetaData.obj
 0002:000037e0       ??_C@_0BD@LAOLBNJ@mExtentsOrMaxCoeff@ 00000001801d87e0     GuMetaData.obj
 0002:000037f8       ??_C@_0P@JEECKKBL@mUserAllocated@ 00000001801d87f8     GuMetaData.obj
 0002:00003808       ??_C@_0L@GLIMNECG@mQuantized@ 00000001801d8808     GuMetaData.obj
 0002:00003818       ??_C@_0L@CCOJDAID@mIsEdgeSet@ 00000001801d8818     GuMetaData.obj
 0002:00003828       ??_C@_08BNDBAGDH@mPadding@ 00000001801d8828     GuMetaData.obj
 0002:00003838       ??_C@_0N@OJNNNLIB@TriangleMesh@ 00000001801d8838     GuMetaData.obj
 0002:00003848       ??_C@_0M@OGEDMEAL@mNbVertices@ 00000001801d8848     GuMetaData.obj
 0002:00003858       ??_C@_0N@MGGDNHNI@mNbTriangles@ 00000001801d8858     GuMetaData.obj
 0002:00003868       ??_C@_09LNNEGOJA@mVertices@ 00000001801d8868     GuMetaData.obj
 0002:00003878       ??_C@_0L@KBOFAKLO@mTriangles@ 00000001801d8878     GuMetaData.obj
 0002:00003888       ??_C@_0P@MHDFIHLD@mExtraTrigData@ 00000001801d8888     GuMetaData.obj
 0002:00003898       ??_C@_0N@MGIKKCI@mGeomEpsilon@ 00000001801d8898     GuMetaData.obj
 0002:000038a8       ??_C@_0BB@IFLOOCNA@mMaterialIndices@ 00000001801d88a8     GuMetaData.obj
 0002:000038c0       ??_C@_0L@OPJMBFMI@mFaceRemap@ 00000001801d88c0     GuMetaData.obj
 0002:000038d0       ??_C@_0N@BIOECAPM@mAdjacencies@ 00000001801d88d0     GuMetaData.obj
 0002:000038e0       ??_C@_09CICJHLPI@mEdgeList@ 00000001801d88e0     GuMetaData.obj
 0002:000038f0       ??_C@_0BD@IPKCNNIK@mLocalCenterOfMass@ 00000001801d88f0     GuMetaData.obj
 0002:00003908       ??_C@_0BA@OCOIGPII@mGRB_triIndices@ 00000001801d8908     GuMetaData.obj
 0002:00003918       ??_C@_0BE@JPINNDAH@mGRB_triAdjacencies@ 00000001801d8918     GuMetaData.obj
 0002:00003930       ??_C@_0P@EDFJJHEF@mGRB_faceRemap@ 00000001801d8930     GuMetaData.obj
 0002:00003940       ??_C@_0BG@EEALPPCP@mGRB_faceRemapInverse@ 00000001801d8940     GuMetaData.obj
 0002:00003958       ??_C@_0O@CKMBAIFN@mGRB_BV32Tree@ 00000001801d8958     GuMetaData.obj
 0002:00003968       ??_C@_0BE@MGIOIICI@mSdfData?4mMeshLower@ 00000001801d8968     GuMetaData.obj
 0002:00003980       ??_C@_0BC@NNEDELGI@mSdfData?4mSpacing@ 00000001801d8980     GuMetaData.obj
 0002:00003998       ??_C@_0BB@OHOFDAIL@mSdfData?4mDims?4x@ 00000001801d8998     GuMetaData.obj
 0002:000039b0       ??_C@_0BB@POPOABMK@mSdfData?4mDims?4y@ 00000001801d89b0     GuMetaData.obj
 0002:000039c8       ??_C@_0BB@NFNDFCAJ@mSdfData?4mDims?4z@ 00000001801d89c8     GuMetaData.obj
 0002:000039e0       ??_C@_0BC@GMPBGGPI@mSdfData?4mNumSdfs@ 00000001801d89e0     GuMetaData.obj
 0002:000039f8       ??_C@_0O@BCEBBLNE@mSdfData?4mSdf@ 00000001801d89f8     GuMetaData.obj
 0002:00003a08       ??_C@_0BG@HMHEFHIE@mSdfData?4mSubgridSize@ 00000001801d8a08     GuMetaData.obj
 0002:00003a20       ??_C@_0BI@OFJBKPGB@mSdfData?4mNumStartSlots@ 00000001801d8a20     GuMetaData.obj
 0002:00003a38       ??_C@_0BM@MGEPBEON@mSdfData?4mSubgridStartSlots@ 00000001801d8a38     GuMetaData.obj
 0002:00003a58       ??_C@_0BJ@PKKGJLNM@mSdfData?4mNumSubgridSdfs@ 00000001801d8a58     GuMetaData.obj
 0002:00003a78       ??_C@_0BF@HLMPGIBH@mSdfData?4mSubgridSdf@ 00000001801d8a78     GuMetaData.obj
 0002:00003a90       ??_C@_0CF@GMJNHGOK@mSdfData?4mSdfSubgrids3DTexBlock@ 00000001801d8a90     GuMetaData.obj
 0002:00003ab8       ??_C@_0CF@HFIGEHKL@mSdfData?4mSdfSubgrids3DTexBlock@ 00000001801d8ab8     GuMetaData.obj
 0002:00003ae0       ??_C@_0CF@FOKLBEGI@mSdfData?4mSdfSubgrids3DTexBlock@ 00000001801d8ae0     GuMetaData.obj
 0002:00003b08       ??_C@_0BO@EIPCIOJH@mSdfData?4mSubgridsMinSdfValue@ 00000001801d8b08     GuMetaData.obj
 0002:00003b28       ??_C@_0BO@NIIBJOHN@mSdfData?4mSubgridsMaxSdfValue@ 00000001801d8b28     GuMetaData.obj
 0002:00003b48       ??_C@_0BO@GKGODKFG@mSdfData?4mBytesPerSparsePixel@ 00000001801d8b48     GuMetaData.obj
 0002:00003b68       ??_C@_0BJ@LEBGJKBE@mAccumulatedTrianglesRef@ 00000001801d8b68     GuMetaData.obj
 0002:00003b88       ??_C@_0BF@OJMCNCDP@mTrianglesReferences@ 00000001801d8b88     GuMetaData.obj
 0002:00003ba0       ??_C@_0BH@LDGPOFA@mNbTrianglesReferences@ 00000001801d8ba0     GuMetaData.obj
 0002:00003bb8       ??_C@_0BC@IFGECKF@RTreeTriangleMesh@ 00000001801d8bb8     GuMetaData.obj
 0002:00003bcc       ??_C@_06JDIHDDGN@mRTree@   00000001801d8bcc     GuMetaData.obj
 0002:00003bd8       ??_C@_0BA@LNNFPOKA@BV4TriangleMesh@ 00000001801d8bd8     GuMetaData.obj
 0002:00003be8       ??_C@_08FKLPEGDB@mBV4Tree@ 00000001801d8be8     GuMetaData.obj
 0002:00003c20       ??_7?$SupportLocalImpl@VConvexHullNoScaleV@Gu@physx@@@Gu@physx@@6B@ 00000001801d8c20     GuMTD.obj
 0002:00003c40       ?absMask@?1??FAbs@aos@physx@@YA?AT__m128@@T4@@Z@4QBIB 00000001801d8c40     GuMTD.obj
 0002:00003c50       ??_7GjkConvex@Gu@physx@@6B@ 00000001801d8c50     GuMTD.obj
 0002:00003c80       ??_7?$LocalConvex@VCapsuleV@Gu@physx@@@Gu@physx@@6B@ 00000001801d8c80     GuMTD.obj
 0002:00003cb0       ??_7?$LocalConvex@VConvexHullV@Gu@physx@@@Gu@physx@@6B@ 00000001801d8cb0     GuMTD.obj
 0002:00003ce0       __real@2edbe6ff            00000001801d8ce0     GuMTD.obj
 0002:00003ce4       __real@34000000            00000001801d8ce4     GuMTD.obj
 0002:00003ce8       __real@ff7fffff            00000001801d8ce8     GuMTD.obj
 0002:00003cf0       __xmm@34000000340000003400000034000000 00000001801d8cf0     GuMTD.obj
 0002:00003d00       __xmm@358637bd358637bd358637bd358637bd 00000001801d8d00     GuMTD.obj
 0002:00003d10       __xmm@3dcccccd3dcccccd3dcccccd3dcccccd 00000001801d8d10     GuMTD.obj
 0002:00003d20       __xmm@3f7ff1413f7ff1413f7ff1413f7ff141 00000001801d8d20     GuMTD.obj
 0002:00003d30       __xmm@3f8000003f8000003f8000003f800000 00000001801d8d30     GuMTD.obj
 0002:00003d40       ??_7?$RelativeConvex@VBoxV@Gu@physx@@@Gu@physx@@6B@ 00000001801d8d40     GuOverlapTests.obj
 0002:00003d90       ??_7?$RelativeConvex@VConvexHullV@Gu@physx@@@Gu@physx@@6B@ 00000001801d8d90     GuOverlapTests.obj
 0002:00003dc0       ??_C@_0EC@MLIJOGHA@Height?5Field?5Overlap?5test?5calle@ 00000001801d8dc0     GuOverlapTests.obj
 0002:00003e10       ??_C@_0GF@DHEEPNNM@C?3?2Users?2hans_?2OneDrive?2Skriveb@ 00000001801d8e10     GuOverlapTests.obj
 0002:00003e80       ??_C@_0EC@GJLDADPE@Height?5Field?5Raycast?5test?5calle@ 00000001801d8e80     GuRaycastTests.obj
 0002:00003ed0       ??_C@_0GF@MEIJIKHG@C?3?2Users?2hans_?2OneDrive?2Skriveb@ 00000001801d8ed0     GuRaycastTests.obj
 0002:00003f70       __real@1e3ce508            00000001801d8f70     GuRaycastTests.obj
 0002:00003f74       __real@28800000            00000001801d8f74     GuRaycastTests.obj
 0002:00003f78       __real@33d6bf95            00000001801d8f78     GuRaycastTests.obj
 0002:00003f7c       __real@3727c5ac            00000001801d8f7c     GuRaycastTests.obj
 0002:00003f80       __real@3f0147ae            00000001801d8f80     GuRaycastTests.obj
 0002:00003f84       __real@3f7ffffe            00000001801d8f84     GuRaycastTests.obj
 0002:00003f88       __real@3f800347            00000001801d8f88     GuRaycastTests.obj
 0002:00003f8c       __real@41200000            00000001801d8f8c     GuRaycastTests.obj
 0002:00003f90       __real@80000000            00000001801d8f90     GuRaycastTests.obj
 0002:00003f94       __real@b3d6bf95            00000001801d8f94     GuRaycastTests.obj
 0002:00003f98       __real@b8d1b717            00000001801d8f98     GuRaycastTests.obj
 0002:00003f9c       __real@c1200000            00000001801d8f9c     GuRaycastTests.obj
 0002:00003fd0       ??_7?$MeshHitCallback@UPxGeomRaycastHit@physx@@@Gu@physx@@6B@ 00000001801d8fd0     GuSweepMTD.obj
 0002:00003fe0       ??_7MeshMTDGenerationCallback@@6B@ 00000001801d8fe0     GuSweepMTD.obj
 0002:00003ff0       ??_7MidPhaseQueryLocalReport@@6B@ 00000001801d8ff0     GuSweepMTD.obj
 0002:00004000       __real@3f8147ae            00000001801d9000     GuSweepMTD.obj
 0002:00004004       __real@3f933333            00000001801d9004     GuSweepMTD.obj
 0002:00004030       __real@3c23d70a            00000001801d9030     GuSweepSharedTests.obj
 0002:00004034       __real@42c80000            00000001801d9034     GuSweepSharedTests.obj
 0002:00004040       __xmm@ffffffffffffffffffffffffffffffff 00000001801d9040     GuSweepSharedTests.obj
 0002:00004070       ??_C@_0EA@GNDJNJGB@Height?5Field?5Sweep?5test?5called?5@ 00000001801d9070     GuSweepTests.obj
 0002:000040b0       ??_C@_0GD@KADLMGIA@C?3?2Users?2hans_?2OneDrive?2Skriveb@ 00000001801d90b0     GuSweepTests.obj
 0002:00004118       ??_7?$LocalConvex@VBoxV@Gu@physx@@@Gu@physx@@6B@ 00000001801d9118     GuSweepTests.obj
 0002:00004148       ??_7?$LocalConvex@VTriangleV@Gu@physx@@@Gu@physx@@6B@ 00000001801d9148     GuSweepTests.obj
 0002:00004180       __xmm@00000002000000020000000200000002 00000001801d9180     GuSweepTests.obj
 0002:00004190       __xmm@3eaaaa9f3eaaaa9f3eaaaa9f3eaaaa9f 00000001801d9190     GuSweepTests.obj
 0002:00004248       ??_7PxRunnable@physx@@6B@  00000001801d9248     GuSDF.obj
 0002:00004260       ??_C@_0FM@LANLOGKO@C?3?2Users?2hans_?2OneDrive?2Skriveb@ 00000001801d9260     GuSDF.obj
 0002:000042c0       ??_7?$PxThreadT@V?$PxReflectionAllocator@VPxThreadImpl@physx@@@physx@@@physx@@6B@ 00000001801d92c0     GuSDF.obj
 0002:000042d0       ??_C@_06FJHNOCKE@thread@   00000001801d92d0     GuSDF.obj
 0002:000042e0       ??_C@_0FL@PJKGCADC@C?3?2Users?2hans_?2OneDrive?2Skriveb@ 00000001801d92e0     GuSDF.obj
 0002:0000433c       __real@37800080            00000001801d933c     GuSDF.obj
 0002:00004340       __real@3b808081            00000001801d9340     GuSDF.obj
 0002:00004344       __real@3eaaaaab            00000001801d9344     GuSDF.obj
 0002:00004348       __real@3f400000            00000001801d9348     GuSDF.obj
 0002:0000434c       __real@3f7d70a4            00000001801d934c     GuSDF.obj
 0002:00004350       __real@4996b438            00000001801d9350     GuSDF.obj
 0002:00004354       __real@7e7fffff            00000001801d9354     GuSDF.obj
 0002:00004358       __real@bf000000            00000001801d9358     GuSDF.obj
 0002:0000435c       __real@fe7fffff            00000001801d935c     GuSDF.obj
 0002:00004360       __xmm@00000001000000000000000000000000 00000001801d9360     GuSDF.obj
 0002:00004370       __xmm@80000000800000000000000000000000 00000001801d9370     GuSDF.obj
 0002:00004380       __real@437f0000            00000001801d9380     GuCookingSDF.obj
 0002:00004384       __real@477fff00            00000001801d9384     GuCookingSDF.obj
 0002:000043b0       ??_7?$RelativeConvex@UCustomConvexV@@@Gu@physx@@6B@ 00000001801d93b0     GuGjkQuery.obj
 0002:000043e0       ??_7?$LocalConvex@UCustomConvexV@@@Gu@physx@@6B@ 00000001801d93e0     GuGjkQuery.obj
 0002:00004410       ??_7?$LocalConvex@UPointConvexV@@@Gu@physx@@6B@ 00000001801d9410     GuGjkQuery.obj
 0002:00004440       __xmm@3f0000003f0000003f0000003f000000 00000001801d9440     GuGjkQuery.obj
 0002:00004470       __real@3da2f983            00000001801d9470     GuWindingNumber.obj
 0002:00004474       __real@3e22f983            00000001801d9474     GuWindingNumber.obj
 0002:00004478       __real@3f99999a            00000001801d9478     GuWindingNumber.obj
 0002:000044e0       __real@3c343958            00000001801d94e0     GuCCDSweepConvexMesh.obj
 0002:000044e4       __real@3ca3d70a            00000001801d94e4     GuCCDSweepConvexMesh.obj
 0002:000044e8       __real@3f0ccccd            00000001801d94e8     GuCCDSweepConvexMesh.obj
 0002:000044ec       __real@3f8ccccd            00000001801d94ec     GuCCDSweepConvexMesh.obj
 0002:000044f0       __real@b58637bd            00000001801d94f0     GuCCDSweepConvexMesh.obj
 0002:00004520       ??_7?$RelativeConvex@VCapsuleV@Gu@physx@@@Gu@physx@@6B@ 00000001801d9520     GuCCDSweepPrimitives.obj
 0002:00004550       ??_7?$RelativeConvex@VTriangleV@Gu@physx@@@Gu@physx@@6B@ 00000001801d9550     GuCCDSweepPrimitives.obj
 0002:00004580       __real@3ba3d70a            00000001801d9580     GuCCDSweepPrimitives.obj
 0002:00004584       __real@501502f9            00000001801d9584     GuCCDSweepPrimitives.obj
 0002:000045b0       ??_C@_0GL@LPAEFMCL@C?3?2Users?2hans_?2OneDrive?2Skriveb@ 00000001801d95b0     GuAdjacencies.obj
 0002:00004620       ??_C@_0DA@FMEHLBKI@Adjacencies?3?3UpdateLink?3?5invali@ 00000001801d9620     GuAdjacencies.obj
 0002:00004650       ??_C@_0EA@CPHOACLK@Adjacencies?3?3CreateDatabase?3?5ca@ 00000001801d9650     GuAdjacencies.obj
 0002:00004690       ??_C@_0GI@PDIFPCLP@C?3?2Users?2hans_?2OneDrive?2Skriveb@ 00000001801d9690     GuEdgeList.obj
 0002:000046f8       ??_C@_0CO@GBNJFPN@EdgeList?3?3CreateFacesToEdges?3?5N@ 00000001801d96f8     GuEdgeList.obj
 0002:00004728       ??_C@_0CO@EHJBBMNK@EdgeList?3?3ComputeActiveEdges?3?5N@ 00000001801d9728     GuEdgeList.obj
 0002:00004758       ??_C@_0DI@GBHLFOFP@ActiveEdges?3?3ComputeConvexEdges@ 00000001801d9758     GuEdgeList.obj
 0002:00004790       ??_C@_0DM@JOGBLHDI@ActiveEdges?3?3ComputeConvexEdges@ 00000001801d9790     GuEdgeList.obj
 0002:000047d0       ??_C@_0ED@FEMJKPEL@ActiveEdges?3?3ComputeConvexEdges@ 00000001801d97d0     GuEdgeList.obj
 0002:00004820       ??_C@_0EB@BFDPMFCD@ActiveEdges?3?3ComputeConvexEdges@ 00000001801d9820     GuEdgeList.obj
 0002:00004864       __real@bf7fbe77            00000001801d9864     GuEdgeList.obj
 0002:00004868       ??_7Quantizer@Gu@physx@@6B@ 00000001801d9868     GuQuantizer.obj
 0002:00004890       ??_7QuantizerImpl@@6B@     00000001801d9890     GuQuantizer.obj
 0002:000048c0       ??_C@_0GJ@JCMAFOAN@C?3?2Users?2hans_?2OneDrive?2Skriveb@ 00000001801d98c0     GuQuantizer.obj
 0002:0000492c       __real@3f0020c5            00000001801d992c     GuQuantizer.obj
 0002:00004930       __real@3f8020c5            00000001801d9930     GuQuantizer.obj
 0002:00004940       ??_C@_0GL@JKFPHBHP@C?3?2Users?2hans_?2OneDrive?2Skriveb@ 00000001801d9940     GuMeshCleaner.obj
 0002:000049b0       ??_C@_0GN@FJGKOOGG@C?3?2Users?2hans_?2OneDrive?2Skriveb@ 00000001801d99b0     GuVertexReducer.obj
 0002:00004b20       __real@3f7fbe77            00000001801d9b20     GuContactBoxBox.obj
 0002:00004b50       __real@3f7ff2e5            00000001801d9b50     GuContactCapsuleCapsule.obj
 0002:00004b54       __real@40800000            00000001801d9b54     GuContactCapsuleCapsule.obj
 0002:00004be0       __real@358637be            00000001801d9be0     GuContactCapsuleMesh.obj
 0002:00004be4       __real@ba83126f            00000001801d9be4     GuContactCapsuleMesh.obj
 0002:00004c40       ??_7ConvexMeshContactGenerationCallback@@6B@ 00000001801d9c40     GuContactConvexMesh.obj
 0002:00004cc0       __real@3ec90fdb            00000001801d9cc0     GuContactPolygonPolygon.obj
 0002:00004cc4       __real@3f490fdb            00000001801d9cc4     GuContactPolygonPolygon.obj
 0002:00004cc8       __real@3f96cbe4            00000001801d9cc8     GuContactPolygonPolygon.obj
 0002:00004ccc       __real@3fc90fdb            00000001801d9ccc     GuContactPolygonPolygon.obj
 0002:00004cd0       __real@3ffb53d2            00000001801d9cd0     GuContactPolygonPolygon.obj
 0002:00004cd4       __real@4016cbe4            00000001801d9cd4     GuContactPolygonPolygon.obj
 0002:00004cd8       __real@402feddf            00000001801d9cd8     GuContactPolygonPolygon.obj
 0002:00004ce0       __xmm@ff7fffffff7fffffff7fffffff7fffff 00000001801d9ce0     GuContactPolygonPolygon.obj
 0002:00004d20       ??_C@_0DL@OAFGOMGB@Dropping?5contacts?5in?5sphere?5vs?5@ 00000001801d9d20     GuContactSphereMesh.obj
 0002:00004d60       ??_C@_0HC@OMAAMKPH@C?3?2Users?2hans_?2OneDrive?2Skriveb@ 00000001801d9d60     GuContactSphereMesh.obj
 0002:00004e10       ??_C@_0FJ@BOHMEEEJ@C?3?2Users?2hans_?2OneDrive?2Skriveb@ 00000001801d9e10     GuContactSphereMesh.obj
 0002:00004e70       ??_C@_0GN@LOJIKEC@C?3?2Users?2hans_?2OneDrive?2Skriveb@ 00000001801d9e70     GuBigConvexData.obj
 0002:00004f00       ??_C@_0N@CDGINLLF@PxConvexMesh@ 00000001801d9f00     GuConvexMesh.obj
 0002:00004f10       ??_7PxBase@physx@@6B@      00000001801d9f10     GuConvexMesh.obj
 0002:00004f38       ??_C@_0N@OPPDBGAG@PxRefCounted@ 00000001801d9f38     GuConvexMesh.obj
 0002:00004f48       ??_7ConvexMesh@Gu@physx@@6B@ 00000001801d9f48     GuConvexMesh.obj
 0002:00004fe0       ??_C@_0GK@KBBPDNJP@C?3?2Users?2hans_?2OneDrive?2Skriveb@ 00000001801d9fe0     GuConvexMesh.obj
 0002:00005050       ??_C@_0DM@NEJKOFIP@Loading?5convex?5mesh?5failed?3?5Dep@ 00000001801da050     GuConvexMesh.obj
 0002:00005090       ??_C@_0DB@PAHEPIEL@PxConvexMesh?3?3release?3?5double?5d@ 00000001801da090     GuConvexMesh.obj
 0002:000050d0       ??_C@_0GC@MKJDNMGI@C?3?2Users?2hans_?2OneDrive?2Skriveb@ 00000001801da0d0     GuConvexMesh.obj
 0002:00005160       __xmm@000000000000000000000000ffffffff 00000001801da160     GuConvexSupportTable.obj
 0002:00005170       __xmm@0000000000000000ffffffff00000000 00000001801da170     GuConvexSupportTable.obj
 0002:00005180       __xmm@0000000000000000ffffffffffffffff 00000001801da180     GuConvexSupportTable.obj
 0002:00005190       __xmm@00000000ffffffff0000000000000000 00000001801da190     GuConvexSupportTable.obj
 0002:000051a0       __xmm@00000000ffffffff00000000ffffffff 00000001801da1a0     GuConvexSupportTable.obj
 0002:000051b0       __xmm@00000000ffffffffffffffff00000000 00000001801da1b0     GuConvexSupportTable.obj
 0002:00005280       __real@2b8cbccc            00000001801da280     GuDistanceSegmentTriangle.obj
 0002:00005290       __xmm@3f8000013f8000013f8000013f800001 00000001801da290     GuDistanceSegmentTriangle.obj
 0002:000052a0       __xmm@b4000000b4000000b4000000b4000000 00000001801da2a0     GuDistanceSegmentTriangle.obj
 0002:00005300       __xmm@38d1b71738d1b71738d1b71738d1b717 00000001801da300     GuGJKSimplex.obj
 0002:00005330       ??_C@_0O@PBAKPCEC@PxHeightField@ 00000001801da330     GuHeightField.obj
 0002:00005340       ??_7HeightField@Gu@physx@@6B@ 00000001801da340     GuHeightField.obj
 0002:000053f8       ??_C@_0DC@BDMMBOKH@PxHeightField?3?3release?3?5double?5@ 00000001801da3f8     GuHeightField.obj
 0002:00005430       ??_C@_0DF@LLAFPPKJ@Gu?3?3HeightField?3?3modifySamples?3@ 00000001801da430     GuHeightField.obj
 0002:00005470       ??_C@_0GH@KPDPCHAB@C?3?2Users?2hans_?2OneDrive?2Skriveb@ 00000001801da470     GuHeightField.obj
 0002:000054d8       ??_C@_0CI@DMKEKGNK@Gu?3?3HeightField?3?3load?3?5PX_ALLOC@ 00000001801da4d8     GuHeightField.obj
 0002:00005500       ??_C@_0DG@LACOBMDE@Gu?3?3HeightField?3?3loadFromDesc?3?5@ 00000001801da500     GuHeightField.obj
 0002:00005540       ??_C@_0FL@LNICGJPO@C?3?2Users?2hans_?2OneDrive?2Skriveb@ 00000001801da540     GuHeightField.obj
 0002:000055c0       ??_C@_0DH@EJDJIMCB@HeightFieldShape?3?3getTriangle?3?5@ 00000001801da5c0     GuHeightFieldUtil.obj
 0002:00005600       ??_C@_0GL@DFHPAFKM@C?3?2Users?2hans_?2OneDrive?2Skriveb@ 00000001801da600     GuHeightFieldUtil.obj
 0002:0000566c       __real@3a03126f            00000001801da66c     GuHeightFieldUtil.obj
 0002:00005670       __real@3f19999a            00000001801da670     GuHeightFieldUtil.obj
 0002:00005680       __xmm@40000000000000000000000000000000 00000001801da680     GuHeightFieldUtil.obj
 0002:00005710       ??_7HeightFieldTraceSegmentReport@@6B@ 00000001801da710     GuSweepsHF.obj
 0002:00005720       ??_7CapsuleTraceSegmentReport@@6B@ 00000001801da720     GuSweepsHF.obj
 0002:00005730       ??_7ConvexTraceSegmentReport@@6B@ 00000001801da730     GuSweepsHF.obj
 0002:00005740       ??_7BoxTraceSegmentReport@@6B@ 00000001801da740     GuSweepsHF.obj
 0002:00005750       __real@aedbe6ff            00000001801da750     GuSweepsHF.obj
 0002:00005780       __real@3089705f            00000001801da780     GuIntersectionRayBox.obj
 0002:00005784       __real@b4000000            00000001801da784     GuIntersectionRayBox.obj
 0002:00005790       __xmm@000000003089705f3089705f3089705f 00000001801da790     GuIntersectionRayBox.obj
 0002:000057a0       __xmm@00000000bf800000bf800000bf800000 00000001801da7a0     GuIntersectionRayBox.obj
 0002:000057d0       __real@7fc00000            00000001801da7d0     GuIntersectionTriangleTriangle.obj
 0002:000057e0       __xmm@7fc000007fc000007fc000007fc00000 00000001801da7e0     GuIntersectionTriangleTriangle.obj
 0002:00005810       ??_7SourceMeshBase@Gu@physx@@6B@ 00000001801da810     GuBV4.obj
 0002:00005838       ??_7SourceMesh@Gu@physx@@6B@ 00000001801da838     GuBV4.obj
 0002:00005860       ??_7TetrahedronSourceMesh@Gu@physx@@6B@ 00000001801da860     GuBV4.obj
 0002:00005890       ??_C@_0GB@BIJEKECP@C?3?2Users?2hans_?2OneDrive?2Skriveb@ 00000001801da890     GuBV4.obj
 0002:00005920       ??_C@_0GG@JBNLCICP@C?3?2Users?2hans_?2OneDrive?2Skriveb@ 00000001801da920     GuBV4Build.obj
 0002:00005988       __real@38000100            00000001801da988     GuBV4Build.obj
 0002:0000598c       __real@3e93cd3a            00000001801da98c     GuBV4Build.obj
 0002:00005990       __real@46fffe00            00000001801da990     GuBV4Build.obj
 0002:00005994       __real@be93cd3a            00000001801da994     GuBV4Build.obj
 0002:000059c0       __xmm@0000ffff0000ffff0000ffff0000ffff 00000001801da9c0     GuBV4_AABBSweep.obj
 0002:000059d0       __xmm@3089705f3089705f3089705f3089705f 00000001801da9d0     GuBV4_AABBSweep.obj
 0002:000059e0       __xmm@33d6bf9533d6bf9533d6bf9533d6bf95 00000001801da9e0     GuBV4_AABBSweep.obj
 0002:000059f0       __xmm@40000000400000004000000040000000 00000001801da9f0     GuBV4_AABBSweep.obj
 0002:00005ac0       __real@00000000            00000001801daac0     GuBV4_Raycast.obj
 0002:00005af0       __real@4f7fffff            00000001801daaf0     GuBV4_SphereOverlap.obj
 0002:00005b40       __xmm@000000007f7fffff0000000000000000 00000001801dab40     GuMidphaseBV4.obj
 0002:00005bb0       ??_C@_0DK@FFHPKGEP@PxMeshQuery?3?3getTriangle?3?5trian@ 00000001801dabb0     GuMeshQuery.obj
 0002:00005bf0       ??_C@_0GH@KMNHNPGK@C?3?2Users?2hans_?2OneDrive?2Skriveb@ 00000001801dabf0     GuMeshQuery.obj
 0002:00005c60       ??_C@_0FD@EHCCILIF@Adjacency?5information?5not?5creat@ 00000001801dac60     GuMeshQuery.obj
 0002:00005cc0       ??_C@_0FA@MCAAGAGM@findOverlapTriangleMesh?3?5Only?5b@ 00000001801dacc0     GuMeshQuery.obj
 0002:00005d10       ??_C@_0FL@BKNMAHIA@PxMeshQuery?3?3findOverlapTriangl@ 00000001801dad10     GuMeshQuery.obj
 0002:00005d70       ??_C@_0EM@BEFNLPHI@findOverlapHeightField?3?5Only?5bo@ 00000001801dad70     GuMeshQuery.obj
 0002:00005dc0       ??_C@_0CJ@NLNHIMDM@PxMeshQuery?3?3sweep?$CI?$CJ?3?5pose?5is?5n@ 00000001801dadc0     GuMeshQuery.obj
 0002:00005df0       ??_C@_0CM@BFKJPOOO@PxMeshQuery?3?3sweep?$CI?$CJ?3?5unitDir?5i@ 00000001801dadf0     GuMeshQuery.obj
 0002:00005e20       ??_C@_0CN@JKBDLLPP@PxMeshQuery?3?3sweep?$CI?$CJ?3?5distance?5@ 00000001801dae20     GuMeshQuery.obj
 0002:00005e50       ??_C@_0DN@DPNNFGGF@PxMeshQuery?3?3sweep?$CI?$CJ?3?5sweep?5dis@ 00000001801dae50     GuMeshQuery.obj
 0002:00005e90       ??_C@_0BA@MBAFFELP@MeshQuery?4sweep@ 00000001801dae90     GuMeshQuery.obj
 0002:00005ea0       ??_C@_0FJ@GNAHJJCM@PxMeshQuery?3?3sweep?$CI?$CJ?3?5geometry?5@ 00000001801daea0     GuMeshQuery.obj
 0002:00005efc       __real@4cbebc20            00000001801daefc     GuMeshQuery.obj
 0002:00005f20       ??_7Callback@RTree@Gu@physx@@6B@ 00000001801daf20     GuMidphaseRTree.obj
 0002:00005f38       ??_7?$RayRTreeCallback@$00$0A@@@6BCallbackRaycast@RTree@Gu@physx@@@ 00000001801daf38     GuMidphaseRTree.obj
 0002:00005f38       ??_7?$RayRTreeCallback@$0A@$0A@@@6BCallbackRaycast@RTree@Gu@physx@@@ 00000001801daf38     GuMidphaseRTree.obj
 0002:00005f48       ??_7?$RayRTreeCallback@$0A@$0A@@@6BCallback@RTree@Gu@physx@@@ 00000001801daf48     GuMidphaseRTree.obj
 0002:00005f48       ??_7?$RayRTreeCallback@$00$0A@@@6BCallback@RTree@Gu@physx@@@ 00000001801daf48     GuMidphaseRTree.obj
 0002:00005f60       ??_7RayMeshColliderCallback@@6B@ 00000001801daf60     GuMidphaseRTree.obj
 0002:00005f70       ??_C@_0EN@DPPFLBLF@Point?9mesh?5distance?5query?5not?5s@ 00000001801daf70     GuMidphaseRTree.obj
 0002:00005fc0       ??_C@_0GL@PLNMLCFJ@C?3?2Users?2hans_?2OneDrive?2Skriveb@ 00000001801dafc0     GuMidphaseRTree.obj
 0002:00006030       ??_7?$RayRTreeCallback@$0A@$00@@6BCallbackRaycast@RTree@Gu@physx@@@ 00000001801db030     GuMidphaseRTree.obj
 0002:00006040       ??_7?$RayRTreeCallback@$0A@$00@@6BCallback@RTree@Gu@physx@@@ 00000001801db040     GuMidphaseRTree.obj
 0002:00006058       ??_7?$RayRTreeCallback@$00$00@@6BCallbackRaycast@RTree@Gu@physx@@@ 00000001801db058     GuMidphaseRTree.obj
 0002:00006068       ??_7?$RayRTreeCallback@$00$00@@6BCallback@RTree@Gu@physx@@@ 00000001801db068     GuMidphaseRTree.obj
 0002:000060e0       __xmm@7f7fffff000000000000000000000000 00000001801db0e0     GuMidphaseRTree.obj
 0002:00006160       ??_7?$PxReportCallback@UPxGeomIndexPair@physx@@@physx@@6B@ 00000001801db160     GuOverlapTestsMesh.obj
 0002:00006180       ??_C@_0EP@CEFGCJKJ@PxGeometryQuery?3?3overlap?$CI?$CJ?3?5onl@ 00000001801db180     GuOverlapTestsMesh.obj
 0002:000061d0       ??_C@_0GO@KBKGOC@C?3?2Users?2hans_?2OneDrive?2Skriveb@ 00000001801db1d0     GuOverlapTestsMesh.obj
 0002:00006240       ?MN@RTreePage@Gu@physx@@2MB 00000001801db240     GuRTree.obj
 0002:00006244       ?MX@RTreePage@Gu@physx@@2MB 00000001801db244     GuRTree.obj
 0002:00006270       ??_C@_0GD@LBJHPOP@C?3?2Users?2hans_?2OneDrive?2Skriveb@ 00000001801db270     GuRTree.obj
 0002:00006350       ??_7SweepShapeMeshHitCallback@Gu@physx@@6B@ 00000001801db350     GuSweepsMesh.obj
 0002:00006360       ??_7SweepCapsuleMeshHitCallback@Gu@physx@@6B@ 00000001801db360     GuSweepsMesh.obj
 0002:00006370       ??_7SweepBoxMeshHitCallback@Gu@physx@@6B@ 00000001801db370     GuSweepsMesh.obj
 0002:00006380       ??_7SweepConvexMeshHitCallback@Gu@physx@@6B@ 00000001801db380     GuSweepsMesh.obj
 0002:000063b0       ??_C@_0P@GGNFNHKF@PxTriangleMesh@ 00000001801db3b0     GuTriangleMesh.obj
 0002:000063c0       ??_7TriangleMesh@Gu@physx@@6B@ 00000001801db3c0     GuTriangleMesh.obj
 0002:00006498       ??_C@_0DD@LOOPMCGG@PxTriangleMesh?3?3release?3?5double@ 00000001801db498     GuTriangleMesh.obj
 0002:000064d0       ??_C@_0FH@PMPAJDGI@PxTriangleMesh?3?3getVerticesForM@ 00000001801db4d0     GuTriangleMesh.obj
 0002:00006530       ??_C@_0GK@JPEPJCHO@C?3?2Users?2hans_?2OneDrive?2Skriveb@ 00000001801db530     GuTriangleMesh.obj
 0002:000065a0       ??_C@_0EF@GMNFLDH@PxTriangleMesh?3?3refitBVH?$CI?$CJ?5is?5n@ 00000001801db5a0     GuTriangleMesh.obj
 0002:000065f0       __xmm@38383838383838383838383838383838 00000001801db5f0     GuTriangleMesh.obj
 0002:00006620       ??_C@_0BE@CNJKIINO@PxBVH34TriangleMesh@ 00000001801db620     GuTriangleMeshBV4.obj
 0002:00006638       ??_7BV4TriangleMesh@Gu@physx@@6B@ 00000001801db638     GuTriangleMeshBV4.obj
 0002:00006710       ??_C@_0EF@JLFNNPLP@BVH34?5trees?3?5refit?5operation?5on@ 00000001801db710     GuTriangleMeshBV4.obj
 0002:00006760       ??_C@_0GN@MHNDLOMG@C?3?2Users?2hans_?2OneDrive?2Skriveb@ 00000001801db760     GuTriangleMeshBV4.obj
 0002:000067d0       __real@3951b717            00000001801db7d0     GuTriangleMeshBV4.obj
 0002:00006800       ??_C@_0BE@EIFHCCBO@PxBVH33TriangleMesh@ 00000001801db800     GuTriangleMeshRTree.obj
 0002:00006818       ??_7RTreeTriangleMesh@Gu@physx@@6B@ 00000001801db818     GuTriangleMeshRTree.obj
 0002:000068f0       ??_7?$RefitCallback@G@physx@@6B@ 00000001801db8f0     GuTriangleMeshRTree.obj
 0002:00006900       ??_7?$RefitCallback@I@physx@@6B@ 00000001801db900     GuTriangleMeshRTree.obj
 0002:00006930       ??_C@_0GC@NHIKEIOM@C?3?2Users?2hans_?2OneDrive?2Skriveb@ 00000001801db930     GuBV32.obj
 0002:000069c0       ??_C@_0GH@PJBNABFP@C?3?2Users?2hans_?2OneDrive?2Skriveb@ 00000001801db9c0     GuBV32Build.obj
 0002:00006a50       ??_C@_0BC@FDAIDHBP@PxTetrahedronMesh@ 00000001801dba50     GuTetrahedronMesh.obj
 0002:00006a68       ??_C@_0BC@FBICGJIB@PxSoftBodyAuxData@ 00000001801dba68     GuTetrahedronMesh.obj
 0002:00006a80       ??_C@_0P@CLLFGFAA@PxSoftBodyMesh@ 00000001801dba80     GuTetrahedronMesh.obj
 0002:00006a90       ??_7SoftBodyAuxData@Gu@physx@@6B@ 00000001801dba90     GuTetrahedronMesh.obj
 0002:00006ad0       ??_7TetrahedronMesh@Gu@physx@@6B@ 00000001801dbad0     GuTetrahedronMesh.obj
 0002:00006b48       ??_7BVTetrahedronMesh@Gu@physx@@6B@ 00000001801dbb48     GuTetrahedronMesh.obj
 0002:00006bc0       ??_7SoftBodyMesh@Gu@physx@@6B@ 00000001801dbbc0     GuTetrahedronMesh.obj
 0002:00006c40       ??_C@_0DG@JJNMDPMD@PxTetrahedronMesh?3?3release?3?5dou@ 00000001801dbc40     GuTetrahedronMesh.obj
 0002:00006c78       ??_C@_0DD@GGFGEPII@PxSoftBodyMesh?3?3release?3?5double@ 00000001801dbc78     GuTetrahedronMesh.obj
 0002:00006cb0       ??_C@_0GN@CFJAFEFC@C?3?2Users?2hans_?2OneDrive?2Skriveb@ 00000001801dbcb0     GuTetrahedronMesh.obj
 0002:00006d40       __xmm@00000000358637bd358637bd358637bd 00000001801dbd40     GuPCMContactBoxBox.obj
 0002:00006d50       __xmm@3f4ccccd3f4ccccd3f4ccccd3f4ccccd 00000001801dbd50     GuPCMContactBoxBox.obj
 0002:00006d60       __xmm@3f8003473f8003473f8003473f800347 00000001801dbd60     GuPCMContactBoxBox.obj
 0002:00006d70       __xmm@ffffffff00000000ffffffffffffffff 00000001801dbd70     GuPCMContactBoxBox.obj
 0002:00006da0       ??_7?$LocalConvex@VConvexHullNoScaleV@Gu@physx@@@Gu@physx@@6B@ 00000001801dbda0     GuPCMContactBoxConvex.obj
 0002:00006dd0       __xmm@3f3504f33f3504f33f3504f33f3504f3 00000001801dbdd0     GuPCMContactBoxConvex.obj
 0002:00006e20       __xmm@ffffffffffffffffffffffff00000000 00000001801dbe20     GuPCMContactCapsuleCapsule.obj
 0002:00006e50       __xmm@3fa000003fa000003fa000003fa00000 00000001801dbe50     GuPCMContactCapsuleConvex.obj
 0002:00006e80       ??_7PCMCapsuleVsHeightfieldContactGenerationCallback@@6B@ 00000001801dbe80     GuPCMContactCapsuleHeightField.obj
 0002:00006e90       __real@3f7f3b64            00000001801dbe90     GuPCMContactCapsuleHeightField.obj
 0002:00006ee0       __xmm@3f7ff9723f7ff9723f7ff9723f7ff972 00000001801dbee0     GuPCMContactCapsuleMesh.obj
 0002:00006ef0       __xmm@3f7fffef3f7fffef3f7fffef3f7fffef 00000001801dbef0     GuPCMContactCapsuleMesh.obj
 0002:00006f00       __xmm@60ad78ec60ad78ec60ad78ec60ad78ec 00000001801dbf00     GuPCMContactCapsuleMesh.obj
 0002:00006f30       ??_7?$SupportLocalImpl@VTriangleV@Gu@physx@@@Gu@physx@@6B@ 00000001801dbf30     GuPCMContactConvexCommon.obj
 0002:00006f50       __xmm@3cf5c2803cf5c2803cf5c2803cf5c280 00000001801dbf50     GuPCMContactConvexCommon.obj
 0002:00006f60       __xmm@3f7851ec3f7851ec3f7851ec3f7851ec 00000001801dbf60     GuPCMContactConvexCommon.obj
 0002:00006f90       ??_7?$RelativeConvex@VConvexHullNoScaleV@Gu@physx@@@Gu@physx@@6B@ 00000001801dbf90     GuPCMContactConvexConvex.obj
 0002:00006fe0       ??_7PCMConvexVsHeightfieldContactGenerationCallback@physx@@6B@ 00000001801dbfe0     GuPCMContactConvexHeightField.obj
 0002:00006ff0       __xmm@3f19999a3f19999a3f19999a3f19999a 00000001801dbff0     GuPCMContactConvexHeightField.obj
 0002:00007030       ??_7PCMConvexVsMeshContactGenerationCallback@physx@@6B@ 00000001801dc030     GuPCMContactConvexMesh.obj
 0002:00007060       __xmm@3f34fdf43f34fdf43f34fdf43f34fdf4 00000001801dc060     GuPCMContactGenBoxConvex.obj
 0002:00007090       __xmm@3f80a3d73f80a3d73f80a3d73f80a3d7 00000001801dc090     GuPCMContactGenSphereCapsule.obj
 0002:000070a0       __xmm@bba3d70abba3d70abba3d70abba3d70a 00000001801dc0a0     GuPCMContactGenSphereCapsule.obj
 0002:000070d0       __xmm@3f7ffd613f7ffd613f7ffd613f7ffd61 00000001801dc0d0     GuPCMContactPlaneBox.obj
 0002:00007100       __real@3b23d70b            00000001801dc100     GuPCMContactPlaneCapsule.obj
 0002:00007110       __xmm@3ca3d70a3ca3d70a3ca3d70a3ca3d70a 00000001801dc110     GuPCMContactPlaneCapsule.obj
 0002:00007140       __xmm@3a03126f3a03126f3a03126f3a03126f 00000001801dc140     GuPCMContactPlaneConvex.obj
 0002:000071d0       ??_7PCMSphereVsHeightfieldContactGenerationCallback@physx@@6B@ 00000001801dc1d0     GuPCMContactSphereHeightField.obj
 0002:00007220       ??_C@_0GC@NMDAGMOD@C?3?2Users?2hans_?2OneDrive?2Skriveb@ 00000001801dc220     GuPCMContactSphereMesh.obj
 0002:000072d0       __xmm@3727c5ac3727c5ac3727c5ac3727c5ac 00000001801dc2d0     GuPCMContactSphereSphere.obj
 0002:00007300       __xmm@3f7f06f73f7f06f73f7f06f73f7f06f7 00000001801dc300     GuPCMContactCustomGeometry.obj
 0002:00007310       ?gPCMBoxPolygonData@Gu@physx@@3QBEB 00000001801dc310     GuPCMShapeConvex.obj
 0002:00007370       ?invalidateThresholds@Gu@physx@@3QBMB 00000001801dc370     GuPersistentContactManifold.obj
 0002:00007388       ?invalidateQuatThresholds@Gu@physx@@3QBMB 00000001801dc388     GuPersistentContactManifold.obj
 0002:000073a0       ?invalidateThresholds2@Gu@physx@@3QBMB 00000001801dc3a0     GuPersistentContactManifold.obj
 0002:000073b0       ?invalidateQuatThresholds2@Gu@physx@@3QBMB 00000001801dc3b0     GuPersistentContactManifold.obj
 0002:000073e0       __xmm@00000000340000003400000034000000 00000001801dc3e0     GuPersistentContactManifold.obj
 0002:000073f0       __xmm@000000003f8000003f80000000000000 00000001801dc3f0     GuPersistentContactManifold.obj
 0002:00007400       __xmm@00000000bf8000003f80000000000000 00000001801dc400     GuPersistentContactManifold.obj
 0002:00007410       __xmm@ffffffffffffffff00000000ffffffff 00000001801dc410     GuPersistentContactManifold.obj
 0002:00007480       __real@b727c5ac            00000001801dc480     GuSweepBoxSphere.obj
 0002:000074f0       ??_C@_0GO@MCILMDLA@C?3?2Users?2hans_?2OneDrive?2Skriveb@ 00000001801dc4f0     GuSweepCapsuleBox.obj
 0002:00007580       __real@3f7fff58            00000001801dc580     GuSweepCapsuleTriangle.obj
 0002:000075f0       ??_C@_0CH@DHJGKCPD@Gu?3?3computeBounds?3?5Unknown?5shap@ 00000001801dc5f0     GuBounds.obj
 0002:00007620       ??_C@_0FP@LKGKIGPL@C?3?2Users?2hans_?2OneDrive?2Skriveb@ 00000001801dc620     GuBounds.obj
 0002:00007680       __real@34800000            00000001801dc680     GuBounds.obj
 0002:00007684       __real@3f7fffef            00000001801dc684     GuBounds.obj
 0002:00007690       __xmm@3f8147ae3f8147ae3f8147ae3f8147ae 00000001801dc690     GuBounds.obj
 0002:000076c0       ??_C@_0GB@CHOGOHEP@C?3?2Users?2hans_?2OneDrive?2Skriveb@ 00000001801dc6c0     GuAABBTree.obj
 0002:00007730       __xmm@5a60b17f5a60b17f5a60b17f5a60b17f 00000001801dc730     GuAABBTree.obj
 0002:00007740       __xmm@da60b17fda60b17fda60b17fda60b17f 00000001801dc740     GuAABBTree.obj
 0002:000077b0       ??_C@_0GM@GENBEOCM@C?3?2Users?2hans_?2OneDrive?2Skriveb@ 00000001801dc7b0     GuIncrementalAABBTree.obj
 0002:00007820       ??_C@_0FJ@CCEJHCJH@C?3?2Users?2hans_?2OneDrive?2Skriveb@ 00000001801dc820     GuIncrementalAABBTree.obj
 0002:0000787c       __real@40400000            00000001801dc87c     GuIncrementalAABBTree.obj
 0002:00007880       ??_C@_0FM@NIOJKIHJ@C?3?2Users?2hans_?2OneDrive?2Skriveb@ 00000001801dc880     GuSAH.obj
 0002:00007900       ??_7PxBVH@physx@@6B@       00000001801dc900     GuBVH.obj
 0002:00007990       ??_C@_05OKJNPKBM@PxBVH@    00000001801dc990     GuBVH.obj
 0002:00007998       ??_7RefCountable@Cm@physx@@6B@ 00000001801dc998     GuBVH.obj
 0002:000079a8       ??_7BVH@Gu@physx@@6BPxBVH@2@@ 00000001801dc9a8     GuBVH.obj
 0002:00007a38       ??_7BVH@Gu@physx@@6BRefCountable@Cm@2@@ 00000001801dca38     GuBVH.obj
 0002:00007a50       ??_C@_0FM@MKIBDLIM@C?3?2Users?2hans_?2OneDrive?2Skriveb@ 00000001801dca50     GuBVH.obj
 0002:00007ab0       ??_C@_0CK@HAIOEINI@PxBVH?3?3release?3?5double?5deletion@ 00000001801dcab0     GuBVH.obj
 0002:00007b00       ??_C@_0HC@IJDCNFPK@C?3?2Users?2hans_?2OneDrive?2Skriveb@ 00000001801dcb00     GuIncrementalAABBPrunerCore.obj
 0002:00007b74       __real@3f80a3d7            00000001801dcb74     GuIncrementalAABBPrunerCore.obj
 0002:00007ba0       ??_7BasePruner@Gu@physx@@6B@ 00000001801dcba0     GuIncrementalAABBPruner.obj
 0002:00007bb8       ??_7IncrementalAABBPruner@Gu@physx@@6B@ 00000001801dcbb8     GuIncrementalAABBPruner.obj
 0002:00007c40       ??_C@_0BM@FLAABPLG@SceneQuery?4prunerAddObjects@ 00000001801dcc40     GuIncrementalAABBPruner.obj
 0002:00007c60       ??_C@_0BP@EAAOKPEE@SceneQuery?4prunerUpdateObjects@ 00000001801dcc60     GuIncrementalAABBPruner.obj
 0002:00007c80       ??_C@_0BP@EHMBNBOH@SceneQuery?4prunerRemoveObjects@ 00000001801dcc80     GuIncrementalAABBPruner.obj
 0002:00007ca0       ??_C@_0BI@HOKOKBIM@SceneQuery?4prunerCommit@ 00000001801dcca0     GuIncrementalAABBPruner.obj
 0002:00007cc0       ??_C@_0GO@NJOBCGIN@C?3?2Users?2hans_?2OneDrive?2Skriveb@ 00000001801dccc0     GuIncrementalAABBPruner.obj
 0002:00007d50       ??_C@_0BE@PKINCBHP@PruningPool?3?3resize@ 00000001801dcd50     GuPruningPool.obj
 0002:00007d70       ??_C@_0GE@JMBOPGCB@C?3?2Users?2hans_?2OneDrive?2Skriveb@ 00000001801dcd70     GuPruningPool.obj
 0002:00007dd8       ??_C@_0BI@HMDEMGJB@PruningPool?3?3addObjects@ 00000001801dcdd8     GuPruningPool.obj
 0002:00007df0       ??_C@_0BK@JPNIEHEJ@PruningPool?3?3removeObject@ 00000001801dcdf0     GuPruningPool.obj
 0002:00007e10       ??_C@_0BJ@GNLAFFBD@PruningPool?3?3shiftOrigin@ 00000001801dce10     GuPruningPool.obj
 0002:00007e30       ??_C@_0CE@MGPCCKGE@PruningPool?3?3updateAndInflateBo@ 00000001801dce30     GuPruningPool.obj
 0002:00007ea0       ??_7BucketPruner@Gu@physx@@6B@ 00000001801dcea0     GuBucketPruner.obj
 0002:00007f30       ??_C@_0GF@HAFGLDPC@C?3?2Users?2hans_?2OneDrive?2Skriveb@ 00000001801dcf30     GuBucketPruner.obj
 0002:00007fa0       __xmm@000000007e7fffff7e7fffff7e7fffff 00000001801dcfa0     GuBucketPruner.obj
 0002:00007fb0       __xmm@00000000fe7ffffffe7ffffffe7fffff 00000001801dcfb0     GuBucketPruner.obj
 0002:00007fc0       __xmm@3f13cd3a3f13cd3a3f13cd3a3f13cd3a 00000001801dcfc0     GuBucketPruner.obj
 0002:00007fd0       __xmm@bf13cd3abf13cd3abf13cd3a3f13cd3a 00000001801dcfd0     GuBucketPruner.obj
 0002:00007fe0       ?mIndices@MaverickNode@Gu@physx@@2QBIB 00000001801dcfe0     GuMaverickNode.obj
 0002:00008040       ??_C@_0GN@HBNKJHLP@C?3?2Users?2hans_?2OneDrive?2Skriveb@ 00000001801dd040     GuExtendedBucketPruner.obj
 0002:000080d0       ??_7CompanionPruner@Gu@physx@@6B@ 00000001801dd0d0     GuSecondaryPruner.obj
 0002:00008150       ??_7CompanionPrunerBucket@@6B@ 00000001801dd150     GuSecondaryPruner.obj
 0002:000081d0       ??_7CompanionPrunerIncremental@@6B@ 00000001801dd1d0     GuSecondaryPruner.obj
 0002:00008250       ??_7CompanionPrunerAABBTree@@6B@ 00000001801dd250     GuSecondaryPruner.obj
 0002:000082d0       ??_C@_0GI@DKNFIHBM@C?3?2Users?2hans_?2OneDrive?2Skriveb@ 00000001801dd2d0     GuSecondaryPruner.obj
 0002:00008360       ??_7AABBPruner@Gu@physx@@6B@ 00000001801dd360     GuAABBPruner.obj
 0002:00008400       ??_C@_0CC@JANKLMNO@SceneQuery?4bucketPrunerAddObjec@ 00000001801dd400     GuAABBPruner.obj
 0002:00008430       ??_C@_0LA@IHBEIKND@SceneQuery?5static?5AABB?5Tree?5reb@ 00000001801dd430     GuAABBPruner.obj
 0002:000084e0       ??_C@_0GD@DIDLEGJC@C?3?2Users?2hans_?2OneDrive?2Skriveb@ 00000001801dd4e0     GuAABBPruner.obj
 0002:00008548       ??_C@_0CB@JOCHAJIC@SceneQuery?4prunerNewTreeFinaliz@ 00000001801dd548     GuAABBPruner.obj
 0002:00008570       ??_C@_0BP@IOICCIGM@SceneQuery?4prunerNewTreeSwitch@ 00000001801dd570     GuAABBPruner.obj
 0002:00008590       ??_C@_0CA@LJGALBJD@SceneQuery?4prunerNewTreeMapping@ 00000001801dd590     GuAABBPruner.obj
 0002:000085b0       ??_C@_0CD@OCIEMIME@SceneQuery?4prunerNewTreeFinalRe@ 00000001801dd5b0     GuAABBPruner.obj
 0002:000085d8       ??_C@_0CG@PMFEEPAE@SceneQuery?4prunerNewTreeRemoveO@ 00000001801dd5d8     GuAABBPruner.obj
 0002:00008600       ??_C@_0BL@NAENOAHO@SceneQuery?4prunerBuildStep@ 00000001801dd600     GuAABBPruner.obj
 0002:00008620       ??_C@_0CC@MJCIDELA@SceneQuery?4prunerNewTreeFullRef@ 00000001801dd620     GuAABBPruner.obj
 0002:00008648       ??_C@_0BI@DAHHAEPA@SceneQuery?4prepareBuild@ 00000001801dd648     GuAABBPruner.obj
 0002:00008660       ??_C@_0CF@PDMDBIIO@SceneQuery?4prunerFullRebuildAAB@ 00000001801dd660     GuAABBPruner.obj
 0002:00008688       ??_C@_0CE@GKMPPEJP@SceneQuery?4prunerUpdateBucketPr@ 00000001801dd688     GuAABBPruner.obj
 0002:000086b0       ??_C@_0CI@MKOHFNNO@SceneQuery?4prunerRefitUpdatedAn@ 00000001801dd6b0     GuAABBPruner.obj
 0002:000086e0       ??_C@_0GG@JDGMHCPM@C?3?2Users?2hans_?2OneDrive?2Skriveb@ 00000001801dd6e0     GuActorShapeMap.obj
 0002:00008770       ??_C@_0BF@DNABLJAF@Invalid?5pruner?5index@ 00000001801dd770     GuQuerySystem.obj
 0002:00008790       ??_C@_0GE@MCHIAOKL@C?3?2Users?2hans_?2OneDrive?2Skriveb@ 00000001801dd790     GuQuerySystem.obj
 0002:000087f8       ??_C@_0BO@MMDENGGP@QuerySystem?4processDirtyLists@ 00000001801dd7f8     GuQuerySystem.obj
 0002:00008818       ??_C@_0BE@PHJMAGEL@QuerySystem?3?3update@ 00000001801dd818     GuQuerySystem.obj
 0002:00008830       ??_C@_0BK@GODFCMPK@QuerySystem?4commitUpdates@ 00000001801dd830     GuQuerySystem.obj
 0002:00008880       ??_C@_0CA@NAJNANMC@QuerySystem?4createTreeOfPruners@ 00000001801dd880     GuQuerySystem.obj
 0002:000088c0       ??_C@_0GA@EPJNFKPJ@C?3?2Users?2hans_?2OneDrive?2Skriveb@ 00000001801dd8c0     GuFactory.obj
 0002:00008940       ?reductionFactors@SubSortQuick@physx@@2QBMB 00000001801dd940     GuRTreeCooking.obj
 0002:00008950       ?stopAtTrisPerLeaf1@SubSortQuick@physx@@2QBIB 00000001801dd950     GuRTreeCooking.obj
 0002:00008a00       ??_C@_0GN@JHAONNEK@C?3?2Users?2hans_?2OneDrive?2Skriveb@ 00000001801dda00     GuRTreeCooking.obj
 0002:00008a70       __real@41100000            00000001801dda70     GuRTreeCooking.obj
 0002:00008a74       __real@41700000            00000001801dda74     GuRTreeCooking.obj
 0002:00008a78       __real@42200000            00000001801dda78     GuRTreeCooking.obj
 0002:00008a80       __xmm@00000004000000030000000200000001 00000001801dda80     GuRTreeCooking.obj
 0002:00008ab0       ??_C@_0GL@DNKNMLCJ@C?3?2Users?2hans_?2OneDrive?2Skriveb@ 00000001801ddab0     GuCookingBVH.obj
 0002:00008b20       ??_C@_0DL@JHPKHGFA@Cooking?3?3cookBVH?3?5user?9provided@ 00000001801ddb20     GuCookingBVH.obj
 0002:00008b60       ??_C@_0DN@PLNPGFEB@Cooking?3?3createBVH?3?5user?9provid@ 00000001801ddb60     GuCookingBVH.obj
 0002:00008ba0       ??_C@_0EL@JCJBAPHL@Cooking?3?3cookHeightField?3?5user?9@ 00000001801ddba0     GuCookingHF.obj
 0002:00008bf0       ??_C@_0GK@ODJBMNKI@C?3?2Users?2hans_?2OneDrive?2Skriveb@ 00000001801ddbf0     GuCookingHF.obj
 0002:00008c60       ??_C@_0EN@FCEPCAFC@Cooking?3?3createHeightField?3?5use@ 00000001801ddc60     GuCookingHF.obj
 0002:00008cb0       ??_C@_0EK@EKAIJEBL@Cooking?3?3cookConvexMesh?3?5user?9p@ 00000001801ddcb0     GuCookingConvexMesh.obj
 0002:00008d00       ??_C@_0FA@GFFGAPML@Cooking?3?3cookConvexMesh?3?5provid@ 00000001801ddd00     GuCookingConvexMesh.obj
 0002:00008d50       ??_C@_0EP@PKDCPNNO@Cooking?3?3cookConvexMesh?3?5provid@ 00000001801ddd50     GuCookingConvexMesh.obj
 0002:00008da0       ??_C@_0EO@LKFMMDE@Cooking?3?3cookConvexMesh?3?5user?9p@ 00000001801ddda0     GuCookingConvexMesh.obj
 0002:00008df0       ??_C@_0HC@JHPHKNOH@C?3?2Users?2hans_?2OneDrive?2Skriveb@ 00000001801dddf0     GuCookingConvexMesh.obj
 0002:00008e90       ??_7TriangleMeshBuilder@physx@@6B@ 00000001801dde90     GuCookingTriangleMesh.obj
 0002:00008eb8       ??_7RTreeTriangleMeshBuilder@physx@@6B@ 00000001801ddeb8     GuCookingTriangleMesh.obj
 0002:00008ee0       ??_7BV4TriangleMeshBuilder@physx@@6B@ 00000001801ddee0     GuCookingTriangleMesh.obj
 0002:00008f10       ??_C@_0HE@MMKNFOKP@C?3?2Users?2hans_?2OneDrive?2Skriveb@ 00000001801ddf10     GuCookingTriangleMesh.obj
 0002:00008f88       ??_C@_0DJ@IGODLHLP@TriangleMesh?3?5Enable?5mesh?5weldi@ 00000001801ddf88     GuCookingTriangleMesh.obj
 0002:00008fd0       ??_C@_0FJ@HHJLKGDF@TriangleMesh?3?5triangles?5are?5too@ 00000001801ddfd0     GuCookingTriangleMesh.obj
 0002:00009030       ??_C@_0CN@KGPHHHLK@TriangleMesh?3?5mesh?5is?5too?5big?5f@ 00000001801de030     GuCookingTriangleMesh.obj
 0002:00009060       ??_C@_0DD@CMJGDCNN@TriangleMesh?3?3loadFromDesc?3?5des@ 00000001801de060     GuCookingTriangleMesh.obj
 0002:000090a0       ??_C@_0ED@ILJJNHIP@TriangleMesh?3?3loadFromDesc?3?5mPa@ 00000001801de0a0     GuCookingTriangleMesh.obj
 0002:000090e8       ??_C@_0CK@BJFFGDPK@input?5mesh?5contains?5corrupted?5v@ 00000001801de0e8     GuCookingTriangleMesh.obj
 0002:00009118       ??_C@_0BJ@BKHDBBHO@cleaning?5the?5mesh?5failed@ 00000001801de118     GuCookingTriangleMesh.obj
 0002:00009138       ??_C@_0CC@BPIMLJA@input?5sdf?5contains?5corrupted?5da@ 00000001801de138     GuCookingTriangleMesh.obj
 0002:00009160       ??_C@_0BK@JIDHMMCE@BV4?5tree?5failed?5to?5build?4@ 00000001801de160     GuCookingTriangleMesh.obj
 0002:00009180       ??_C@_0BL@DHNECNBE@BV32?5tree?5failed?5to?5build?4@ 00000001801de180     GuCookingTriangleMesh.obj
 0002:000091a0       ??_7RTreeCookerRemap@@6B@  00000001801de1a0     GuCookingTriangleMesh.obj
 0002:000091b0       ??_C@_0FC@PJIHAFK@Cooking?3?3validateTriangleMesh?3?5@ 00000001801de1b0     GuCookingTriangleMesh.obj
 0002:00009204       __real@48742400            00000001801de204     GuCookingTriangleMesh.obj
 0002:00009230       ??_7PxCollisionTetrahedronMeshData@physx@@6B@ 00000001801de230     GuCookingTetrahedronMesh.obj
 0002:00009260       ??_7PxSimulationTetrahedronMeshData@physx@@6B@ 00000001801de260     GuCookingTetrahedronMesh.obj
 0002:00009280       ??_7CollisionTetrahedronMeshData@Gu@physx@@6B@ 00000001801de280     GuCookingTetrahedronMesh.obj
 0002:000092b0       ??_7SimulationTetrahedronMeshData@Gu@physx@@6B@ 00000001801de2b0     GuCookingTetrahedronMesh.obj
 0002:000092d0       ??_C@_0HH@IAJABABA@C?3?2Users?2hans_?2OneDrive?2Skriveb@ 00000001801de2d0     GuCookingTetrahedronMesh.obj
 0002:00009350       ??_C@_0EG@BKGBJDHG@computeRestPoseAndPointMass?$CI?$CJ?3?5@ 00000001801de350     GuCookingTetrahedronMesh.obj
 0002:00009398       ??_7?$LocalConvex@VTetrahedronV@Gu@physx@@@Gu@physx@@6B@ 00000001801de398     GuCookingTetrahedronMesh.obj
 0002:000093c8       ??_C@_0CD@OJGNHLOE@BV4_AABBTree?5tree?5failed?5to?5bui@ 00000001801de3c8     GuCookingTetrahedronMesh.obj
 0002:000093f0       ??_C@_0DG@NCNIEEHB@TetrahedronMesh?3?3loadFromDesc?3?5@ 00000001801de3f0     GuCookingTetrahedronMesh.obj
 0002:00009430       ??_C@_0EG@CJIFGLMC@TetrahedronMesh?3?3loadFromDesc?3?5@ 00000001801de430     GuCookingTetrahedronMesh.obj
 0002:00009478       __real@3e2aaaab            00000001801de478     GuCookingTetrahedronMesh.obj
 0002:0000947c       __real@be2aaaab            00000001801de47c     GuCookingTetrahedronMesh.obj
 0002:00009480       __xmm@00000003000000030000000300000003 00000001801de480     GuCookingTetrahedronMesh.obj
 0002:000094b0       __real@3bc79ca10c924223    00000001801de4b0     GuCookingVolumeIntegration.obj
 0002:000094b8       __real@3f91111111111111    00000001801de4b8     GuCookingVolumeIntegration.obj
 0002:000094c0       __real@3fa5555555555555    00000001801de4c0     GuCookingVolumeIntegration.obj
 0002:000094c8       __real@3fa999999999999a    00000001801de4c8     GuCookingVolumeIntegration.obj
 0002:000094d0       __real@3fb5555555555555    00000001801de4d0     GuCookingVolumeIntegration.obj
 0002:000094d8       __real@3fc5555555555555    00000001801de4d8     GuCookingVolumeIntegration.obj
 0002:000094e0       __real@3fd5555555555555    00000001801de4e0     GuCookingVolumeIntegration.obj
 0002:000094e8       __real@3fe0000000000000    00000001801de4e8     GuCookingVolumeIntegration.obj
 0002:000094f0       __real@3ff0000000000000    00000001801de4f0     GuCookingVolumeIntegration.obj
 0002:000094f8       __real@4008000000000000    00000001801de4f8     GuCookingVolumeIntegration.obj
 0002:00009500       __real@4010000000000000    00000001801de500     GuCookingVolumeIntegration.obj
 0002:00009508       __real@bf91111111111111    00000001801de508     GuCookingVolumeIntegration.obj
 0002:00009510       __real@bfa999999999999a    00000001801de510     GuCookingVolumeIntegration.obj
 0002:00009518       __real@bfb5555555555555    00000001801de518     GuCookingVolumeIntegration.obj
 0002:00009520       __real@bfc5555555555555    00000001801de520     GuCookingVolumeIntegration.obj
 0002:00009530       __xmm@3c0888893c0888893c0888893c088889 00000001801de530     GuCookingVolumeIntegration.obj
 0002:00009540       __xmm@3c8888893c8888893c8888893c888889 00000001801de540     GuCookingVolumeIntegration.obj
 0002:00009550       __xmm@3d2aaaab3d2aaaab3d2aaaab3d2aaaab 00000001801de550     GuCookingVolumeIntegration.obj
 0002:00009560       __xmm@3e2aaaab3e2aaaab3e2aaaab3e2aaaab 00000001801de560     GuCookingVolumeIntegration.obj
 0002:00009570       __xmm@3f811111111111113f81111111111111 00000001801de570     GuCookingVolumeIntegration.obj
 0002:00009580       __xmm@3f811111111111113f91111111111111 00000001801de580     GuCookingVolumeIntegration.obj
 0002:00009590       __xmm@3f911111111111113f91111111111111 00000001801de590     GuCookingVolumeIntegration.obj
 0002:000095a0       __xmm@3fa55555555555553fa5555555555555 00000001801de5a0     GuCookingVolumeIntegration.obj
 0002:000095b0       __xmm@3fa55555555555553fc5555555555555 00000001801de5b0     GuCookingVolumeIntegration.obj
 0002:000095c0       __xmm@7fffffffffffffff7fffffffffffffff 00000001801de5c0     GuCookingVolumeIntegration.obj
 0002:000095d0       __xmm@80000000000000008000000000000000 00000001801de5d0     GuCookingVolumeIntegration.obj
 0002:000095e0       ??_7ConvexHullLib@physx@@6B@ 00000001801de5e0     GuCookingQuickHullConvexHullLib.obj
 0002:00009600       ??_7QuickHullConvexHullLib@physx@@6B@ 00000001801de600     GuCookingQuickHullConvexHullLib.obj
 0002:00009620       ??_C@_0HO@GFFMOFLC@C?3?2Users?2hans_?2OneDrive?2Skriveb@ 00000001801de620     GuCookingQuickHullConvexHullLib.obj
 0002:000096a0       ??_C@_0GA@EPPAEJPM@QuickHullConvexHullLib?3?3findSim@ 00000001801de6a0     GuCookingQuickHullConvexHullLib.obj
 0002:00009700       ??_C@_0FB@NEBIJMML@QuickHullConvexHullLib?3?3findSim@ 00000001801de700     GuCookingQuickHullConvexHullLib.obj
 0002:00009760       ??_C@_0FB@CLLCBEMM@QuickHullConvexHullLib?3?3findSim@ 00000001801de760     GuCookingQuickHullConvexHullLib.obj
 0002:000097b4       __real@34c00000            00000001801de7b4     GuCookingQuickHullConvexHullLib.obj
 0002:000097b8       ??_C@_0DP@PJBJBEGF@Meshmerizer?3?3extractHullPolygon@ 00000001801de7b8     GuCookingConvexPolygonsBuilder.obj
 0002:00009800       ??_C@_0HN@GDCBFPJN@C?3?2Users?2hans_?2OneDrive?2Skriveb@ 00000001801de800     GuCookingConvexPolygonsBuilder.obj
 0002:00009880       ??_C@_0DL@IAFKOCCK@ConvexHullBuilder?3?5convex?5hull?5@ 00000001801de880     GuCookingConvexPolygonsBuilder.obj
 0002:000098c0       ??_C@_0GF@OJLJHAMH@ConvexHullBuilder?3?3CreateTriang@ 00000001801de8c0     GuCookingConvexPolygonsBuilder.obj
 0002:00009950       ??_C@_0DF@LLFJIJGM@Gu?3?3ConvexMesh?3?3loadFromDesc?3?5d@ 00000001801de950     GuCookingConvexMeshBuilder.obj
 0002:00009990       ??_C@_0HK@JOGKIEAA@Gu?3?3ConvexMesh?3?5Mesh?5has?5a?5nega@ 00000001801de990     GuCookingConvexMeshBuilder.obj
 0002:00009a10       ??_C@_0DH@NJPPHFFD@Gu?3?3ConvexMesh?3?5Error?5computing@ 00000001801dea10     GuCookingConvexMeshBuilder.obj
 0002:00009a48       ??_C@_0DJ@LJDLGLDJ@Gu?3?3ConvexMesh?3?3loadConvexHull?3@ 00000001801dea48     GuCookingConvexMeshBuilder.obj
 0002:00009a90       ??_C@_0HJ@KJANPPOE@ConvexMeshBuilder?3?3computeHullP@ 00000001801dea90     GuCookingConvexMeshBuilder.obj
 0002:00009b10       ??_C@_0HJ@KEDLECFI@C?3?2Users?2hans_?2OneDrive?2Skriveb@ 00000001801deb10     GuCookingConvexMeshBuilder.obj
 0002:00009b90       ??_C@_0O@JMAGMMGG@PxHullPolygon@ 00000001801deb90     GuCookingConvexMeshBuilder.obj
 0002:00009ba0       __real@3f13cd3a            00000001801deba0     GuCookingConvexMeshBuilder.obj
 0002:00009bd0       ??_C@_0HH@PBBHEAAL@C?3?2Users?2hans_?2OneDrive?2Skriveb@ 00000001801debd0     GuCookingConvexHullUtils.obj
 0002:00009c48       __real@3e20d97c            00000001801dec48     GuCookingConvexHullUtils.obj
 0002:00009c50       ??_C@_0HF@IEBPDIOC@C?3?2Users?2hans_?2OneDrive?2Skriveb@ 00000001801dec50     GuCookingConvexHullLib.obj
 0002:00009cd0       ??_C@_0JE@PABBNGEL@ConvexHullLib?3?3cleanupVertices?3@ 00000001801decd0     GuCookingConvexHullLib.obj
 0002:00009d90       ??_C@_0HJ@GKJPOCAN@C?3?2Users?2hans_?2OneDrive?2Skriveb@ 00000001801ded90     GuCookingConvexHullBuilder.obj
 0002:00009e10       ??_C@_0EB@DCEIFDGC@ConvexHullBuilder?3?3init?3?5convex@ 00000001801dee10     GuCookingConvexHullBuilder.obj
 0002:00009e60       ??_C@_0FM@KICBLCBH@Gu?3?3ConvexMesh?3?3checkHullPolygo@ 00000001801dee60     GuCookingConvexHullBuilder.obj
 0002:00009ec0       ??_C@_0GO@HBFIOGLL@Gu?3?3ConvexMesh?3?3checkHullPolygo@ 00000001801deec0     GuCookingConvexHullBuilder.obj
 0002:00009f30       ??_C@_0HF@OLJFBIEL@ConvexHullBuilder?3?5convex?5hull?5@ 00000001801def30     GuCookingConvexHullBuilder.obj
 0002:00009fb0       ??_C@_0OG@JNHFOIL@ConvexHullBuilder?3?5convex?5hull?5@ 00000001801defb0     GuCookingConvexHullBuilder.obj
 0002:0000a0a0       ??_C@_0EJ@NIOIBAKH@Cooking?3?3cookConvexMesh?3?5non?9ma@ 00000001801df0a0     GuCookingConvexHullBuilder.obj
 0002:0000a110       ??_C@_0HM@DHMKNFAO@C?3?2Users?2hans_?2OneDrive?2Skriveb@ 00000001801df110     GuCookingBigConvexDataBuilder.obj
 0002:0000a190       __sz_PhysXFoundation_64_dll 00000001801df190     PhysXFoundation_64:PhysXFoundation_64.dll
 0002:0000a1a8       ??_C@_1BK@DBDEIDLH@?$AAK?$AAE?$AAR?$AAN?$AAE?$AAL?$AA3?$AA2?$AA?4?$AAD?$AAL?$AAL@ 00000001801df1a8     Delayimp:delayhlp.obj
 0002:0000a1c8       ??_C@_0BI@OMNLIJDB@AcquireSRWLockExclusive@ 00000001801df1c8     Delayimp:delayhlp.obj
 0002:0000a1e0       ??_C@_0BI@HMIEPCNJ@ReleaseSRWLockExclusive@ 00000001801df1e0     Delayimp:delayhlp.obj
 0002:0000a1f8       __pfnDliFailureHook2       00000001801df1f8     Delayimp:delayhk1.obj
 0002:0000a208       ??_7type_info@@6B@         00000001801df208     LIBCMT:std_type_info_static.obj
 0002:0000a270       _pRawDllMain               00000001801df270     LIBCMT:dll_dllmain.obj
 0002:0000a270       _pDefaultRawDllMain        00000001801df270     LIBCMT:dll_dllmain.obj
 0002:0000a280       _load_config_used          00000001801df280     LIBCMT:loadcfg.obj
 0002:0000a3b8       _pDestructExceptionObject  00000001801df3b8     libvcruntime:ehhelpers.obj
 0002:0000aac0       ??_C@_08EHJDFFNH@__based?$CI@ 00000001801dfac0     libvcruntime:undname.obj
 0002:0000aad0       ??_C@_07KOLFKCDI@__cdecl@  00000001801dfad0     libvcruntime:undname.obj
 0002:0000aad8       ??_C@_08GHMPAG@__pascal@   00000001801dfad8     libvcruntime:undname.obj
 0002:0000aae8       ??_C@_09IFJBGAPI@__stdcall@ 00000001801dfae8     libvcruntime:undname.obj
 0002:0000aaf8       ??_C@_0L@NPHFGOKO@__thiscall@ 00000001801dfaf8     libvcruntime:undname.obj
 0002:0000ab08       ??_C@_0L@JMKHOMEK@__fastcall@ 00000001801dfb08     libvcruntime:undname.obj
 0002:0000ab18       ??_C@_0N@BCKKPABJ@__vectorcall@ 00000001801dfb18     libvcruntime:undname.obj
 0002:0000ab28       ??_C@_09HIJEGCPM@__clrcall@ 00000001801dfb28     libvcruntime:undname.obj
 0002:0000ab34       ??_C@_06GHPCKEAG@__eabi@   00000001801dfb34     libvcruntime:undname.obj
 0002:0000ab40       ??_C@_09IOPIDJLG@__swift_1@ 00000001801dfb40     libvcruntime:undname.obj
 0002:0000ab50       ??_C@_09KFNFGKHF@__swift_2@ 00000001801dfb50     libvcruntime:undname.obj
 0002:0000ab60       ??_C@_07JOMMBBKO@__ptr64@  00000001801dfb60     libvcruntime:undname.obj
 0002:0000ab68       ??_C@_0L@PILCLIHE@__restrict@ 00000001801dfb68     libvcruntime:undname.obj
 0002:0000ab78       ??_C@_0M@GFIIJFMG@__unaligned@ 00000001801dfb78     libvcruntime:undname.obj
 0002:0000ab88       ??_C@_09DHDLOLLB@restrict?$CI@ 00000001801dfb88     libvcruntime:undname.obj
 0002:0000ab94       ??_C@_04NIHEBCM@?5new@     00000001801dfb94     libvcruntime:undname.obj
 0002:0000aba0       ??_C@_07FPCDHGMM@?5delete@ 00000001801dfba0     libvcruntime:undname.obj
 0002:0000aba8       ??_C@_01NEMOKFLO@?$DN@     00000001801dfba8     libvcruntime:undname.obj
 0002:0000abac       ??_C@_02GPIOPFAK@?$DO?$DO@ 00000001801dfbac     libvcruntime:undname.obj
 0002:0000abb0       ??_C@_02FODMEDOG@?$DM?$DM@ 00000001801dfbb0     libvcruntime:undname.obj
 0002:0000abb4       ??_C@_01DCLJPIOD@?$CB@     00000001801dfbb4     libvcruntime:undname.obj
 0002:0000abb8       ??_C@_02EGOFBIJA@?$DN?$DN@ 00000001801dfbb8     libvcruntime:undname.obj
 0002:0000abbc       ??_C@_02FDNJECIE@?$CB?$DN@ 00000001801dfbbc     libvcruntime:undname.obj
 0002:0000abc0       ??_C@_02GPECMEKF@?$FL?$FN@ 00000001801dfbc0     libvcruntime:undname.obj
 0002:0000abc8       ??_C@_08LHJFAFGD@operator@ 00000001801dfbc8     libvcruntime:undname.obj
 0002:0000abd4       ??_C@_02HBOOOICD@?9?$DO@   00000001801dfbd4     libvcruntime:undname.obj
 0002:0000abd8       ??_C@_01NBENCBCI@?$CK@     00000001801dfbd8     libvcruntime:undname.obj
 0002:0000abdc       ??_C@_02ECNGHCIF@?$CL?$CL@ 00000001801dfbdc     libvcruntime:undname.obj
 0002:0000abe0       ??_C@_02BAABKJLB@?9?9@     00000001801dfbe0     libvcruntime:undname.obj
 0002:0000abe4       ??_C@_01JOAMLHOP@?9@       00000001801dfbe4     libvcruntime:undname.obj
 0002:0000abe8       ??_C@_01MIFGBAGJ@?$CL@     00000001801dfbe8     libvcruntime:undname.obj
 0002:0000abec       ??_C@_01HNPIGOCE@?$CG@     00000001801dfbec     libvcruntime:undname.obj
 0002:0000abf0       ??_C@_03MNHNFDLC@?9?$DO?$CK@ 00000001801dfbf0     libvcruntime:undname.obj
 0002:0000abf4       ??_C@_01KMDKNFGN@?1@       00000001801dfbf4     libvcruntime:undname.obj
 0002:0000abf8       ??_C@_01FGNFDNOH@?$CF@     00000001801dfbf8     libvcruntime:undname.obj
 0002:0000abfc       ??_C@_01MNNFJEPP@?$DM@     00000001801dfbfc     libvcruntime:undname.obj
 0002:0000ac00       ??_C@_02EHCHHCKH@?$DM?$DN@ 00000001801dfc00     libvcruntime:undname.obj
 0002:0000ac04       ??_C@_01PPODPGHN@?$DO@     00000001801dfc04     libvcruntime:undname.obj
 0002:0000ac08       ??_C@_02EEKDKGMJ@?$DO?$DN@ 00000001801dfc08     libvcruntime:undname.obj
 0002:0000ac0c       ??_C@_01IHBHIGKO@?0@       00000001801dfc0c     libvcruntime:undname.obj
 0002:0000ac10       ??_C@_02HCKGKOFO@?$CI?$CJ@ 00000001801dfc10     libvcruntime:undname.obj
 0002:0000ac14       ??_C@_01PJKLJHI@?$HO@      00000001801dfc14     libvcruntime:undname.obj
 0002:0000ac18       ??_C@_01JKBOJNNK@?$FO@     00000001801dfc18     libvcruntime:undname.obj
 0002:0000ac1c       ??_C@_01DNKMNLPK@?$HM@     00000001801dfc1c     libvcruntime:undname.obj
 0002:0000ac20       ??_C@_02PPKAJPJL@?$CG?$CG@ 00000001801dfc20     libvcruntime:undname.obj
 0002:0000ac24       ??_C@_02NONPIBCD@?$HM?$HM@ 00000001801dfc24     libvcruntime:undname.obj
 0002:0000ac28       ??_C@_02FPIMKNGF@?$CK?$DN@ 00000001801dfc28     libvcruntime:undname.obj
 0002:0000ac2c       ??_C@_02FOEOMHFC@?$CL?$DN@ 00000001801dfc2c     libvcruntime:undname.obj
 0002:0000ac30       ??_C@_02FKMDLLOA@?9?$DN@   00000001801dfc30     libvcruntime:undname.obj
 0002:0000ac34       ??_C@_02FJEHGPIO@?1?$DN@   00000001801dfc34     libvcruntime:undname.obj
 0002:0000ac38       ??_C@_02FENAOKFI@?$CF?$DN@ 00000001801dfc38     libvcruntime:undname.obj
 0002:0000ac3c       ??_C@_03IKFCCPFF@?$DO?$DO?$DN@ 00000001801dfc3c     libvcruntime:undname.obj
 0002:0000ac40       ??_C@_03CDNPDDLA@?$DM?$DM?$DN@ 00000001801dfc40     libvcruntime:undname.obj
 0002:0000ac44       ??_C@_02FGJGFEAB@?$CG?$DN@ 00000001801dfc44     libvcruntime:undname.obj
 0002:0000ac48       ??_C@_02DHLNPPGH@?$HM?$DN@ 00000001801dfc48     libvcruntime:undname.obj
 0002:0000ac4c       ??_C@_02MHEGNOJ@?$FO?$DN@  00000001801dfc4c     libvcruntime:undname.obj
 0002:0000ac50       ??_C@_09IFPLHPGF@?$GAvftable?8@ 00000001801dfc50     libvcruntime:undname.obj
 0002:0000ac60       ??_C@_09BLBHBJP@?$GAvbtable?8@ 00000001801dfc60     libvcruntime:undname.obj
 0002:0000ac70       ??_C@_07FEEIOKP@?$GAvcall?8@ 00000001801dfc70     libvcruntime:undname.obj
 0002:0000ac78       ??_C@_08LLFFHHDJ@?$GAtypeof?8@ 00000001801dfc78     libvcruntime:undname.obj
 0002:0000ac88       ??_C@_0BF@KDPPACIK@?$GAlocal?5static?5guard?8@ 00000001801dfc88     libvcruntime:undname.obj
 0002:0000aca0       ??_C@_08OBABFOLI@?$GAstring?8@ 00000001801dfca0     libvcruntime:undname.obj
 0002:0000acb0       ??_C@_0BD@JDLKDPAB@?$GAvbase?5destructor?8@ 00000001801dfcb0     libvcruntime:undname.obj
 0002:0000acc8       ??_C@_0BN@DEGPLNFK@?$GAvector?5deleting?5destructor?8@ 00000001801dfcc8     libvcruntime:undname.obj
 0002:0000ace8       ??_C@_0BO@OBMKPJIG@?$GAdefault?5constructor?5closure?8@ 00000001801dfce8     libvcruntime:undname.obj
 0002:0000ad08       ??_C@_0BN@IMDCHIKM@?$GAscalar?5deleting?5destructor?8@ 00000001801dfd08     libvcruntime:undname.obj
 0002:0000ad28       ??_C@_0BO@PFGOCPJJ@?$GAvector?5constructor?5iterator?8@ 00000001801dfd28     libvcruntime:undname.obj
 0002:0000ad48       ??_C@_0BN@LFPFMEDL@?$GAvector?5destructor?5iterator?8@ 00000001801dfd48     libvcruntime:undname.obj
 0002:0000ad68       ??_C@_0CE@IKBNEHA@?$GAvector?5vbase?5constructor?5itera@ 00000001801dfd68     libvcruntime:undname.obj
 0002:0000ad90       ??_C@_0BL@NILFHHPC@?$GAvirtual?5displacement?5map?8@ 00000001801dfd90     libvcruntime:undname.obj
 0002:0000adb0       ??_C@_0CB@JONCMFFK@?$GAeh?5vector?5constructor?5iterator@ 00000001801dfdb0     libvcruntime:undname.obj
 0002:0000add8       ??_C@_0CA@GCEOPDGL@?$GAeh?5vector?5destructor?5iterator?8@ 00000001801dfdd8     libvcruntime:undname.obj
 0002:0000adf8       ??_C@_0CH@OOJPLCPH@?$GAeh?5vector?5vbase?5constructor?5it@ 00000001801dfdf8     libvcruntime:undname.obj
 0002:0000ae20       ??_C@_0BL@LLKPOHJI@?$GAcopy?5constructor?5closure?8@ 00000001801dfe20     libvcruntime:undname.obj
 0002:0000ae40       ??_C@_0BA@KBCDOMBN@?$GAudt?5returning?8@ 00000001801dfe40     libvcruntime:undname.obj
 0002:0000ae50       ??_C@_03KLGMFNMG@?$GAEH@   00000001801dfe50     libvcruntime:undname.obj
 0002:0000ae54       ??_C@_05KHLCHHI@?$GARTTI@  00000001801dfe54     libvcruntime:undname.obj
 0002:0000ae60       ??_C@_0BA@KKLDJDLB@?$GAlocal?5vftable?8@ 00000001801dfe60     libvcruntime:undname.obj
 0002:0000ae70       ??_C@_0CE@IIHCMGGL@?$GAlocal?5vftable?5constructor?5clos@ 00000001801dfe70     libvcruntime:undname.obj
 0002:0000ae94       ??_C@_06FHBGPFGH@?5new?$FL?$FN@ 00000001801dfe94     libvcruntime:undname.obj
 0002:0000aea0       ??_C@_09LBNFPBCA@?5delete?$FL?$FN@ 00000001801dfea0     libvcruntime:undname.obj
 0002:0000aeb0       ??_C@_0P@HJKNJFNN@?$GAomni?5callsig?8@ 00000001801dfeb0     libvcruntime:undname.obj
 0002:0000aec0       ??_C@_0BL@CNOONJFP@?$GAplacement?5delete?5closure?8@ 00000001801dfec0     libvcruntime:undname.obj
 0002:0000aee0       ??_C@_0BN@CKNJLHMB@?$GAplacement?5delete?$FL?$FN?5closure?8@ 00000001801dfee0     libvcruntime:undname.obj
 0002:0000af00       ??_C@_0CG@CFDHKGGD@?$GAmanaged?5vector?5constructor?5ite@ 00000001801dff00     libvcruntime:undname.obj
 0002:0000af28       ??_C@_0CF@IMGKMJNO@?$GAmanaged?5vector?5destructor?5iter@ 00000001801dff28     libvcruntime:undname.obj
 0002:0000af50       ??_C@_0CG@HLDDJMAG@?$GAeh?5vector?5copy?5constructor?5ite@ 00000001801dff50     libvcruntime:undname.obj
 0002:0000af78       ??_C@_0CM@FCBBDIGB@?$GAeh?5vector?5vbase?5copy?5construct@ 00000001801dff78     libvcruntime:undname.obj
 0002:0000afa8       ??_C@_0BL@CLIPGLGB@?$GAdynamic?5initializer?5for?5?8@ 00000001801dffa8     libvcruntime:undname.obj
 0002:0000afc8       ??_C@_0CB@PDBIFEP@?$GAdynamic?5atexit?5destructor?5for?5@ 00000001801dffc8     libvcruntime:undname.obj
 0002:0000aff0       ??_C@_0CD@CGAJBKEJ@?$GAvector?5copy?5constructor?5iterat@ 00000001801dfff0     libvcruntime:undname.obj
 0002:0000b018       ??_C@_0CJ@GJELGAMM@?$GAvector?5vbase?5copy?5constructor?5@ 00000001801e0018     libvcruntime:undname.obj
 0002:0000b048       ??_C@_0CL@FGIJHLCE@?$GAmanaged?5vector?5copy?5constructo@ 00000001801e0048     libvcruntime:undname.obj
 0002:0000b078       ??_C@_0BM@PMGGMLDN@?$GAlocal?5static?5thread?5guard?8@ 00000001801e0078     libvcruntime:undname.obj
 0002:0000b098       ??_C@_0N@BDNMDMOL@operator?5?$CC?$CC?5@ 00000001801e0098     libvcruntime:undname.obj
 0002:0000b0a8       ??_C@_0BC@GGEBGALA@operator?5co_await@ 00000001801e00a8     libvcruntime:undname.obj
 0002:0000b0c0       ??_C@_0M@GAAIMMOH@operator?$DM?$DN?$DO@ 00000001801e00c0     libvcruntime:undname.obj
 0002:0000b0d0       ??_C@_0BC@DAFEJGAK@?5Type?5Descriptor?8@ 00000001801e00d0     libvcruntime:undname.obj
 0002:0000b0e8       ??_C@_0BM@LDKODKLH@?5Base?5Class?5Descriptor?5at?5?$CI@ 00000001801e00e8     libvcruntime:undname.obj
 0002:0000b108       ??_C@_0BD@LGICGFMM@?5Base?5Class?5Array?8@ 00000001801e0108     libvcruntime:undname.obj
 0002:0000b120       ??_C@_0BN@MECKDCOJ@?5Class?5Hierarchy?5Descriptor?8@ 00000001801e0120     libvcruntime:undname.obj
 0002:0000b140       ??_C@_0BK@CFCOFLF@?5Complete?5Object?5Locator?8@ 00000001801e0140     libvcruntime:undname.obj
 0002:0000b160       ??_C@_0BG@JNJLAMPM@?$GAanonymous?5namespace?8@ 00000001801e0160     libvcruntime:undname.obj
 0002:0000b178       ??_C@_04HEJADOOB@CV?3?5@   00000001801e0178     libvcruntime:undname.obj
 0002:0000b180       ??_C@_02MOLJINC@?3?3@      00000001801e0180     libvcruntime:undname.obj
 0002:0000b188       ??_C@_0BE@JAEOCHPE@template?9parameter?9@ 00000001801e0188     libvcruntime:undname.obj
 0002:0000b1a0       ??_C@_0BF@LNLGBBNL@?$GAtemplate?9parameter?9@ 00000001801e01a0     libvcruntime:undname.obj
 0002:0000b1b8       ??_C@_0O@KHGCOMHP@generic?9type?9@ 00000001801e01b8     libvcruntime:undname.obj
 0002:0000b1c8       ??_C@_0P@ODDENDLM@?$GAgeneric?9type?9@ 00000001801e01c8     libvcruntime:undname.obj
 0002:0000b1d8       ??_C@_02OHHJMEON@?8?8@     00000001801e01d8     libvcruntime:undname.obj
 0002:0000b1e0       ??_C@_0BN@IBLMMFAP@?$GAnon?9type?9template?9parameter@ 00000001801e01e0     libvcruntime:undname.obj
 0002:0000b200       ??_C@_03DLDNIBIK@?$CFlf@   00000001801e0200     libvcruntime:undname.obj
 0002:0000b204       ??_C@_04OFALKAJ@?$DP?$DP_C@ 00000001801e0204     libvcruntime:undname.obj
 0002:0000b20c       ??_C@_03KHICJKCI@?4?4?4@   00000001801e020c     libvcruntime:undname.obj
 0002:0000b210       ??_C@_04HIBGFPH@NULL@      00000001801e0210     libvcruntime:undname.obj
 0002:0000b218       ??_C@_02DPKJAMEF@?$CFd@    00000001801e0218     libvcruntime:undname.obj
 0002:0000b220       ??_C@_0BK@IHCCFNEL@?$GAtemplate?9type?9parameter?9@ 00000001801e0220     libvcruntime:undname.obj
 0002:0000b240       ??_C@_0BK@OFCNNNKO@?$GAgeneric?9class?9parameter?9@ 00000001801e0240     libvcruntime:undname.obj
 0002:0000b260       ??_C@_0BL@NGJBLFIL@?$GAgeneric?9method?9parameter?9@ 00000001801e0260     libvcruntime:undname.obj
 0002:0000b280       ??_C@_07OHNGEDJK@nullptr@  00000001801e0280     libvcruntime:undname.obj
 0002:0000b288       ??_C@_0BE@EODMJLIF@?$GAtemplate?9parameter@ 00000001801e0288     libvcruntime:undname.obj
 0002:0000b29c       ??_C@_03OPGICMGF@?$HN?8?5@ 00000001801e029c     libvcruntime:undname.obj
 0002:0000b2a0       ??_C@_02IGFCGPIL@?$HN?8@   00000001801e02a0     libvcruntime:undname.obj
 0002:0000b2a8       ??_C@_0N@CBHHHENL@?$GAvtordispex?$HL@ 00000001801e02a8     libvcruntime:undname.obj
 0002:0000b2b8       ??_C@_0L@GHPFDFH@?$GAvtordisp?$HL@ 00000001801e02b8     libvcruntime:undname.obj
 0002:0000b2c8       ??_C@_0L@HNGCOGAE@?$GAadjustor?$HL@ 00000001801e02c8     libvcruntime:undname.obj
 0002:0000b2d8       ??_C@_0CB@KJDOOODE@?$GAlocal?5static?5destructor?5helper@ 00000001801e02d8     libvcruntime:undname.obj
 0002:0000b300       ??_C@_0DB@ILEFOCIJ@?$GAtemplate?5static?5data?5member?5co@ 00000001801e0300     libvcruntime:undname.obj
 0002:0000b338       ??_C@_0DA@HGFJFBBE@?$GAtemplate?5static?5data?5member?5de@ 00000001801e0338     libvcruntime:undname.obj
 0002:0000b368       ??_C@_07PGOEDBHP@static?5@ 00000001801e0368     libvcruntime:undname.obj
 0002:0000b370       ??_C@_08NIEOINHE@virtual?5@ 00000001801e0370     libvcruntime:undname.obj
 0002:0000b380       ??_C@_09LAPHOOG@private?3?5@ 00000001801e0380     libvcruntime:undname.obj
 0002:0000b390       ??_C@_0M@GAIFPFIP@protected?3?5@ 00000001801e0390     libvcruntime:undname.obj
 0002:0000b3a0       ??_C@_08GPDDCMKI@public?3?5@ 00000001801e03a0     libvcruntime:undname.obj
 0002:0000b3b0       ??_C@_08KJLFOPNE@?$FLthunk?$FN?3@ 00000001801e03b0     libvcruntime:undname.obj
 0002:0000b3c0       ??_C@_0M@DHNBOJMP@extern?5?$CCC?$CC?5@ 00000001801e03c0     libvcruntime:undname.obj
 0002:0000b3cc       ??_C@_02KCKGHPCA@?$CJ?5@   00000001801e03cc     libvcruntime:undname.obj
 0002:0000b3d0       ??_C@_05CIHEBHNO@char?5@   00000001801e03d0     libvcruntime:undname.obj
 0002:0000b3d8       ??_C@_06EHJMALKF@short?5@  00000001801e03d8     libvcruntime:undname.obj
 0002:0000b3e0       ??_C@_04LAHKHJMA@int?5@    00000001801e03e0     libvcruntime:undname.obj
 0002:0000b3e8       ??_C@_05CJIMAING@long?5@   00000001801e03e8     libvcruntime:undname.obj
 0002:0000b3f0       ??_C@_09EBBEKKIH@unsigned?5@ 00000001801e03f0     libvcruntime:undname.obj
 0002:0000b3fc       ??_C@_05BEFAKPML@void?5@   00000001801e03fc     libvcruntime:undname.obj
 0002:0000b408       ??_C@_09GAIEOBLP@volatile?5@ 00000001801e0408     libvcruntime:undname.obj
 0002:0000b418       ??_C@_08PABEKFH@volatile@  00000001801e0418     libvcruntime:undname.obj
 0002:0000b428       ??_C@_0BA@LKIJLKPP@std?3?3nullptr_t?5@ 00000001801e0428     libvcruntime:undname.obj
 0002:0000b438       ??_C@_0P@GCOCNKDM@std?3?3nullptr_t@ 00000001801e0438     libvcruntime:undname.obj
 0002:0000b448       ??_C@_0L@EGPHHEKN@?$DMellipsis?$DO@ 00000001801e0448     libvcruntime:undname.obj
 0002:0000b454       ??_C@_04EENFHACM@?0?4?4?4@ 00000001801e0454     libvcruntime:undname.obj
 0002:0000b460       ??_C@_0M@ELJOJFFH@?0?$DMellipsis?$DO@ 00000001801e0460     libvcruntime:undname.obj
 0002:0000b470       ??_C@_09DNHFEOJI@?5noexcept@ 00000001801e0470     libvcruntime:undname.obj
 0002:0000b47c       ??_C@_03PBJBJNON@cpu@      00000001801e047c     libvcruntime:undname.obj
 0002:0000b480       ??_C@_03DCBBJBAA@amp@      00000001801e0480     libvcruntime:undname.obj
 0002:0000b484       ??_C@_02KEGNLNML@?0?5@     00000001801e0484     libvcruntime:undname.obj
 0002:0000b488       ??_C@_04ENMBGAPA@char@     00000001801e0488     libvcruntime:undname.obj
 0002:0000b490       ??_C@_05BFKKPKCG@short@    00000001801e0490     libvcruntime:undname.obj
 0002:0000b498       ??_C@_03JBIPMCLC@int@      00000001801e0498     libvcruntime:undname.obj
 0002:0000b49c       ??_C@_04GOKPGOLB@long@     00000001801e049c     libvcruntime:undname.obj
 0002:0000b4a4       ??_C@_06BNJCAIGJ@double@   00000001801e04a4     libvcruntime:undname.obj
 0002:0000b4ac       ??_C@_06EBGKOKIG@__int8@   00000001801e04ac     libvcruntime:undname.obj
 0002:0000b4b8       ??_C@_07ICFHOGAF@__int16@  00000001801e04b8     libvcruntime:undname.obj
 0002:0000b4c0       ??_C@_07OFLPPHGP@__int32@  00000001801e04c0     libvcruntime:undname.obj
 0002:0000b4c8       ??_C@_07LFCOJCAC@__int64@  00000001801e04c8     libvcruntime:undname.obj
 0002:0000b4d0       ??_C@_08GAHOLHEO@__int128@ 00000001801e04d0     libvcruntime:undname.obj
 0002:0000b4e0       ??_C@_09EEKGDCPH@?$DMunknown?$DO@ 00000001801e04e0     libvcruntime:undname.obj
 0002:0000b4f0       ??_C@_07CFHGOPCN@char8_t@  00000001801e04f0     libvcruntime:undname.obj
 0002:0000b4f8       ??_C@_08HBIPOFJB@char16_t@ 00000001801e04f8     libvcruntime:undname.obj
 0002:0000b508       ??_C@_08IECNCBKG@char32_t@ 00000001801e0508     libvcruntime:undname.obj
 0002:0000b518       ??_C@_07CLGGIAMF@wchar_t@  00000001801e0518     libvcruntime:undname.obj
 0002:0000b520       ??_C@_04HAPDLBFF@auto@     00000001801e0520     libvcruntime:undname.obj
 0002:0000b528       ??_C@_0P@LHCGKIGK@decltype?$CIauto?$CJ@ 00000001801e0528     libvcruntime:undname.obj
 0002:0000b538       ??_C@_06GCICPBLB@__w64?5@  00000001801e0538     libvcruntime:undname.obj
 0002:0000b540       ??_C@_07NFANNNEC@UNKNOWN@  00000001801e0540     libvcruntime:undname.obj
 0002:0000b548       ??_C@_07EDHNAJHC@signed?5@ 00000001801e0548     libvcruntime:undname.obj
 0002:0000b550       ??_C@_05BNCCCJPP@const@    00000001801e0550     libvcruntime:undname.obj
 0002:0000b558       ??_C@_09EFNPDFFP@?5volatile@ 00000001801e0558     libvcruntime:undname.obj
 0002:0000b568       ??_C@_0P@GCIFDJCJ@?$GAunknown?5ecsu?8@ 00000001801e0568     libvcruntime:undname.obj
 0002:0000b578       ??_C@_06MOJHIBMG@union?5@  00000001801e0578     libvcruntime:undname.obj
 0002:0000b580       ??_C@_07DIBCDNGL@struct?5@ 00000001801e0580     libvcruntime:undname.obj
 0002:0000b588       ??_C@_06LJBABKPM@class?5@  00000001801e0588     libvcruntime:undname.obj
 0002:0000b590       ??_C@_08KOFANOFK@coclass?5@ 00000001801e0590     libvcruntime:undname.obj
 0002:0000b5a0       ??_C@_0N@DLIEFKNA@cointerface?5@ 00000001801e05a0     libvcruntime:undname.obj
 0002:0000b5b0       ??_C@_05LJGMCFOG@enum?5@   00000001801e05b0     libvcruntime:undname.obj
 0002:0000b5b8       ??_C@_06LIJLOJAG@const?5@  00000001801e05b8     libvcruntime:undname.obj
 0002:0000b5c0       ??_C@_02KJPKDIBN@?$CG?5@   00000001801e05c0     libvcruntime:undname.obj
 0002:0000b5c4       ??_C@_03PCKGMOPB@?$CG?$CG?5@ 00000001801e05c4     libvcruntime:undname.obj
 0002:0000b5c8       ??_C@_0M@EALIELKG@cli?3?3array?$DM@ 00000001801e05c8     libvcruntime:undname.obj
 0002:0000b5d8       ??_C@_0O@GKABPPIF@cli?3?3pin_ptr?$DM@ 00000001801e05d8     libvcruntime:undname.obj
 0002:0000b5e8       ??_C@_02GOGNNPBN@?$CJ?$FL@ 00000001801e05e8     libvcruntime:undname.obj
 0002:0000b5ec       ??_C@_06EEGAIFAK@?$HLflat?$HN@ 00000001801e05ec     libvcruntime:undname.obj
 0002:0000b5f4       ??_C@_05JIBOFOHK@?$HLfor?5@ 00000001801e05f4     libvcruntime:undname.obj
 0002:0000b5fc       ??_C@_02MDINNEEG@s?5@      00000001801e05fc     libvcruntime:undname.obj
 0002:0000b608       ??_7charNode@@6B@          00000001801e0608     libvcruntime:undname.obj
 0002:0000b630       ??_7pcharNode@@6B@         00000001801e0630     libvcruntime:undname.obj
 0002:0000b658       ??_7pDNameNode@@6B@        00000001801e0658     libvcruntime:undname.obj
 0002:0000b680       ??_7DNameStatusNode@@6B@   00000001801e0680     libvcruntime:undname.obj
 0002:0000b6a8       ??_7pairNode@@6B@          00000001801e06a8     libvcruntime:undname.obj
 0002:0000b7d0       ??_C@_04OKOHEJBO@?5?$DP?$DP?5@ 00000001801e07d0     libvcruntime:undname.obj
 0002:0000b7e0       ?nodes@?1??make@DNameStatusNode@@SAPEBV2@W4DNameStatus@@@Z@4QBV2@B 00000001801e07e0     libvcruntime:undname.obj
 0002:0000b820       ?s_negLengthTab@FH4@@3QBCB 00000001801e0820     libvcruntime:risctrnsctrl.obj
 0002:0000b830       ?s_shiftTab@FH4@@3QBEB     00000001801e0830     libvcruntime:risctrnsctrl.obj
 0002:0000b990       ??_C@_1DM@KHCHBNEB@?$AAa?$AAp?$AAi?$AA?9?$AAm?$AAs?$AA?9?$AAw?$AAi?$AAn?$AA?9?$AAc?$AAo?$AAr?$AAe@ 00000001801e0990     libvcruntime:winapi_downlevel.obj
 0002:0000b9d0       ??_C@_1DK@LPPGFMPP@?$AAa?$AAp?$AAi?$AA?9?$AAm?$AAs?$AA?9?$AAw?$AAi?$AAn?$AA?9?$AAc?$AAo?$AAr?$AAe@ 00000001801e09d0     libvcruntime:winapi_downlevel.obj
 0002:0000ba10       ??_C@_1BC@GDMECMAK@?$AAk?$AAe?$AAr?$AAn?$AAe?$AAl?$AA3?$AA2@ 00000001801e0a10     libvcruntime:winapi_downlevel.obj
 0002:0000ba28       ??_C@_1BA@PFFKHIOG@?$AAa?$AAp?$AAi?$AA?9?$AAm?$AAs?$AA?9@ 00000001801e0a28     libvcruntime:winapi_downlevel.obj
 0002:0000ba40       ??_C@_08KNHFBNJ@FlsAlloc@  00000001801e0a40     libvcruntime:winapi_downlevel.obj
 0002:0000ba58       ??_C@_07PEJMOBNF@FlsFree@  00000001801e0a58     libvcruntime:winapi_downlevel.obj
 0002:0000ba68       ??_C@_0M@GDNOONDI@FlsGetValue@ 00000001801e0a68     libvcruntime:winapi_downlevel.obj
 0002:0000ba80       ??_C@_0M@JCPCPOEF@FlsSetValue@ 00000001801e0a80     libvcruntime:winapi_downlevel.obj
 0002:0000ba98       ??_C@_0BM@HCFOFFN@InitializeCriticalSectionEx@ 00000001801e0a98     libvcruntime:winapi_downlevel.obj
 0002:0000bac0       ??_7exception@std@@6B@     00000001801e0ac0     libvcruntime:frame.obj
 0002:0000bad0       ??_C@_0BC@EOODALEL@Unknown?5exception@ 00000001801e0ad0     libvcruntime:frame.obj
 0002:0000baf0       ??_7bad_exception@std@@6B@ 00000001801e0af0     libvcruntime:frame.obj
 0002:0000bb00       ??_C@_0O@DPKOEFFH@bad?5exception@ 00000001801e0b00     libvcruntime:frame.obj
 0002:0000be50       ?standard_lookup_table_spectre@__crt_stdio_output@@3V?$spectre_mitigated_lookup_table@Ustate_transition_pair@__crt_stdio_output@@$0IA@@1@B 00000001801e0e50     libucrt:output.obj
 0002:0000bf50       ?format_validation_lookup_table_spectre@__crt_stdio_output@@3V?$spectre_mitigated_lookup_table@Ustate_transition_pair@__crt_stdio_output@@$0IA@@1@B 00000001801e0f50     libucrt:output.obj
 0002:0000c050       ??_C@_1O@CEDCILHN@?$AA?$CI?$AAn?$AAu?$AAl?$AAl?$AA?$CJ@ 00000001801e1050     libucrt:output.obj
 0002:0000c060       ??_C@_06OJHGLDPL@?$CInull?$CJ@ 00000001801e1060     libucrt:output.obj
 0002:0000d0f8       __real@3f1a36e2eb1c432d    00000001801e20f8     libucrt:atan2f.obj
 0002:0000d100       __real@3fb0000000000000    00000001801e2100     libucrt:atan2f.obj
 0002:0000d108       __real@3fc2492482bd6be1    00000001801e2108     libucrt:atan2f.obj
 0002:0000d110       __real@3fc99999999643a3    00000001801e2110     libucrt:atan2f.obj
 0002:0000d118       __real@3fd5555555550877    00000001801e2118     libucrt:atan2f.obj
 0002:0000d120       __real@3fd5555555555538    00000001801e2120     libucrt:atan2f.obj
 0002:0000d128       __real@3ff921fb54442d18    00000001801e2128     libucrt:atan2f.obj
 0002:0000d130       __real@400921fb54442d18    00000001801e2130     libucrt:atan2f.obj
 0002:0000d138       __real@4070000000000000    00000001801e2138     libucrt:atan2f.obj
 0002:0000d140       __real@bf490fdb            00000001801e2140     libucrt:atan2f.obj
 0002:0000d144       __real@bfc90fdb            00000001801e2144     libucrt:atan2f.obj
 0002:0000d148       __real@c016cbe4            00000001801e2148     libucrt:atan2f.obj
 0002:0000d14c       __real@c0490fdb            00000001801e214c     libucrt:atan2f.obj
 0002:0000d150       ??_C@_05FFFCHCED@acosf@    00000001801e2150     libucrt:acosf.obj
 0002:0000d158       __real@3b81ce6b            00000001801e2158     libucrt:acosf.obj
 0002:0000d160       __real@3c91a62633145c07    00000001801e2160     libucrt:acosf.obj
 0002:0000d168       __real@3d678bdd            00000001801e2168     libucrt:acosf.obj
 0002:0000d16c       __real@3e3c94dc            00000001801e216c     libucrt:acosf.obj
 0002:0000d170       __real@3f561f0d            00000001801e2170     libucrt:acosf.obj
 0002:0000d174       __real@3f8d6fa5            00000001801e2174     libucrt:acosf.obj
 0002:0000d178       __real@bc5b3fe1            00000001801e2178     libucrt:acosf.obj
